 cssmatch

 Timestamp is 48761760 (Thu Jul 10 16:06:24 2008)

 Preferred load address is 10000000

 Start         Length     Name                   Class
 0001:00000000 00062956H .text                   CODE
 0001:00062960 00004ccdH .text$x                 CODE
 0001:00067630 0000094eH .text$yc                CODE
 0001:00067f80 00000332H .text$yd                CODE
 0002:00000000 00000198H .idata$5                DATA
 0002:00000198 00000004H .CRT$XCA                DATA
 0002:0000019c 0000000cH .CRT$XCC                DATA
 0002:000001a8 000000c0H .CRT$XCU                DATA
 0002:00000268 00000004H .CRT$XCZ                DATA
 0002:0000026c 00000004H .CRT$XIA                DATA
 0002:00000270 00000014H .CRT$XIC                DATA
 0002:00000284 00000004H .CRT$XID                DATA
 0002:00000288 00000004H .CRT$XIY                DATA
 0002:0000028c 00000004H .CRT$XIZ                DATA
 0002:00000290 00000004H .CRT$XPA                DATA
 0002:00000294 00000004H .CRT$XPX                DATA
 0002:00000298 00000004H .CRT$XPXA               DATA
 0002:0000029c 00000004H .CRT$XPZ                DATA
 0002:000002a0 00000004H .CRT$XTA                DATA
 0002:000002a4 00000004H .CRT$XTB                DATA
 0002:000002a8 00000004H .CRT$XTZ                DATA
 0002:000002b0 0000ed18H .rdata                  DATA
 0002:0000efc8 00000075H .rdata$debug            DATA
 0002:0000f040 00001218H .rdata$r                DATA
 0002:00010260 00000500H .rdata$sxdata           DATA
 0002:00010760 00000004H .rtc$IAA                DATA
 0002:00010764 00000004H .rtc$IZZ                DATA
 0002:00010768 00000004H .rtc$TAA                DATA
 0002:0001076c 00000004H .rtc$TZZ                DATA
 0002:00010770 00006b04H .xdata$x                DATA
 0002:00017274 0000003cH .idata$2                DATA
 0002:000172b0 00000014H .idata$3                DATA
 0002:000172c4 00000198H .idata$4                DATA
 0002:0001745c 00000746H .idata$6                DATA
 0002:00017bb0 0000004fH .edata                  DATA
 0003:00000000 0000235bH .data                   DATA
 0003:00002360 0000c5b0H .bss                    DATA

  Address         Publics by Value              Rva+Base       Lib:Object

 0000:00000000       __except_list              00000000     <absolute>
 0000:00000140       ___safe_se_handler_count   00000140     <absolute>
 0000:00000000       ___ImageBase               10000000     <linker-defined>
 0001:00000000       ?strrchr@@YAPADPADH@Z      10001000 f i memoverride.obj
 0001:00000010       ?MakeModuleFileName@@YAPBDXZ 10001010 f   memoverride.obj
 0001:000001e0       _malloc                    100011e0 f   memoverride.obj
 0001:000001f0       _free                      100011f0 f   memoverride.obj
 0001:00000210       _realloc                   10001210 f   memoverride.obj
 0001:00000230       _calloc                    10001230 f   memoverride.obj
 0001:00000260       __malloc_base              10001260 f   memoverride.obj
 0001:00000270       __free_base                10001270 f   memoverride.obj
 0001:00000290       __realloc_base             10001290 f   memoverride.obj
 0001:000002b0       __realloc_crt              100012b0 f   memoverride.obj
 0001:000002d0       __recalloc_crt             100012d0 f   memoverride.obj
 0001:00000300       __recalloc                 10001300 f   memoverride.obj
 0001:00000330       __malloc_crt               10001330 f   memoverride.obj
 0001:00000340       __calloc_crt               10001340 f   memoverride.obj
 0001:00000370       __heapchk                  10001370 f   memoverride.obj
 0001:00000380       __heapmin                  10001380 f   memoverride.obj
 0001:00000390       __msize                    10001390 f   memoverride.obj
 0001:000003b0       _msize                     100013b0 f   memoverride.obj
 0001:000003d0       __heap_alloc               100013d0 f   memoverride.obj
 0001:000003e0       __nh_malloc                100013e0 f   memoverride.obj
 0001:000003f0       __expand                   100013f0 f   memoverride.obj
 0001:00000400       __get_sbh_threshold        10001400 f   memoverride.obj
 0001:00000410       __set_sbh_threshold        10001410 f   memoverride.obj
 0001:00000420       __heapadd                  10001420 f   memoverride.obj
 0001:00000430       __heapset                  10001430 f   memoverride.obj
 0001:00000440       __heapused                 10001440 f   memoverride.obj
 0001:00000450       __heapwalk                 10001450 f   memoverride.obj
 0001:00000460       _malloc_db                 10001460 f   memoverride.obj
 0001:00000480       _free_db                   10001480 f   memoverride.obj
 0001:000004a0       _realloc_db                100014a0 f   memoverride.obj
 0001:000004d0       __heap_init                100014d0 f   memoverride.obj
 0001:000004e0       __heap_term                100014e0 f   memoverride.obj
 0001:000004f0       ??2@YAPAXI@Z               100014f0 f   memoverride.obj
 0001:00000500       ??2@YAPAXIHPBDH@Z          10001500 f   memoverride.obj
 0001:00000520       ??3@YAXPAX@Z               10001520 f   memoverride.obj
 0001:00000540       ??_U@YAPAXI@Z              10001540 f   memoverride.obj
 0001:00000550       ??_U@YAPAXIHPBDH@Z         10001550 f   memoverride.obj
 0001:00000570       ??_V@YAXPAX@Z              10001570 f   memoverride.obj
 0001:00000590       ??0CAttibCRT@@QAE@H@Z      10001590 f i memoverride.obj
 0001:000005c0       ??1CAttibCRT@@QAE@XZ       100015c0 f i memoverride.obj
 0001:000005e0       __nh_malloc_dbg            100015e0 f   memoverride.obj
 0001:00000640       __malloc_dbg               10001640 f   memoverride.obj
 0001:000006a0       __calloc_dbg               100016a0 f   memoverride.obj
 0001:00000710       __realloc_dbg              10001710 f   memoverride.obj
 0001:00000770       __expand_dbg               10001770 f   memoverride.obj
 0001:00000780       __free_dbg                 10001780 f   memoverride.obj
 0001:000007d0       __msize_dbg                100017d0 f   memoverride.obj
 0001:000007f0       __aligned_malloc_base      100017f0 f   memoverride.obj
 0001:00000800       __aligned_realloc_base     10001800 f   memoverride.obj
 0001:00000820       __aligned_free_base        10001820 f   memoverride.obj
 0001:00000840       __aligned_malloc           10001840 f   memoverride.obj
 0001:00000850       __aligned_free             10001850 f   memoverride.obj
 0001:00000870       __aligned_realloc          10001870 f   memoverride.obj
 0001:00000890       __aligned_offset_malloc    10001890 f   memoverride.obj
 0001:000008a0       __aligned_offset_realloc   100018a0 f   memoverride.obj
 0001:000008c0       __CrtDumpMemoryLeaks       100018c0 f   memoverride.obj
 0001:000008d0       __CrtSetDumpClient         100018d0 f   memoverride.obj
 0001:000008e0       __CrtSetDbgFlag            100018e0 f   memoverride.obj
 0001:00000900       ___p__crtDbgFlag           10001900 f   memoverride.obj
 0001:00000910       ___p__crtBreakAlloc        10001910 f   memoverride.obj
 0001:00000920       __CrtSetDbgBlockType       10001920 f   memoverride.obj
 0001:00000930       __CrtSetAllocHook          10001930 f   memoverride.obj
 0001:00000940       __CrtSetBreakAlloc         10001940 f   memoverride.obj
 0001:00000960       __CrtIsValidHeapPointer    10001960 f   memoverride.obj
 0001:00000980       __CrtIsValidPointer        10001980 f   memoverride.obj
 0001:000009a0       __CrtCheckMemory           100019a0 f   memoverride.obj
 0001:000009b0       __CrtIsMemoryBlock         100019b0 f   memoverride.obj
 0001:000009c0       __CrtMemDifference         100019c0 f   memoverride.obj
 0001:000009d0       __CrtMemDumpStatistics     100019d0 f   memoverride.obj
 0001:000009e0       __CrtMemCheckpoint         100019e0 f   memoverride.obj
 0001:00000a00       __CrtMemDumpAllObjectsSince 10001a00 f   memoverride.obj
 0001:00000a10       __CrtDoForAllClientObjects 10001a10 f   memoverride.obj
 0001:00000a20       __CrtSetReportMode         10001a20 f   memoverride.obj
 0001:00000a40       __CrtSetReportFile         10001a40 f   memoverride.obj
 0001:00000a60       __CrtSetReportHook         10001a60 f   memoverride.obj
 0001:00000a80       __CrtDbgReport             10001a80 f   memoverride.obj
 0001:00000ad0       __CrtSetCheckCount         10001ad0 f   memoverride.obj
 0001:00000ae0       __CrtGetCheckCount         10001ae0 f   memoverride.obj
 0001:00000af0       __aligned_offset_recalloc_dbg 10001af0 f   memoverride.obj
 0001:00000b20       __aligned_recalloc         10001b20 f   memoverride.obj
 0001:00000b50       __aligned_recalloc_dbg     10001b50 f   memoverride.obj
 0001:00000b80       __aligned_offset_recalloc  10001b80 f   memoverride.obj
 0001:00000bb0       __recalloc_dbg             10001bb0 f   memoverride.obj
 0001:00000bc0       __CrtGetReportHook         10001bc0 f   memoverride.obj
 0001:00000bd0       __CrtDbgReportW            10001bd0 f   memoverride.obj
 0001:00000be0       __CrtReportBlockType       10001be0 f   memoverride.obj
 0001:00000bf0       __heap_alloc_base          10001bf0 f   memoverride.obj
 0001:00000c00       __heap_alloc_dbg           10001c00 f   memoverride.obj
 0001:00000c10       __free_nolock              10001c10 f   memoverride.obj
 0001:00000c30       __free_dbg_nolock          10001c30 f   memoverride.obj
 0001:00000c50       __CrtGetAllocHook          10001c50 f   memoverride.obj
 0001:00000c60       __CrtGetDumpClient         10001c60 f   memoverride.obj
 0001:00000c70       __aligned_malloc_dbg       10001c70 f   memoverride.obj
 0001:00000c80       __aligned_realloc_dbg      10001c80 f   memoverride.obj
 0001:00000ca0       __aligned_offset_malloc_dbg 10001ca0 f   memoverride.obj
 0001:00000cb0       __aligned_offset_malloc_base 10001cb0 f   memoverride.obj
 0001:00000cc0       __aligned_offset_realloc_dbg 10001cc0 f   memoverride.obj
 0001:00000ce0       __aligned_free_dbg         10001ce0 f   memoverride.obj
 0001:00000d00       __CrtSetDebugFillThreshold 10001d00 f   memoverride.obj
 0001:00000d10       __strdup                   10001d10 f   memoverride.obj
 0001:00000d20       __wcsdup_dbg               10001d20 f   memoverride.obj
 0001:00000d30       __wcsdup                   10001d30 f   memoverride.obj
 0001:00000d40       ??0IConCommandBaseAccessor@@QAE@XZ 10001d40 f i serverplugin_convar.obj
 0001:00000d50       ?InitCVars@@YAXP6APAXPBDPAH@Z@Z 10001d50 f   serverplugin_convar.obj
 0001:00000d80       ??0CPluginConVarAccessor@@QAE@XZ 10001d80 f i serverplugin_convar.obj
 0001:00000d90       ?RegisterConCommandBase@CPluginConVarAccessor@@UAE_NPAVConCommandBase@@@Z 10001d90 f i serverplugin_convar.obj
 0001:00000dc0       ?assign@?$char_traits@D@std@@SAXAADABD@Z 10001dc0 f i API.obj
 0001:00000dd0       ?compare@?$char_traits@D@std@@SAHPBD0I@Z 10001dd0 f i API.obj
 0001:00000e60       ?length@?$char_traits@D@std@@SAIPBD@Z 10001e60 f i API.obj
 0001:00000e80       ?_Copy_s@?$char_traits@D@std@@SAPADPADIPBDI@Z 10001e80 f i API.obj
 0001:00000eb0       ?find@?$char_traits@D@std@@SAPBDPBDIABD@Z 10001eb0 f i API.obj
 0001:00000ed0       ?_Move_s@?$char_traits@D@std@@SAPADPADIPBDI@Z 10001ed0 f i API.obj
 0001:00000f00       ?to_int_type@?$char_traits@D@std@@SAHABD@Z 10001f00 f i API.obj
 0001:00000f10       ?eq_int_type@?$char_traits@D@std@@SA_NABH0@Z 10001f10 f i API.obj
 0001:00000f30       ?eof@?$char_traits@D@std@@SAHXZ 10001f30 f i API.obj
 0001:00000f40       ??0_Iterator_base@std@@QAE@XZ 10001f40 f i API.obj
 0001:00000f50       ??0bad_alloc@std@@QAE@PBD@Z 10001f50 f i API.obj
 0001:00000f70       ??1bad_alloc@std@@UAE@XZ   10001f70 f i API.obj
 0001:00000f80       ??_Ebad_alloc@std@@UAEPAXI@Z 10001f80 f i API.obj
 0001:00000f80       ??_Gbad_alloc@std@@UAEPAXI@Z 10001f80 f i API.obj
 0001:00000fb0       ?_Getctype@_Locinfo@std@@QBE?AU_Ctypevec@@XZ 10001fb0 f i API.obj
 0001:00000fe0       ?_Getcvt@_Locinfo@std@@QBE?AU_Cvtvec@@XZ 10001fe0 f i API.obj
 0001:00001000       ??0id@locale@std@@QAE@I@Z  10002000 f i API.obj
 0001:00001010       ??Bid@locale@std@@QAEIXZ   10002010 f i API.obj
 0001:00001050       ?_Incref@facet@locale@std@@QAEXXZ 10002050 f i API.obj
 0001:00001080       ?_Decref@facet@locale@std@@QAEPAV123@XZ 10002080 f i API.obj
 0001:000010c0       ?_Register@facet@locale@std@@QAEXXZ 100020c0 f i API.obj
 0001:000010d0       ??1facet@locale@std@@UAE@XZ 100020d0 f i API.obj
 0001:000010e0       ??0facet@locale@std@@IAE@I@Z 100020e0 f i API.obj
 0001:00001100       ??0locale@std@@QAE@XZ      10002100 f i API.obj
 0001:00001140       ??0locale@std@@QAE@ABV01@@Z 10002140 f i API.obj
 0001:00001180       ??1locale@std@@QAE@XZ      10002180 f i API.obj
 0001:000011d0       ?_Getfacet@locale@std@@QBEPBVfacet@12@I@Z 100021d0 f i API.obj
 0001:00001210       ??_Efacet@locale@std@@UAEPAXI@Z 10002210 f i API.obj
 0001:00001210       ??_Gfacet@locale@std@@UAEPAXI@Z 10002210 f i API.obj
 0001:00001230       ??0ctype_base@std@@QAE@I@Z 10002230 f i API.obj
 0001:00001250       ??1ctype_base@std@@UAE@XZ  10002250 f i API.obj
 0001:00001260       ??_Gctype_base@std@@UAEPAXI@Z 10002260 f i API.obj
 0001:00001260       ??_Ectype_base@std@@UAEPAXI@Z 10002260 f i API.obj
 0001:00001280       ?widen@?$ctype@D@std@@QBEDD@Z 10002280 f i API.obj
 0001:00001290       ?_Init@?$ctype@D@std@@IAEXABV_Locinfo@2@@Z 10002290 f i API.obj
 0001:000012d0       ?_Tidy@?$ctype@D@std@@IAEXXZ 100022d0 f i API.obj
 0001:00001300       ?rdstate@ios_base@std@@QBEHXZ 10002300 f i API.obj
 0001:00001310       ?good@ios_base@std@@QBE_NXZ 10002310 f i API.obj
 0001:00001320       ?fail@ios_base@std@@QBE_NXZ 10002320 f i API.obj
 0001:00001330       ?flags@ios_base@std@@QBEHXZ 10002330 f i API.obj
 0001:00001340       ?width@ios_base@std@@QBEHXZ 10002340 f i API.obj
 0001:00001350       ?width@ios_base@std@@QAEHH@Z 10002350 f i API.obj
 0001:00001360       ?getloc@ios_base@std@@QBE?AVlocale@2@XZ 10002360 f i API.obj
 0001:000013a0       ??1ios_base@std@@UAE@XZ    100023a0 f i API.obj
 0001:000013b0       ??0ios_base@std@@IAE@XZ    100023b0 f i API.obj
 0001:000013c0       ??_Eios_base@std@@UAEPAXI@Z 100023c0 f i API.obj
 0001:000013c0       ??_Gios_base@std@@UAEPAXI@Z 100023c0 f i API.obj
 0001:000013f0       ??0Vector2D@@QAE@MM@Z      100023f0 f i API.obj
 0001:00001410       ??_H@YGXPAXIHP6EPAX0@Z@Z   10002410 f i API.obj
 0001:00001450       ?GetIServerEntity@CBaseEdict@@QAEPAVIServerEntity@@XZ 10002450 f i API.obj
 0001:00001460       ?IsFree@CBaseEdict@@QBE_NXZ 10002460 f i API.obj
 0001:00001470       ?GetUnknown@CBaseEdict@@QAEPAVIServerUnknown@@XZ 10002470 f i API.obj
 0001:00001480       ?NetworkStateChanged@NetworkVar_m_iHealth@CBaseEntity@@SAXPAX@Z 10002480 f i API.obj
 0001:000014a0       ?isValidePEntity@Api@@SA_NPAUedict_t@@@Z 100024a0 f   API.obj
 0001:000014c0       ?isValidePlayer@Api@@SA_NPAVIPlayerInfo@@@Z 100024c0 f   API.obj
 0001:00001500       ?isValideIndex@Api@@SA_NH@Z 10002500 f   API.obj
 0001:00001520       ?size@?$basic_string@DU?$char_traits@D@std@@V?$allocator@D@2@@std@@QBEIXZ 10002520 f i API.obj
 0001:00001530       ??1?$basic_ostream@DU?$char_traits@D@std@@@std@@UAE@XZ 10002530 f i API.obj
 0001:00001540       ??1?$basic_ios@DU?$char_traits@D@std@@@std@@UAE@XZ 10002540 f i API.obj
 0001:00001550       ?rdbuf@?$basic_ios@DU?$char_traits@D@std@@@std@@QBEPAV?$basic_streambuf@DU?$char_traits@D@std@@@2@XZ 10002550 f i API.obj
 0001:00001560       ??_Glocale@std@@QAEPAXI@Z  10002560 f i API.obj
 0001:000015d0       ??_D?$basic_ostream@DU?$char_traits@D@std@@@std@@QAEXXZ 100025d0 f i API.obj
 0001:000015f0       ?_Myptr@?$basic_string@DU?$char_traits@D@std@@V?$allocator@D@2@@std@@IAEPADXZ 100025f0 f i API.obj
 0001:00001600       ?_Myptr@?$basic_string@DU?$char_traits@D@std@@V?$allocator@D@2@@std@@IBEPBDXZ 10002600 f i API.obj
 0001:00001610       ??0?$allocator@D@std@@QAE@XZ 10002610 f i API.obj
 0001:00001620       ??0?$allocator@D@std@@QAE@ABV01@@Z 10002620 f i API.obj
 0001:00001630       ?deallocate@?$allocator@D@std@@QAEXPADI@Z 10002630 f i API.obj
 0001:00001640       ?fill@?$basic_ios@DU?$char_traits@D@std@@@std@@QBEDXZ 10002640 f i API.obj
 0001:00001650       ??0?$basic_ios@DU?$char_traits@D@std@@@std@@IAE@XZ 10002650 f i API.obj
 0001:00001660       ??_E?$basic_ios@DU?$char_traits@D@std@@@std@@UAEPAXI@Z 10002660 f i API.obj
 0001:00001660       ??_G?$basic_ios@DU?$char_traits@D@std@@@std@@UAEPAXI@Z 10002660 f i API.obj
 0001:00001690       ?pubsync@?$basic_streambuf@DU?$char_traits@D@std@@@std@@QAEHXZ 10002690 f i API.obj
 0001:000016a0       ?_Unlock@?$basic_streambuf@DU?$char_traits@D@std@@@std@@QAEXXZ 100026a0 f i API.obj
 0001:000016b0       ?eback@?$basic_streambuf@DU?$char_traits@D@std@@@std@@IBEPADXZ 100026b0 f i API.obj
 0001:000016c0       ?gptr@?$basic_streambuf@DU?$char_traits@D@std@@@std@@IBEPADXZ 100026c0 f i API.obj
 0001:000016d0       ?pbase@?$basic_streambuf@DU?$char_traits@D@std@@@std@@IBEPADXZ 100026d0 f i API.obj
 0001:000016e0       ?pptr@?$basic_streambuf@DU?$char_traits@D@std@@@std@@IBEPADXZ 100026e0 f i API.obj
 0001:000016f0       ?egptr@?$basic_streambuf@DU?$char_traits@D@std@@@std@@IBEPADXZ 100026f0 f i API.obj
 0001:00001700       ?setg@?$basic_streambuf@DU?$char_traits@D@std@@@std@@IAEXPAD00@Z 10002700 f i API.obj
 0001:00001720       ?epptr@?$basic_streambuf@DU?$char_traits@D@std@@@std@@IBEPADXZ 10002720 f i API.obj
 0001:00001730       ?setp@?$basic_streambuf@DU?$char_traits@D@std@@@std@@IAEXPAD0@Z 10002730 f i API.obj
 0001:00001750       ?setp@?$basic_streambuf@DU?$char_traits@D@std@@@std@@IAEXPAD00@Z 10002750 f i API.obj
 0001:00001770       ?_Pninc@?$basic_streambuf@DU?$char_traits@D@std@@@std@@IAEPADXZ 10002770 f i API.obj
 0001:00001790       ?_Pnavail@?$basic_streambuf@DU?$char_traits@D@std@@@std@@IBEHXZ 10002790 f i API.obj
 0001:000017b0       ?_Tidy@?$basic_stringbuf@DU?$char_traits@D@std@@V?$allocator@D@2@@std@@IAEXXZ 100027b0 f i API.obj
 0001:00001810       ??D?$_String_const_iterator@DU?$char_traits@D@std@@V?$allocator@D@2@@std@@QBEABDXZ 10002810 f i API.obj
 0001:00001850       ??8?$_String_const_iterator@DU?$char_traits@D@std@@V?$allocator@D@2@@std@@QBE_NABV01@@Z 10002850 f i API.obj
 0001:00001880       ??Bsentry@?$basic_ostream@DU?$char_traits@D@std@@@std@@QBE_NXZ 10002880 f i API.obj
 0001:00001890       ?put@?$num_put@DV?$ostreambuf_iterator@DU?$char_traits@D@std@@@std@@@std@@QBE?AV?$ostreambuf_iterator@DU?$char_traits@D@std@@@2@V32@AAVios_base@2@DJ@Z 10002890 f i API.obj
 0001:000018d0       ?failed@?$ostreambuf_iterator@DU?$char_traits@D@std@@@std@@QBE_NXZ 100028d0 f i API.obj
 0001:000018e0       ??0?$_Iterator_with_base@Uoutput_iterator_tag@std@@XXXXU_Iterator_base@2@@std@@QAE@XZ 100028e0 f i API.obj
 0001:000018f0       ?_Eos@?$basic_string@DU?$char_traits@D@std@@V?$allocator@D@2@@std@@IAEXI@Z 100028f0 f i API.obj
 0001:00001910       ?tie@?$basic_ios@DU?$char_traits@D@std@@@std@@QBEPAV?$basic_ostream@DU?$char_traits@D@std@@@2@XZ 10002910 f i API.obj
 0001:00001920       ?_Lock@?$basic_streambuf@DU?$char_traits@D@std@@@std@@QAEXXZ 10002920 f i API.obj
 0001:00001930       ?_Getstate@?$basic_stringbuf@DU?$char_traits@D@std@@V?$allocator@D@2@@std@@AAEHH@Z 10002930 f i API.obj
 0001:00001960       ??E?$_String_const_iterator@DU?$char_traits@D@std@@V?$allocator@D@2@@std@@QAEAAV01@XZ 10002960 f i API.obj
 0001:000019a0       ??0_Sentry_base@?$basic_ostream@DU?$char_traits@D@std@@@std@@QAE@AAV12@@Z 100029a0 f i API.obj
 0001:000019d0       ??1_Sentry_base@?$basic_ostream@DU?$char_traits@D@std@@@std@@QAE@XZ 100029d0 f i API.obj
 0001:000019f0       ??0?$_Ranit_base@DHPBDABDU_Iterator_base@std@@@std@@QAE@XZ 100029f0 f i API.obj
 0001:00001a00       ?_Inside@?$basic_string@DU?$char_traits@D@std@@V?$allocator@D@2@@std@@IAE_NPBD@Z 10002a00 f i API.obj
 0001:00001a40       ?_Init@?$basic_streambuf@DU?$char_traits@D@std@@@std@@IAEXXZ 10002a40 f i API.obj
 0001:00001aa0       ?max_size@?$allocator@D@std@@QBEIXZ 10002aa0 f i API.obj
 0001:00001ab0       ??$_Allocate@D@std@@YAPADIPAD@Z 10002ab0 f i API.obj
 0001:00001b10       ??0bad_alloc@std@@QAE@ABV01@@Z 10002b10 f i API.obj
 0001:00001b30       ?sputn@?$basic_streambuf@DU?$char_traits@D@std@@@std@@QAEHPBDH@Z 10002b30 f i API.obj
 0001:00001b40       ?NetworkStateChanged@?$CNetworkVarBase@HVNetworkVar_m_iHealth@CBaseEntity@@@@IAEXXZ 10002b40 f i API.obj
 0001:00001b60       ?_Init@?$num_put@DV?$ostreambuf_iterator@DU?$char_traits@D@std@@@std@@@std@@IAEXABV_Locinfo@2@@Z 10002b60 f i API.obj
 0001:00001b80       ??$_Char_traits_cat@U?$char_traits@D@std@@@std@@YA?AU_Secure_char_traits_tag@0@XZ 10002b80 f i API.obj
 0001:00001b90       ??$copy_s@U?$char_traits@D@std@@@_Traits_helper@std@@YAPADPADIPBDIU_Secure_char_traits_tag@1@@Z 10002b90 f i API.obj
 0001:00001bc0       ??$move_s@U?$char_traits@D@std@@@_Traits_helper@std@@YAPADPADIPBDIU_Secure_char_traits_tag@1@@Z 10002bc0 f i API.obj
 0001:00001bf0       ??A?$basic_string@DU?$char_traits@D@std@@V?$allocator@D@2@@std@@QAEAADI@Z 10002bf0 f i API.obj
 0001:00001c20       ??A?$basic_string@DU?$char_traits@D@std@@V?$allocator@D@2@@std@@QBEABDI@Z 10002c20 f i API.obj
 0001:00001c50       ?c_str@?$basic_string@DU?$char_traits@D@std@@V?$allocator@D@2@@std@@QBEPBDXZ 10002c50 f i API.obj
 0001:00001c60       ??1?$basic_streambuf@DU?$char_traits@D@std@@@std@@UAE@XZ 10002c60 f i API.obj
 0001:00001ce0       ?to_char_type@?$char_traits@D@std@@SADABH@Z 10002ce0 f i API.obj
 0001:00001cf0       ?overflow@?$basic_streambuf@DU?$char_traits@D@std@@@std@@MAEHH@Z 10002cf0 f i API.obj
 0001:00001d00       ?pbackfail@?$basic_streambuf@DU?$char_traits@D@std@@@std@@MAEHH@Z 10002d00 f i API.obj
 0001:00001d10       ?showmanyc@?$basic_streambuf@DU?$char_traits@D@std@@@std@@MAEHXZ 10002d10 f i API.obj
 0001:00001d20       ?underflow@?$basic_streambuf@DU?$char_traits@D@std@@@std@@MAEHXZ 10002d20 f i API.obj
 0001:00001d30       ?xsgetn@?$basic_streambuf@DU?$char_traits@D@std@@@std@@MAEHPADH@Z 10002d30 f i API.obj
 0001:00001d50       ?setbuf@?$basic_streambuf@DU?$char_traits@D@std@@@std@@MAEPAV12@PADH@Z 10002d50 f i API.obj
 0001:00001d60       ?sync@?$basic_streambuf@DU?$char_traits@D@std@@@std@@MAEHXZ 10002d60 f i API.obj
 0001:00001d70       ?imbue@?$basic_streambuf@DU?$char_traits@D@std@@@std@@MAEXABVlocale@2@@Z 10002d70 f i API.obj
 0001:00001d80       ?gbump@?$basic_streambuf@DU?$char_traits@D@std@@@std@@IAEXH@Z 10002d80 f i API.obj
 0001:00001da0       ?_Gninc@?$basic_streambuf@DU?$char_traits@D@std@@@std@@IAEPADXZ 10002da0 f i API.obj
 0001:00001dc0       ?_Gnavail@?$basic_streambuf@DU?$char_traits@D@std@@@std@@IBEHXZ 10002dc0 f i API.obj
 0001:00001de0       ?pbump@?$basic_streambuf@DU?$char_traits@D@std@@@std@@IAEXH@Z 10002de0 f i API.obj
 0001:00001e00       ??0?$fpos@H@std@@QAE@J@Z   10002e00 f i API.obj
 0001:00001e20       ?uflow@?$basic_streambuf@DU?$char_traits@D@std@@@std@@MAEHXZ 10002e20 f i API.obj
 0001:00001e50       ?seekoff@?$basic_streambuf@DU?$char_traits@D@std@@@std@@MAE?AV?$fpos@H@2@JHH@Z 10002e50 f i API.obj
 0001:00001e70       ?seekpos@?$basic_streambuf@DU?$char_traits@D@std@@@std@@MAE?AV?$fpos@H@2@V32@H@Z 10002e70 f i API.obj
 0001:00001e90       ??1?$basic_stringbuf@DU?$char_traits@D@std@@V?$allocator@D@2@@std@@UAE@XZ 10002e90 f i API.obj
 0001:00001eb0       ?eq@?$char_traits@D@std@@SA_NABD0@Z 10002eb0 f i API.obj
 0001:00001ed0       ?not_eof@?$char_traits@D@std@@SAHABH@Z 10002ed0 f i API.obj
 0001:00001ef0       ??B?$fpos@H@std@@QBEJXZ    10002ef0 f i API.obj
 0001:00001f00       ?pbackfail@?$basic_stringbuf@DU?$char_traits@D@std@@V?$allocator@D@2@@std@@MAEHH@Z 10002f00 f i API.obj
 0001:00001f50       ?underflow@?$basic_stringbuf@DU?$char_traits@D@std@@V?$allocator@D@2@@std@@MAEHXZ 10002f50 f i API.obj
 0001:00001fc0       ?seekoff@?$basic_stringbuf@DU?$char_traits@D@std@@V?$allocator@D@2@@std@@MAE?AV?$fpos@H@2@JHH@Z 10002fc0 f i API.obj
 0001:00002120       ?seekpos@?$basic_stringbuf@DU?$char_traits@D@std@@V?$allocator@D@2@@std@@MAE?AV?$fpos@H@2@V32@H@Z 10003120 f i API.obj
 0001:000021f0       ??D?$_String_iterator@DU?$char_traits@D@std@@V?$allocator@D@2@@std@@QBEAADXZ 100031f0 f i API.obj
 0001:00002230       ??9?$_String_const_iterator@DU?$char_traits@D@std@@V?$allocator@D@2@@std@@QBE_NABV01@@Z 10003230 f i API.obj
 0001:00002260       ??_E?$basic_ostream@DU?$char_traits@D@std@@@std@@UAEPAXI@Z 10003260 f i API.obj
 0001:00002260       ??_G?$basic_ostream@DU?$char_traits@D@std@@@std@@UAEPAXI@Z 10003260 f i API.obj
 0001:000022a0       ??_E?$basic_streambuf@DU?$char_traits@D@std@@@std@@UAEPAXI@Z 100032a0 f i API.obj
 0001:000022a0       ??_G?$basic_streambuf@DU?$char_traits@D@std@@@std@@UAEPAXI@Z 100032a0 f i API.obj
 0001:000022c0       ??_E?$basic_stringbuf@DU?$char_traits@D@std@@V?$allocator@D@2@@std@@UAEPAXI@Z 100032c0 f i API.obj
 0001:000022c0       ??_G?$basic_stringbuf@DU?$char_traits@D@std@@V?$allocator@D@2@@std@@UAEPAXI@Z 100032c0 f i API.obj
 0001:000022f0       ?find_first_of@?$basic_string@DU?$char_traits@D@std@@V?$allocator@D@2@@std@@QBEIPBDII@Z 100032f0 f i API.obj
 0001:00002380       ?compare@?$basic_string@DU?$char_traits@D@std@@V?$allocator@D@2@@std@@QBEHIIPBDI@Z 10003380 f i API.obj
 0001:000023f0       ??0?$_String_val@DV?$allocator@D@std@@@std@@IAE@V?$allocator@D@1@@Z 100033f0 f i API.obj
 0001:00002400       ?allocate@?$allocator@D@std@@QAEPADI@Z 10003400 f i API.obj
 0001:00002420       ?sputc@?$basic_streambuf@DU?$char_traits@D@std@@@std@@QAEHD@Z 10003420 f i API.obj
 0001:00002460       ??E?$_String_iterator@DU?$char_traits@D@std@@V?$allocator@D@2@@std@@QAEAAV01@XZ 10003460 f i API.obj
 0001:000024a0       ??0?$_Outit_with_base@U_Iterator_base@std@@@std@@QAE@XZ 100034a0 f i API.obj
 0001:000024b0       ??0?$basic_streambuf@DU?$char_traits@D@std@@@std@@IAE@XZ 100034b0 f i API.obj
 0001:00002560       ??0?$_String_const_iterator@DU?$char_traits@D@std@@V?$allocator@D@2@@std@@QAE@PBDPBU_Container_base@1@@Z 10003560 f i API.obj
 0001:000025c0       ?max_size@?$basic_string@DU?$char_traits@D@std@@V?$allocator@D@2@@std@@QBEIXZ 100035c0 f i API.obj
 0001:000025d0       ??$copy_s@U?$char_traits@D@std@@@_Traits_helper@std@@YAPADPADIPBDI@Z 100035d0 f i API.obj
 0001:00002600       ??$move_s@U?$char_traits@D@std@@@_Traits_helper@std@@YAPADPADIPBDI@Z 10003600 f i API.obj
 0001:00002630       ?Set@?$CNetworkVarBase@HVNetworkVar_m_iHealth@CBaseEntity@@@@QAEABHABH@Z 10003630 f i API.obj
 0001:000026e0       ?serveurExecute@Api@@SAXABV?$basic_string@DU?$char_traits@D@std@@V?$allocator@D@2@@std@@@Z 100036e0 f   API.obj
 0001:00002720       ?find_first_of@?$basic_string@DU?$char_traits@D@std@@V?$allocator@D@2@@std@@QBEIPBDI@Z 10003720 f i API.obj
 0001:00002750       ?compare@?$basic_string@DU?$char_traits@D@std@@V?$allocator@D@2@@std@@QBEHABV12@@Z 10003750 f i API.obj
 0001:00002790       ?compare@?$basic_string@DU?$char_traits@D@std@@V?$allocator@D@2@@std@@QBEHPBD@Z 10003790 f i API.obj
 0001:000027c0       ?_Xsgetn_s@?$basic_streambuf@DU?$char_traits@D@std@@@std@@MAEHPADIH@Z 100037c0 f i API.obj
 0001:00002860       ?xsputn@?$basic_streambuf@DU?$char_traits@D@std@@@std@@MAEHPBDH@Z 10003860 f i API.obj
 0001:00002900       ??1?$basic_ostringstream@DU?$char_traits@D@std@@V?$allocator@D@2@@std@@UAE@XZ 10003900 f i API.obj
 0001:00002980       ?overflow@?$basic_stringbuf@DU?$char_traits@D@std@@V?$allocator@D@2@@std@@MAEHH@Z 10003980 f i API.obj
 0001:00002b30       ??E?$_String_iterator@DU?$char_traits@D@std@@V?$allocator@D@2@@std@@QAE?AV01@H@Z 10003b30 f i API.obj
 0001:00002b80       ?_Tidy@?$basic_string@DU?$char_traits@D@std@@V?$allocator@D@2@@std@@IAEX_NI@Z 10003b80 f i API.obj
 0001:00002bd0       ??0?$_String_iterator@DU?$char_traits@D@std@@V?$allocator@D@2@@std@@QAE@PADPBU_Container_base@1@@Z 10003bd0 f i API.obj
 0001:00002bf0       ??0?$ostreambuf_iterator@DU?$char_traits@D@std@@@std@@QAE@PAV?$basic_streambuf@DU?$char_traits@D@std@@@1@@Z 10003bf0 f i API.obj
 0001:00002c10       ?erase@?$basic_string@DU?$char_traits@D@std@@V?$allocator@D@2@@std@@QAEAAV12@II@Z 10003c10 f i API.obj
 0001:00002ca0       ?_Init@?$basic_stringbuf@DU?$char_traits@D@std@@V?$allocator@D@2@@std@@IAEXPBDIH@Z 10003ca0 f i API.obj
 0001:00002d50       ?_Copy@?$basic_string@DU?$char_traits@D@std@@V?$allocator@D@2@@std@@IAEXII@Z 10003d50 f i API.obj
 0001:00002ea0       ??$?4H@?$CNetworkVarBase@HVNetworkVar_m_iHealth@CBaseEntity@@@@QAEABHABH@Z 10003ea0 f i API.obj
 0001:00002eb0       ??$?8DU?$char_traits@D@std@@V?$allocator@D@1@@std@@YA_NABV?$basic_string@DU?$char_traits@D@std@@V?$allocator@D@2@@0@0@Z 10003eb0 f i API.obj
 0001:00002ee0       ??$?8DU?$char_traits@D@std@@V?$allocator@D@1@@std@@YA_NABV?$basic_string@DU?$char_traits@D@std@@V?$allocator@D@2@@0@PBD@Z 10003ee0 f i API.obj
 0001:00002f20       ?SetHealth@CBaseEntity@@QAEXH@Z 10003f20 f i API.obj
 0001:00002f40       ??_D?$basic_ostringstream@DU?$char_traits@D@std@@V?$allocator@D@2@@std@@QAEXXZ 10003f40 f i API.obj
 0001:00002f60       ??0?$basic_string@DU?$char_traits@D@std@@V?$allocator@D@2@@std@@QAE@XZ 10003f60 f i API.obj
 0001:00002f80       ??1?$basic_string@DU?$char_traits@D@std@@V?$allocator@D@2@@std@@QAE@XZ 10003f80 f i API.obj
 0001:00002fb0       ?begin@?$basic_string@DU?$char_traits@D@std@@V?$allocator@D@2@@std@@QAE?AV?$_String_iterator@DU?$char_traits@D@std@@V?$allocator@D@2@@2@XZ 10003fb0 f i API.obj
 0001:00002ff0       ?end@?$basic_string@DU?$char_traits@D@std@@V?$allocator@D@2@@std@@QAE?AV?$_String_iterator@DU?$char_traits@D@std@@V?$allocator@D@2@@2@XZ 10003ff0 f i API.obj
 0001:00003020       ??_G?$basic_ostringstream@DU?$char_traits@D@std@@V?$allocator@D@2@@std@@UAEPAXI@Z 10004020 f i API.obj
 0001:00003020       ??_E?$basic_ostringstream@DU?$char_traits@D@std@@V?$allocator@D@2@@std@@UAEPAXI@Z 10004020 f i API.obj
 0001:00003060       ??0?$basic_stringbuf@DU?$char_traits@D@std@@V?$allocator@D@2@@std@@QAE@H@Z 10004060 f i API.obj
 0001:000030e0       ?_Grow@?$basic_string@DU?$char_traits@D@std@@V?$allocator@D@2@@std@@IAE_NI_N@Z 100040e0 f i API.obj
 0001:000031a0       ?append@?$basic_string@DU?$char_traits@D@std@@V?$allocator@D@2@@std@@QAEAAV12@ABV12@II@Z 100041a0 f i API.obj
 0001:000032a0       ?append@?$basic_string@DU?$char_traits@D@std@@V?$allocator@D@2@@std@@QAEAAV12@ABV12@@Z 100042a0 f i API.obj
 0001:000032c0       ??1runtime_error@std@@UAE@XZ 100042c0 f i API.obj
 0001:00003300       ?what@runtime_error@std@@UBEPBDXZ 10004300 f i API.obj
 0001:00003310       ??_Gruntime_error@std@@UAEPAXI@Z 10004310 f i API.obj
 0001:00003310       ??_Eruntime_error@std@@UAEPAXI@Z 10004310 f i API.obj
 0001:00003360       ??1_Locinfo@std@@QAE@XZ    10004360 f i API.obj
 0001:00003440       ?valideNomDeFichier@Api@@SAXAAV?$basic_string@DU?$char_traits@D@std@@V?$allocator@D@2@@std@@@Z 10004440 f   API.obj
 0001:000036d0       ?assign@?$basic_string@DU?$char_traits@D@std@@V?$allocator@D@2@@std@@QAEAAV12@ABV12@II@Z 100046d0 f i API.obj
 0001:000037b0       ?assign@?$basic_string@DU?$char_traits@D@std@@V?$allocator@D@2@@std@@QAEAAV12@PBDI@Z 100047b0 f i API.obj
 0001:00003880       ?append@?$basic_string@DU?$char_traits@D@std@@V?$allocator@D@2@@std@@QAEAAV12@PBDI@Z 10004880 f i API.obj
 0001:00003970       ??Y?$basic_string@DU?$char_traits@D@std@@V?$allocator@D@2@@std@@QAEAAV01@ABV01@@Z 10004970 f i API.obj
 0001:00003990       ?append@?$basic_string@DU?$char_traits@D@std@@V?$allocator@D@2@@std@@QAEAAV12@PBD@Z 10004990 f i API.obj
 0001:000039c0       ??0?$basic_string@DU?$char_traits@D@std@@V?$allocator@D@2@@std@@QAE@ABV01@@Z 100049c0 f i API.obj
 0001:000039f0       ??0?$basic_string@DU?$char_traits@D@std@@V?$allocator@D@2@@std@@QAE@ABV01@II@Z 100049f0 f i API.obj
 0001:00003a20       ?assign@?$basic_string@DU?$char_traits@D@std@@V?$allocator@D@2@@std@@QAEAAV12@ABV12@@Z 10004a20 f i API.obj
 0001:00003a40       ?assign@?$basic_string@DU?$char_traits@D@std@@V?$allocator@D@2@@std@@QAEAAV12@PBD@Z 10004a40 f i API.obj
 0001:00003a70       ??0?$basic_string@DU?$char_traits@D@std@@V?$allocator@D@2@@std@@QAE@PBDI@Z 10004a70 f i API.obj
 0001:00003aa0       ??Y?$basic_string@DU?$char_traits@D@std@@V?$allocator@D@2@@std@@QAEAAV01@PBD@Z 10004aa0 f i API.obj
 0001:00003ad0       ??0runtime_error@std@@QAE@ABV?$basic_string@DU?$char_traits@D@std@@V?$allocator@D@2@@1@@Z 10004ad0 f i API.obj
 0001:00003b40       ??0failure@ios_base@std@@QAE@ABV?$basic_string@DU?$char_traits@D@std@@V?$allocator@D@2@@2@@Z 10004b40 f i API.obj
 0001:00003b60       ??1failure@ios_base@std@@UAE@XZ 10004b60 f i API.obj
 0001:00003ba0       ??_Efailure@ios_base@std@@UAEPAXI@Z 10004ba0 f i API.obj
 0001:00003ba0       ??_Gfailure@ios_base@std@@UAEPAXI@Z 10004ba0 f i API.obj
 0001:00003bf0       ??0?$basic_string@DU?$char_traits@D@std@@V?$allocator@D@2@@std@@QAE@PBD@Z 10004bf0 f i API.obj
 0001:00003c30       ??4?$basic_string@DU?$char_traits@D@std@@V?$allocator@D@2@@std@@QAEAAV01@ABV01@@Z 10004c30 f i API.obj
 0001:00003c50       ?substr@?$basic_string@DU?$char_traits@D@std@@V?$allocator@D@2@@std@@QBE?AV12@II@Z 10004c50 f i API.obj
 0001:00003c90       ?str@?$basic_stringbuf@DU?$char_traits@D@std@@V?$allocator@D@2@@std@@QBE?AV?$basic_string@DU?$char_traits@D@std@@V?$allocator@D@2@@2@XZ 10004c90 f i API.obj
 0001:00003de0       ??$?HDU?$char_traits@D@std@@V?$allocator@D@1@@std@@YA?AV?$basic_string@DU?$char_traits@D@std@@V?$allocator@D@2@@0@PBDABV10@@Z 10004de0 f i API.obj
 0001:00003ea0       ??$?HDU?$char_traits@D@std@@V?$allocator@D@1@@std@@YA?AV?$basic_string@DU?$char_traits@D@std@@V?$allocator@D@2@@0@ABV10@PBD@Z 10004ea0 f i API.obj
 0001:00003f60       ??0_Locinfo@std@@QAE@PBD@Z 10004f60 f i API.obj
 0001:00004030       ??0runtime_error@std@@QAE@ABV01@@Z 10005030 f i API.obj
 0001:000040b0       ??0?$ctype@D@std@@QAE@PBF_NI@Z 100050b0 f i API.obj
 0001:000041b0       ?do_tolower@?$ctype@D@std@@MBEDD@Z 100051b0 f i API.obj
 0001:000041d0       ?do_tolower@?$ctype@D@std@@MBEPBDPADPBD@Z 100051d0 f i API.obj
 0001:00004200       ?do_toupper@?$ctype@D@std@@MBEDD@Z 10005200 f i API.obj
 0001:00004220       ?do_toupper@?$ctype@D@std@@MBEPBDPADPBD@Z 10005220 f i API.obj
 0001:00004250       ?do_widen@?$ctype@D@std@@MBEDD@Z 10005250 f i API.obj
 0001:00004260       ?do_widen@?$ctype@D@std@@MBEPBDPBD0PAD@Z 10005260 f i API.obj
 0001:00004290       ?_Do_widen_s@?$ctype@D@std@@MBEPBDPBD0PADI@Z 10005290 f i API.obj
 0001:000042d0       ?do_narrow@?$ctype@D@std@@MBEDDD@Z 100052d0 f i API.obj
 0001:000042e0       ?do_narrow@?$ctype@D@std@@MBEPBDPBD0DPAD@Z 100052e0 f i API.obj
 0001:00004310       ?_Do_narrow_s@?$ctype@D@std@@MBEPBDPBD0DPADI@Z 10005310 f i API.obj
 0001:00004350       ??1?$ctype@D@std@@MAE@XZ   10005350 f i API.obj
 0001:00004390       ??_G?$ctype@D@std@@MAEPAXI@Z 10005390 f i API.obj
 0001:00004390       ??_E?$ctype@D@std@@MAEPAXI@Z 10005390 f i API.obj
 0001:000043e0       ?_Getcat@?$ctype@D@std@@SAIPAPBVfacet@locale@2@@Z 100053e0 f i API.obj
 0001:00004460       ?clear@ios_base@std@@QAEXH_N@Z 10005460 f i API.obj
 0001:00004590       ??0failure@ios_base@std@@QAE@ABV012@@Z 10005590 f i API.obj
 0001:000045b0       ?clear@ios_base@std@@QAEXH@Z 100055b0 f i API.obj
 0001:000045c0       ?_Init@ios_base@std@@IAEXXZ 100055c0 f i API.obj
 0001:00004640       ??0CSSMatchApiException@@QAE@ABV?$basic_string@DU?$char_traits@D@std@@V?$allocator@D@2@@std@@@Z 10005640 f i API.obj
 0001:000046b0       ?what@CSSMatchApiException@@UBEPBDXZ 100056b0 f i API.obj
 0001:000046c0       ??1CSSMatchApiException@@UAE@XZ 100056c0 f i API.obj
 0001:00004700       ??_ECSSMatchApiException@@UAEPAXI@Z 10005700 f i API.obj
 0001:00004700       ??_GCSSMatchApiException@@UAEPAXI@Z 10005700 f i API.obj
 0001:00004750       ?configExecute@Api@@SAXABV?$basic_string@DU?$char_traits@D@std@@V?$allocator@D@2@@std@@@Z 10005750 f   API.obj
 0001:00004850       ?getIPlayerInfoFromEntity@Api@@SAPAVIPlayerInfo@@PAUedict_t@@@Z 10005850 f   API.obj
 0001:00004980       ??0CSSMatchApiException@@QAE@ABV0@@Z 10005980 f i API.obj
 0001:00004a00       ?getPEntityFromIndex@Api@@SAPAUedict_t@@H@Z 10005a00 f   API.obj
 0001:00004aa0       ?getUseridFromUsername@Api@@SAHABV?$basic_string@DU?$char_traits@D@std@@V?$allocator@D@2@@std@@@Z 10005aa0 f   API.obj
 0001:00004c00       ?getIndexFromUsername@Api@@SAHABV?$basic_string@DU?$char_traits@D@std@@V?$allocator@D@2@@std@@@Z 10005c00 f   API.obj
 0001:00004d60       ?getPEntityTeam@Api@@SA?AW4CodeTeam@@PAUedict_t@@@Z 10005d60 f   API.obj
 0001:00004e20       ?getIServerEntityFromEdict@Api@@SAPAVIServerEntity@@PAUedict_t@@@Z 10005e20 f   API.obj
 0001:00004f20       ?getCBasePlayerFromEntity@Api@@SAPAVCBasePlayer@@PAUedict_t@@@Z 10005f20 f   API.obj
 0001:00005020       ?getPlayerCount@Api@@SAHW4CodeTeam@@@Z 10006020 f   API.obj
 0001:00005100       ?getPlayerName@Api@@SA?AV?$basic_string@DU?$char_traits@D@std@@V?$allocator@D@2@@std@@PAUedict_t@@@Z 10006100 f   API.obj
 0001:00005240       ?getPlayerSteamID@Api@@SA?AV?$basic_string@DU?$char_traits@D@std@@V?$allocator@D@2@@std@@PAUedict_t@@@Z 10006240 f   API.obj
 0001:00005360       ?cexec@Api@@SAXPAUedict_t@@ABV?$basic_string@DU?$char_traits@D@std@@V?$allocator@D@2@@std@@@Z 10006360 f   API.obj
 0001:000053a0       ?cexecGroupe@Api@@SAXW4CodeTeam@@ABV?$basic_string@DU?$char_traits@D@std@@V?$allocator@D@2@@std@@@Z 100063a0 f   API.obj
 0001:00005520       ?sexec@Api@@SAXPAUedict_t@@ABV?$basic_string@DU?$char_traits@D@std@@V?$allocator@D@2@@std@@@Z 10006520 f   API.obj
 0001:00005570       ?sexecGroupe@Api@@SAXW4CodeTeam@@ABV?$basic_string@DU?$char_traits@D@std@@V?$allocator@D@2@@std@@@Z 10006570 f   API.obj
 0001:000056e0       ?estNulleOuCommentee@Api@@SA_NABV?$basic_string@DU?$char_traits@D@std@@V?$allocator@D@2@@std@@@Z 100066e0 f   API.obj
 0001:00005820       ?extraitChaineFormelle@Api@@SA?BV?$basic_string@DU?$char_traits@D@std@@V?$allocator@D@2@@std@@ABV23@@Z 10006820 f   API.obj
 0001:00005a50       ?debug@Api@@SAXABV?$basic_string@DU?$char_traits@D@std@@V?$allocator@D@2@@std@@@Z 10006a50 f   API.obj
 0001:00005b40       ?timerCexecT@@YAXABV?$basic_string@DU?$char_traits@D@std@@V?$allocator@D@2@@std@@@Z 10006b40 f   API.obj
 0001:00005b50       ?timerCexecCT@@YAXABV?$basic_string@DU?$char_traits@D@std@@V?$allocator@D@2@@std@@@Z 10006b50 f   API.obj
 0001:00005b60       ?str@?$basic_ostringstream@DU?$char_traits@D@std@@V?$allocator@D@2@@std@@QBE?AV?$basic_string@DU?$char_traits@D@std@@V?$allocator@D@2@@2@XZ 10006b60 f i API.obj
 0001:00005b80       ?clear@?$basic_ios@DU?$char_traits@D@std@@@std@@QAEXH_N@Z 10006b80 f i API.obj
 0001:00005ba0       ??$use_facet@V?$ctype@D@std@@@std@@YAABV?$ctype@D@0@ABVlocale@0@@Z 10006ba0 f i API.obj
 0001:00005cd0       ??$getInterface@VIPlayerInfoManager@@@Api@@CA_NP6APAXPBDPAH@ZAAPAVIPlayerInfoManager@@ABV?$basic_string@DU?$char_traits@D@std@@V?$allocator@D@2@@std@@@Z 10006cd0 f i API.obj
 0001:00005dd0       ??$getInterface@VIVEngineServer@@@Api@@CA_NP6APAXPBDPAH@ZAAPAVIVEngineServer@@ABV?$basic_string@DU?$char_traits@D@std@@V?$allocator@D@2@@std@@@Z 10006dd0 f i API.obj
 0001:00005ed0       ??$getInterface@VIGameEventManager2@@@Api@@CA_NP6APAXPBDPAH@ZAAPAVIGameEventManager2@@ABV?$basic_string@DU?$char_traits@D@std@@V?$allocator@D@2@@std@@@Z 10006ed0 f i API.obj
 0001:00005fd0       ??$getInterface@VIFileSystem@@@Api@@CA_NP6APAXPBDPAH@ZAAPAVIFileSystem@@ABV?$basic_string@DU?$char_traits@D@std@@V?$allocator@D@2@@std@@@Z 10006fd0 f i API.obj
 0001:000060d0       ??$getInterface@VIServerPluginHelpers@@@Api@@CA_NP6APAXPBDPAH@ZAAPAVIServerPluginHelpers@@ABV?$basic_string@DU?$char_traits@D@std@@V?$allocator@D@2@@std@@@Z 100070d0 f i API.obj
 0001:000061d0       ??$getInterface@VICvar@@@Api@@CA_NP6APAXPBDPAH@ZAAPAVICvar@@ABV?$basic_string@DU?$char_traits@D@std@@V?$allocator@D@2@@std@@@Z 100071d0 f i API.obj
 0001:000062d0       ??$getInterface@VIServerGameDLL@@@Api@@CA_NP6APAXPBDPAH@ZAAPAVIServerGameDLL@@ABV?$basic_string@DU?$char_traits@D@std@@V?$allocator@D@2@@std@@@Z 100072d0 f i API.obj
 0001:000063d0       ??0?$num_put@DV?$ostreambuf_iterator@DU?$char_traits@D@std@@@std@@@std@@QAE@I@Z 100073d0 f i API.obj
 0001:00006470       ?assign@?$char_traits@D@std@@SAPADPADID@Z 10007470 f i API.obj
 0001:00006490       ?_Getlconv@_Locinfo@std@@QBEPBUlconv@@XZ 10007490 f i API.obj
 0001:000064a0       ?_Getfalse@_Locinfo@std@@QBEPBDXZ 100074a0 f i API.obj
 0001:000064b0       ?_Gettrue@_Locinfo@std@@QBEPBDXZ 100074b0 f i API.obj
 0001:000064c0       ?precision@ios_base@std@@QBEHXZ 100074c0 f i API.obj
 0001:000064d0       ??1?$num_put@DV?$ostreambuf_iterator@DU?$char_traits@D@std@@@std@@@std@@MAE@XZ 100074d0 f i API.obj
 0001:000064e0       ??_E?$num_put@DV?$ostreambuf_iterator@DU?$char_traits@D@std@@@std@@@std@@MAEPAXI@Z 100074e0 f i API.obj
 0001:000064e0       ??_G?$num_put@DV?$ostreambuf_iterator@DU?$char_traits@D@std@@@std@@@std@@MAEPAXI@Z 100074e0 f i API.obj
 0001:00006500       ?_Ffmt@?$num_put@DV?$ostreambuf_iterator@DU?$char_traits@D@std@@@std@@@std@@ABAPADPADDH@Z 10007500 f i API.obj
 0001:00006570       ?_Ifmt@?$num_put@DV?$ostreambuf_iterator@DU?$char_traits@D@std@@@std@@@std@@ABAPADPADPBDH@Z 10007570 f i API.obj
 0001:00006610       ??D?$ostreambuf_iterator@DU?$char_traits@D@std@@@std@@QAEAAV01@XZ 10007610 f i API.obj
 0001:00006620       ??E?$ostreambuf_iterator@DU?$char_traits@D@std@@@std@@QAEAAV01@XZ 10007620 f i API.obj
 0001:00006630       ?decimal_point@?$numpunct@D@std@@QBEDXZ 10007630 f i API.obj
 0001:00006640       ?thousands_sep@?$numpunct@D@std@@QBEDXZ 10007640 f i API.obj
 0001:00006650       ?_Tidy@?$numpunct@D@std@@AAEXXZ 10007650 f i API.obj
 0001:00006680       ?_Chassign@?$basic_string@DU?$char_traits@D@std@@V?$allocator@D@2@@std@@IAEXIID@Z 10007680 f i API.obj
 0001:000066e0       ??$_Maklocchr@D@std@@YADDPADABU_Cvtvec@@@Z 100076e0 f i API.obj
 0001:000066f0       ??$_Maklocstr@D@std@@YAPADPBDPADABU_Cvtvec@@@Z 100076f0 f i API.obj
 0001:00006740       ??4?$ostreambuf_iterator@DU?$char_traits@D@std@@@std@@QAEAAV01@D@Z 10007740 f i API.obj
 0001:00006790       ?_Init@?$numpunct@D@std@@IAEXABV_Locinfo@2@@Z 10007790 f i API.obj
 0001:00006870       ?_Put@?$num_put@DV?$ostreambuf_iterator@DU?$char_traits@D@std@@@std@@@std@@ABA?AV?$ostreambuf_iterator@DU?$char_traits@D@std@@@2@V32@PBDI@Z 10007870 f i API.obj
 0001:000068f0       ?_Rep@?$num_put@DV?$ostreambuf_iterator@DU?$char_traits@D@std@@@std@@@std@@ABA?AV?$ostreambuf_iterator@DU?$char_traits@D@std@@@2@V32@DI@Z 100078f0 f i API.obj
 0001:00006970       ?_Putc@?$num_put@DV?$ostreambuf_iterator@DU?$char_traits@D@std@@@std@@@std@@ABA?AV?$ostreambuf_iterator@DU?$char_traits@D@std@@@2@V32@PBDI@Z 10007970 f i API.obj
 0001:000069f0       ?_Putgrouped@?$num_put@DV?$ostreambuf_iterator@DU?$char_traits@D@std@@@std@@@std@@ABA?AV?$ostreambuf_iterator@DU?$char_traits@D@std@@@2@V32@PBDID@Z 100079f0 f i API.obj
 0001:00006ac0       ?falsename@?$numpunct@D@std@@QBE?AV?$basic_string@DU?$char_traits@D@std@@V?$allocator@D@2@@2@XZ 10007ac0 f i API.obj
 0001:00006ae0       ?truename@?$numpunct@D@std@@QBE?AV?$basic_string@DU?$char_traits@D@std@@V?$allocator@D@2@@2@XZ 10007ae0 f i API.obj
 0001:00006b00       ?append@?$basic_string@DU?$char_traits@D@std@@V?$allocator@D@2@@std@@QAEAAV12@ID@Z 10007b00 f i API.obj
 0001:00006bb0       ?insert@?$basic_string@DU?$char_traits@D@std@@V?$allocator@D@2@@std@@QAEAAV12@IID@Z 10007bb0 f i API.obj
 0001:00006cb0       ?grouping@?$numpunct@D@std@@QBE?AV?$basic_string@DU?$char_traits@D@std@@V?$allocator@D@2@@2@XZ 10007cb0 f i API.obj
 0001:00006cd0       ??0?$numpunct@D@std@@QAE@I@Z 10007cd0 f i API.obj
 0001:00006d90       ?do_decimal_point@?$numpunct@D@std@@MBEDXZ 10007d90 f i API.obj
 0001:00006da0       ?do_thousands_sep@?$numpunct@D@std@@MBEDXZ 10007da0 f i API.obj
 0001:00006db0       ??1?$numpunct@D@std@@MAE@XZ 10007db0 f i API.obj
 0001:00006de0       ??_E?$numpunct@D@std@@MAEPAXI@Z 10007de0 f i API.obj
 0001:00006de0       ??_G?$numpunct@D@std@@MAEPAXI@Z 10007de0 f i API.obj
 0001:00006e30       ?do_grouping@?$numpunct@D@std@@MBE?AV?$basic_string@DU?$char_traits@D@std@@V?$allocator@D@2@@2@XZ 10007e30 f i API.obj
 0001:00006e80       ?do_falsename@?$numpunct@D@std@@MBE?AV?$basic_string@DU?$char_traits@D@std@@V?$allocator@D@2@@2@XZ 10007e80 f i API.obj
 0001:00006ed0       ?do_truename@?$numpunct@D@std@@MBE?AV?$basic_string@DU?$char_traits@D@std@@V?$allocator@D@2@@2@XZ 10007ed0 f i API.obj
 0001:00006f20       ?initialisation@Api@@SA_NP6APAXPBDPAH@Z2@Z 10007f20 f   API.obj
 0001:00007310       ?hltvPresente@Api@@SA_NXZ  10008310 f   API.obj
 0001:000073d0       ?getPEntityFromID@Api@@SAPAUedict_t@@H@Z 100083d0 f   API.obj
 0001:000074a0       ?setstate@?$basic_ios@DU?$char_traits@D@std@@@std@@QAEXH_N@Z 100084a0 f i API.obj
 0001:000074d0       ?widen@?$basic_ios@DU?$char_traits@D@std@@@std@@QBEDD@Z 100084d0 f i API.obj
 0001:00007590       ?_Getcat@?$num_put@DV?$ostreambuf_iterator@DU?$char_traits@D@std@@@std@@@std@@SAIPAPBVfacet@locale@2@@Z 10008590 f i API.obj
 0001:00007600       ?_Getcat@?$numpunct@D@std@@SAIPAPBVfacet@locale@2@@Z 10008600 f i API.obj
 0001:00007670       ?flush@?$basic_ostream@DU?$char_traits@D@std@@@std@@QAEAAV12@XZ 10008670 f i API.obj
 0001:000076c0       ??0sentry@?$basic_ostream@DU?$char_traits@D@std@@@std@@QAE@AAV12@@Z 100086c0 f i API.obj
 0001:00007750       ?_Osfx@?$basic_ostream@DU?$char_traits@D@std@@@std@@QAEXXZ 10008750 f i API.obj
 0001:000077b0       ?init@?$basic_ios@DU?$char_traits@D@std@@@std@@IAEXPAV?$basic_streambuf@DU?$char_traits@D@std@@@2@_N@Z 100087b0 f i API.obj
 0001:00007810       ??$use_facet@V?$num_put@DV?$ostreambuf_iterator@DU?$char_traits@D@std@@@std@@@std@@@std@@YAABV?$num_put@DV?$ostreambuf_iterator@DU?$char_traits@D@std@@@std@@@0@ABVlocale@0@@Z 10008810 f i API.obj
 0001:00007940       ??$use_facet@V?$numpunct@D@std@@@std@@YAABV?$numpunct@D@0@ABVlocale@0@@Z 10008940 f i API.obj
 0001:00007a70       ??0?$basic_ostream@DU?$char_traits@D@std@@@std@@QAE@PAV?$basic_streambuf@DU?$char_traits@D@std@@@1@_N@Z 10008a70 f i API.obj
 0001:00007b00       ??1sentry@?$basic_ostream@DU?$char_traits@D@std@@@std@@QAE@XZ 10008b00 f i API.obj
 0001:00007b70       ?do_put@?$num_put@DV?$ostreambuf_iterator@DU?$char_traits@D@std@@@std@@@std@@MBE?AV?$ostreambuf_iterator@DU?$char_traits@D@std@@@2@V32@AAVios_base@2@D_N@Z 10008b70 f i API.obj
 0001:00007dc0       ?_Fput@?$num_put@DV?$ostreambuf_iterator@DU?$char_traits@D@std@@@std@@@std@@ABA?AV?$ostreambuf_iterator@DU?$char_traits@D@std@@@2@V32@AAVios_base@2@DPBDIIII@Z 10008dc0 f i API.obj
 0001:000084d0       ?_Iput@?$num_put@DV?$ostreambuf_iterator@DU?$char_traits@D@std@@@std@@@std@@ABA?AV?$ostreambuf_iterator@DU?$char_traits@D@std@@@2@V32@AAVios_base@2@DPADI@Z 100094d0 f i API.obj
 0001:00008830       ??$?6U?$char_traits@D@std@@@std@@YAAAV?$basic_ostream@DU?$char_traits@D@std@@@0@AAV10@PBD@Z 10009830 f i API.obj
 0001:00008a40       ??$?6DU?$char_traits@D@std@@V?$allocator@D@1@@std@@YAAAV?$basic_ostream@DU?$char_traits@D@std@@@0@AAV10@ABV?$basic_string@DU?$char_traits@D@std@@V?$allocator@D@2@@0@@Z 10009a40 f i API.obj
 0001:00008cc0       ??6?$basic_ostream@DU?$char_traits@D@std@@@std@@QAEAAV01@H@Z 10009cc0 f i API.obj
 0001:00008e10       ??0?$basic_ostringstream@DU?$char_traits@D@std@@V?$allocator@D@2@@std@@QAE@H@Z 10009e10 f i API.obj
 0001:00008ef0       ?do_put@?$num_put@DV?$ostreambuf_iterator@DU?$char_traits@D@std@@@std@@@std@@MBE?AV?$ostreambuf_iterator@DU?$char_traits@D@std@@@2@V32@AAVios_base@2@DJ@Z 10009ef0 f i API.obj
 0001:00008f90       ?do_put@?$num_put@DV?$ostreambuf_iterator@DU?$char_traits@D@std@@@std@@@std@@MBE?AV?$ostreambuf_iterator@DU?$char_traits@D@std@@@2@V32@AAVios_base@2@DK@Z 10009f90 f i API.obj
 0001:00009030       ?do_put@?$num_put@DV?$ostreambuf_iterator@DU?$char_traits@D@std@@@std@@@std@@MBE?AV?$ostreambuf_iterator@DU?$char_traits@D@std@@@2@V32@AAVios_base@2@D_J@Z 1000a030 f i API.obj
 0001:000090d0       ?do_put@?$num_put@DV?$ostreambuf_iterator@DU?$char_traits@D@std@@@std@@@std@@MBE?AV?$ostreambuf_iterator@DU?$char_traits@D@std@@@2@V32@AAVios_base@2@D_K@Z 1000a0d0 f i API.obj
 0001:00009170       ?do_put@?$num_put@DV?$ostreambuf_iterator@DU?$char_traits@D@std@@@std@@@std@@MBE?AV?$ostreambuf_iterator@DU?$char_traits@D@std@@@2@V32@AAVios_base@2@DN@Z 1000a170 f i API.obj
 0001:00009360       ?do_put@?$num_put@DV?$ostreambuf_iterator@DU?$char_traits@D@std@@@std@@@std@@MBE?AV?$ostreambuf_iterator@DU?$char_traits@D@std@@@2@V32@AAVios_base@2@DO@Z 1000a360 f i API.obj
 0001:00009550       ?do_put@?$num_put@DV?$ostreambuf_iterator@DU?$char_traits@D@std@@@std@@@std@@MBE?AV?$ostreambuf_iterator@DU?$char_traits@D@std@@@2@V32@AAVios_base@2@DPBX@Z 1000a550 f i API.obj
 0001:000095d0       ?kickid@Api@@SAXHABV?$basic_string@DU?$char_traits@D@std@@V?$allocator@D@2@@std@@@Z 1000a5d0 f   API.obj
 0001:00009700       ?banid@Api@@SAXHHABV?$basic_string@DU?$char_traits@D@std@@V?$allocator@D@2@@std@@@Z 1000a700 f   API.obj
 0001:000098b0       ?swap@Api@@SAXPAVIPlayerInfo@@@Z 1000a8b0 f   API.obj
 0001:00009a00       ?swapGroupe@Api@@SAXW4CodeTeam@@@Z 1000aa00 f   API.obj
 0001:00009af0       ?spec@Api@@SAXPAVIPlayerInfo@@@Z 1000aaf0 f   API.obj
 0001:00009bf0       ?specGroupe@Api@@SAXW4CodeTeam@@@Z 1000abf0 f   API.obj
 0001:00009ce0       ?reporteException@Api@@SAXABVexception@std@@ABV?$basic_string@DU?$char_traits@D@std@@V?$allocator@D@2@@3@H@Z 1000ace0 f   API.obj
 0001:00009e10       ?timerSwapALL@@YAXABV?$basic_string@DU?$char_traits@D@std@@V?$allocator@D@2@@std@@@Z 1000ae10 f   API.obj
 0001:00009e20       ?getIndexFromUserId@Api@@SAHH@Z 1000ae20 f   API.obj
 0001:00009ed0       ?getUseridFromPEntity@Api@@SAHPAUedict_t@@@Z 1000aed0 f   API.obj
 0001:00009f80       ?getCBaseEntityFromEntity@Api@@SAPAVCBaseEntity@@PAUedict_t@@@Z 1000af80 f   API.obj
 0001:0000a090       ?getCBaseCombatCharacterFromEntity@Api@@SAPAVCBaseCombatCharacter@@PAUedict_t@@@Z 1000b090 f   API.obj
 0001:0000a1a0       ?getCBaseCombatWeaponFromSlot@Api@@SAPAVCBaseCombatWeapon@@PAUedict_t@@W4CodeWeaponSlot@@@Z 1000b1a0 f   API.obj
 0001:0000a2b0       ?setHealth@Api@@SAXPAUedict_t@@H@Z 1000b2b0 f   API.obj
 0001:0000a3c0       ?detruitArme@Api@@SAXPAUedict_t@@W4CodeWeaponSlot@@@Z 1000b3c0 f   API.obj
 0001:0000a430       ??2@YAPAXIPAX@Z            1000b430 f i MRecipientFilter.obj
 0001:0000a440       ?UtlMemory_CalcNewAllocationCount@@YAHHHHH@Z 1000b440 f i MRecipientFilter.obj
 0001:0000a480       ?V_memmove@@YAXPAXPBXH@Z   1000b480 f i MRecipientFilter.obj
 0001:0000a490       ??1IRecipientFilter@@UAE@XZ 1000b490 f i MRecipientFilter.obj
 0001:0000a4a0       ??_EIRecipientFilter@@UAEPAXI@Z 1000b4a0 f i MRecipientFilter.obj
 0001:0000a4a0       ??_GIRecipientFilter@@UAEPAXI@Z 1000b4a0 f i MRecipientFilter.obj
 0001:0000a4c0       ??0IRecipientFilter@@QAE@XZ 1000b4c0 f i MRecipientFilter.obj
 0001:0000a4d0       ?IsInitMessage@MRecipientFilter@@UBE_NXZ 1000b4d0 f   MRecipientFilter.obj
 0001:0000a4e0       ?IsReliable@MRecipientFilter@@UBE_NXZ 1000b4e0 f   MRecipientFilter.obj
 0001:0000a4f0       ?Count@?$CUtlVector@HV?$CUtlMemory@H@@@@QBEHXZ 1000b4f0 f i MRecipientFilter.obj
 0001:0000a500       ?Size@?$CUtlVector@HV?$CUtlMemory@H@@@@QBEHXZ 1000b500 f i MRecipientFilter.obj
 0001:0000a510       ?InvalidIndex@?$CUtlVector@HV?$CUtlMemory@H@@@@SAHXZ 1000b510 f i MRecipientFilter.obj
 0001:0000a520       ?Base@?$CUtlMemory@H@@QBEPBHXZ 1000b520 f i MRecipientFilter.obj
 0001:0000a530       ?Base@?$CUtlMemory@H@@QAEPAHXZ 1000b530 f i MRecipientFilter.obj
 0001:0000a540       ??$Destruct@H@@YAXPAH@Z    1000b540 f i MRecipientFilter.obj
 0001:0000a550       ?ValidateGrowSize@?$CUtlMemory@H@@IAEXXZ 1000b550 f i MRecipientFilter.obj
 0001:0000a560       ??$CopyConstruct@H@@YAXPAHABH@Z 1000b560 f i MRecipientFilter.obj
 0001:0000a580       ?NumAllocated@?$CUtlMemory@H@@QBEHXZ 1000b580 f i MRecipientFilter.obj
 0001:0000a590       ?IsExternallyAllocated@?$CUtlMemory@H@@QBE_NXZ 1000b590 f i MRecipientFilter.obj
 0001:0000a5a0       ?GetRecipientCount@MRecipientFilter@@UBEHXZ 1000b5a0 f   MRecipientFilter.obj
 0001:0000a5b0       ?Base@?$CUtlVector@HV?$CUtlMemory@H@@@@QAEPAHXZ 1000b5b0 f i MRecipientFilter.obj
 0001:0000a5c0       ?Base@?$CUtlVector@HV?$CUtlMemory@H@@@@QBEPBHXZ 1000b5c0 f i MRecipientFilter.obj
 0001:0000a5d0       ?ResetDbgInfo@?$CUtlVector@HV?$CUtlMemory@H@@@@IAEXXZ 1000b5d0 f i MRecipientFilter.obj
 0001:0000a5e0       ??0?$CUtlMemory@H@@QAE@HH@Z 1000b5e0 f i MRecipientFilter.obj
 0001:0000a620       ?Element@?$CUtlVector@HV?$CUtlMemory@H@@@@QBEABHH@Z 1000b620 f i MRecipientFilter.obj
 0001:0000a630       ?Element@?$CUtlVector@HV?$CUtlMemory@H@@@@QAEAAHH@Z 1000b630 f i MRecipientFilter.obj
 0001:0000a640       ?Purge@?$CUtlMemory@H@@QAEXXZ 1000b640 f i MRecipientFilter.obj
 0001:0000a670       ?ShiftElementsRight@?$CUtlVector@HV?$CUtlMemory@H@@@@IAEXHH@Z 1000b670 f i MRecipientFilter.obj
 0001:0000a6b0       ?Grow@?$CUtlMemory@H@@QAEXH@Z 1000b6b0 f i MRecipientFilter.obj
 0001:0000a720       ??A?$CUtlVector@HV?$CUtlMemory@H@@@@QBEABHH@Z 1000b720 f i MRecipientFilter.obj
 0001:0000a730       ?Find@?$CUtlVector@HV?$CUtlMemory@H@@@@QBEHABH@Z 1000b730 f i MRecipientFilter.obj
 0001:0000a760       ?RemoveAll@?$CUtlVector@HV?$CUtlMemory@H@@@@QAEXXZ 1000b760 f i MRecipientFilter.obj
 0001:0000a770       ??1?$CUtlMemory@H@@QAE@XZ  1000b770 f i MRecipientFilter.obj
 0001:0000a7a0       ?Purge@?$CUtlVector@HV?$CUtlMemory@H@@@@QAEXXZ 1000b7a0 f i MRecipientFilter.obj
 0001:0000a7e0       ?GrowVector@?$CUtlVector@HV?$CUtlMemory@H@@@@IAEXH@Z 1000b7e0 f i MRecipientFilter.obj
 0001:0000a810       ?GetRecipientIndex@MRecipientFilter@@UBEHH@Z 1000b810 f   MRecipientFilter.obj
 0001:0000a840       ??0?$CUtlVector@HV?$CUtlMemory@H@@@@QAE@HH@Z 1000b840 f i MRecipientFilter.obj
 0001:0000a880       ??1?$CUtlVector@HV?$CUtlMemory@H@@@@QAE@XZ 1000b880 f i MRecipientFilter.obj
 0001:0000a8e0       ?InsertBefore@?$CUtlVector@HV?$CUtlMemory@H@@@@QAEHHABH@Z 1000b8e0 f i MRecipientFilter.obj
 0001:0000a950       ??0MRecipientFilter@@QAE@XZ 1000b950 f   MRecipientFilter.obj
 0001:0000a970       ??1MRecipientFilter@@UAE@XZ 1000b970 f   MRecipientFilter.obj
 0001:0000a990       ?AddToTail@?$CUtlVector@HV?$CUtlMemory@H@@@@QAEHABH@Z 1000b990 f i MRecipientFilter.obj
 0001:0000a9b0       ??_GMRecipientFilter@@UAEPAXI@Z 1000b9b0 f i MRecipientFilter.obj
 0001:0000a9b0       ??_EMRecipientFilter@@UAEPAXI@Z 1000b9b0 f i MRecipientFilter.obj
 0001:0000a9e0       ?addRecipient@MRecipientFilter@@QAEXH@Z 1000b9e0 f   MRecipientFilter.obj
 0001:0000aa90       ?addAllPlayers@MRecipientFilter@@QAEXXZ 1000ba90 f   MRecipientFilter.obj
 0001:0000aac0       ??3@YAXPAX0@Z              1000bac0 f i Match.obj
 0001:0000ab00       ?ToCStr@string_t@@QBEPBDXZ 1000bb00 f i Match.obj
 0001:0000ab10       ?GetFloat@ConVar@@QBEMXZ   1000bb10 f i Match.obj
 0001:0000ab20       ?GetInt@ConVar@@QBEHXZ     1000bb20 f i Match.obj
 0001:0000ab30       ?GetString@ConVar@@QBEPBDXZ 1000bb30 f i Match.obj
 0001:0000ab50       ?getPhase@Match@@QBE?AW4CodePhase@@XZ 1000bb50 f   Match.obj
 0001:0000ab60       ?setPhase@Match@@QAEXW4CodePhase@@@Z 1000bb60 f   Match.obj
 0001:0000ab70       ?getEnregistrementsTV@Match@@QBEPBV?$vector@VEnregistrementTV@@V?$allocator@VEnregistrementTV@@@std@@@std@@XZ 1000bb70 f   Match.obj
 0001:0000ab80       ?getMancheCourante@Match@@QBEHXZ 1000bb80 f   Match.obj
 0001:0000ab90       ?getRoundCourant@Match@@QBEHXZ 1000bb90 f   Match.obj
 0001:0000aba0       ?setRoundCourant@Match@@QAEXH@Z 1000bba0 f   Match.obj
 0001:0000abb0       ?incRoundCourant@Match@@QAEHXZ 1000bbb0 f   Match.obj
 0001:0000abc0       ?getTagGagnantCutRound@Match@@QBEABV?$basic_string@DU?$char_traits@D@std@@V?$allocator@D@2@@std@@XZ 1000bbc0 f   Match.obj
 0001:0000abd0       ?getTeam1@Match@@QAEPAVTeam@@XZ 1000bbd0 f   Match.obj
 0001:0000abe0       ?getTeam2@Match@@QAEPAVTeam@@XZ 1000bbe0 f   Match.obj
 0001:0000abf0       ?getCutRound@Match@@QBE_NXZ 1000bbf0 f   Match.obj
 0001:0000ac00       ?setCutRound@Match@@QAEX_N@Z 1000bc00 f   Match.obj
 0001:0000ac10       ?getStrats@Match@@QBE_NXZ  1000bc10 f   Match.obj
 0001:0000ac20       ?setStrats@Match@@QAEX_N@Z 1000bc20 f   Match.obj
 0001:0000ac30       ?getDate@Match@@QBEABV?$basic_string@DU?$char_traits@D@std@@V?$allocator@D@2@@std@@XZ 1000bc30 f   Match.obj
 0001:0000ac40       ??1RapportXml@@UAE@XZ      1000bc40 f i Match.obj
 0001:0000ac50       ?size@?$vector@VEnregistrementTV@@V?$allocator@VEnregistrementTV@@@std@@@std@@QBEIXZ 1000bc50 f i Match.obj
 0001:0000ac70       ??A?$vector@VEnregistrementTV@@V?$allocator@VEnregistrementTV@@@std@@@std@@QAEAAVEnregistrementTV@@I@Z 1000bc70 f i Match.obj
 0001:0000aca0       ?capacity@?$vector@VEnregistrementTV@@V?$allocator@VEnregistrementTV@@@std@@@std@@QBEIXZ 1000bca0 f i Match.obj
 0001:0000acc0       ??0?$allocator@VEnregistrementTV@@@std@@QAE@XZ 1000bcc0 f i Match.obj
 0001:0000acd0       ??8?$_Vector_const_iterator@VEnregistrementTV@@V?$allocator@VEnregistrementTV@@@std@@@std@@QBE_NABV01@@Z 1000bcd0 f i Match.obj
 0001:0000ad00       ??0?$allocator@VEnregistrementTV@@@std@@QAE@ABV01@@Z 1000bd00 f i Match.obj
 0001:0000ad10       ?deallocate@?$allocator@VEnregistrementTV@@@std@@QAEXPAVEnregistrementTV@@I@Z 1000bd10 f i Match.obj
 0001:0000ad20       ??D?$_Vector_const_iterator@VEnregistrementTV@@V?$allocator@VEnregistrementTV@@@std@@@std@@QBEABVEnregistrementTV@@XZ 1000bd20 f i Match.obj
 0001:0000ad50       ??E?$_Vector_const_iterator@VEnregistrementTV@@V?$allocator@VEnregistrementTV@@@std@@@std@@QAEAAV01@XZ 1000bd50 f i Match.obj
 0001:0000ad80       ??0?$_Ranit@VEnregistrementTV@@HPBV1@ABV1@@std@@QAE@XZ 1000bd80 f i Match.obj
 0001:0000ad90       ?max_size@?$allocator@VEnregistrementTV@@@std@@QBEIXZ 1000bd90 f i Match.obj
 0001:0000ada0       ??G?$_Vector_const_iterator@VEnregistrementTV@@V?$allocator@VEnregistrementTV@@@std@@@std@@QBEHABV01@@Z 1000bda0 f i Match.obj
 0001:0000add0       ??Y?$_Vector_const_iterator@VEnregistrementTV@@V?$allocator@VEnregistrementTV@@@std@@@std@@QAEAAV01@H@Z 1000bdd0 f i Match.obj
 0001:0000ae10       ??$_Allocate@VEnregistrementTV@@@std@@YAPAVEnregistrementTV@@IPAV1@@Z 1000be10 f i Match.obj
 0001:0000ae70       ??$_Iter_random@PAVEnregistrementTV@@PAV1@@std@@YA?AUrandom_access_iterator_tag@0@ABQAVEnregistrementTV@@0@Z 1000be70 f i Match.obj
 0001:0000ae80       ??$_Ptr_cat@PAVEnregistrementTV@@PAV1@@std@@YA?AU_Nonscalar_ptr_iterator_tag@0@AAPAVEnregistrementTV@@0@Z 1000be80 f i Match.obj
 0001:0000ae90       ??$_Move_cat@PAVEnregistrementTV@@@std@@YA?AU_Undefined_move_tag@0@ABQAVEnregistrementTV@@@Z 1000be90 f i Match.obj
 0001:0000aea0       ??$_Checked_base@PAVEnregistrementTV@@@std@@YAPAVEnregistrementTV@@AAPAV1@U_Unchanged_checked_iterator_base_type_tag@0@@Z 1000bea0 f i Match.obj
 0001:0000aeb0       ?GetBool@ConVar@@QBE_NXZ   1000beb0 f i Match.obj
 0001:0000aec0       ??9?$_Vector_const_iterator@VEnregistrementTV@@V?$allocator@VEnregistrementTV@@@std@@@std@@QBE_NABV01@@Z 1000bec0 f i Match.obj
 0001:0000aef0       ?find@?$basic_string@DU?$char_traits@D@std@@V?$allocator@D@2@@std@@QBEIPBDII@Z 1000bef0 f i Match.obj
 0001:0000afb0       ??0?$_Vector_val@VEnregistrementTV@@V?$allocator@VEnregistrementTV@@@std@@@std@@IAE@V?$allocator@VEnregistrementTV@@@1@@Z 1000bfb0 f i Match.obj
 0001:0000afc0       ??D?$_Vector_iterator@VEnregistrementTV@@V?$allocator@VEnregistrementTV@@@std@@@std@@QBEAAVEnregistrementTV@@XZ 1000bfc0 f i Match.obj
 0001:0000aff0       ??E?$_Vector_iterator@VEnregistrementTV@@V?$allocator@VEnregistrementTV@@@std@@@std@@QAEAAV01@XZ 1000bff0 f i Match.obj
 0001:0000b020       ?max_size@?$vector@VEnregistrementTV@@V?$allocator@VEnregistrementTV@@@std@@@std@@QBEIXZ 1000c020 f i Match.obj
 0001:0000b030       ?allocate@?$allocator@VEnregistrementTV@@@std@@QAEPAVEnregistrementTV@@I@Z 1000c030 f i Match.obj
 0001:0000b050       ??G?$_Vector_iterator@VEnregistrementTV@@V?$allocator@VEnregistrementTV@@@std@@@std@@QBEHABV?$_Vector_const_iterator@VEnregistrementTV@@V?$allocator@VEnregistrementTV@@@std@@@1@@Z 1000c050 f i Match.obj
 0001:0000b080       ??0?$_Vector_const_iterator@VEnregistrementTV@@V?$allocator@VEnregistrementTV@@@std@@@std@@QAE@PAVEnregistrementTV@@PBU_Container_base@1@@Z 1000c080 f i Match.obj
 0001:0000b0c0       ??Y?$_Vector_iterator@VEnregistrementTV@@V?$allocator@VEnregistrementTV@@@std@@@std@@QAEAAV01@H@Z 1000c0c0 f i Match.obj
 0001:0000b100       ??$_Checked_base@PAVEnregistrementTV@@@std@@YAPAVEnregistrementTV@@AAPAV1@@Z 1000c100 f i Match.obj
 0001:0000b110       ?find@?$basic_string@DU?$char_traits@D@std@@V?$allocator@D@2@@std@@QBEIPBDI@Z 1000c110 f i Match.obj
 0001:0000b140       ??C?$_Vector_iterator@VEnregistrementTV@@V?$allocator@VEnregistrementTV@@@std@@@std@@QBEPAVEnregistrementTV@@XZ 1000c140 f i Match.obj
 0001:0000b170       ??E?$_Vector_iterator@VEnregistrementTV@@V?$allocator@VEnregistrementTV@@@std@@@std@@QAE?AV01@H@Z 1000c170 f i Match.obj
 0001:0000b1b0       ??0?$_Vector_iterator@VEnregistrementTV@@V?$allocator@VEnregistrementTV@@@std@@@std@@QAE@PAVEnregistrementTV@@PBU_Container_base@1@@Z 1000c1b0 f i Match.obj
 0001:0000b1f0       ??H?$_Vector_iterator@VEnregistrementTV@@V?$allocator@VEnregistrementTV@@@std@@@std@@QBE?AV01@H@Z 1000c1f0 f i Match.obj
 0001:0000b230       ?begin@?$vector@VEnregistrementTV@@V?$allocator@VEnregistrementTV@@@std@@@std@@QAE?AV?$_Vector_iterator@VEnregistrementTV@@V?$allocator@VEnregistrementTV@@@std@@@2@XZ 1000c230 f i Match.obj
 0001:0000b260       ?end@?$vector@VEnregistrementTV@@V?$allocator@VEnregistrementTV@@@std@@@std@@QAE?AV?$_Vector_iterator@VEnregistrementTV@@V?$allocator@VEnregistrementTV@@@std@@@2@XZ 1000c260 f i Match.obj
 0001:0000b290       ??1logic_error@std@@UAE@XZ 1000c290 f i Match.obj
 0001:0000b2d0       ?what@logic_error@std@@UBEPBDXZ 1000c2d0 f i Match.obj
 0001:0000b2e0       ??_Elogic_error@std@@UAEPAXI@Z 1000c2e0 f i Match.obj
 0001:0000b2e0       ??_Glogic_error@std@@UAEPAXI@Z 1000c2e0 f i Match.obj
 0001:0000b330       ??1Timer@@QAE@XZ           1000c330 f i Match.obj
 0001:0000b360       ??1Team@@QAE@XZ            1000c360 f i Match.obj
 0001:0000b390       ??1EnregistrementTV@@QAE@XZ 1000c390 f i Match.obj
 0001:0000b3c0       ?replace@?$basic_string@DU?$char_traits@D@std@@V?$allocator@D@2@@std@@QAEAAV12@IIABV12@II@Z 1000c3c0 f i Match.obj
 0001:0000b770       ??_GEnregistrementTV@@QAEPAXI@Z 1000c770 f i Match.obj
 0001:0000b7b0       ??$?HDU?$char_traits@D@std@@V?$allocator@D@1@@std@@YA?AV?$basic_string@DU?$char_traits@D@std@@V?$allocator@D@2@@0@ABV10@0@Z 1000c7b0 f i Match.obj
 0001:0000b860       ??$_Destroy@VEnregistrementTV@@@std@@YAXPAVEnregistrementTV@@@Z 1000c860 f i Match.obj
 0001:0000b890       ??0logic_error@std@@QAE@ABV?$basic_string@DU?$char_traits@D@std@@V?$allocator@D@2@@1@@Z 1000c890 f i Match.obj
 0001:0000b900       ??0length_error@std@@QAE@ABV?$basic_string@DU?$char_traits@D@std@@V?$allocator@D@2@@1@@Z 1000c900 f i Match.obj
 0001:0000b920       ??1length_error@std@@UAE@XZ 1000c920 f i Match.obj
 0001:0000b960       ??_Glength_error@std@@UAEPAXI@Z 1000c960 f i Match.obj
 0001:0000b960       ??_Elength_error@std@@UAEPAXI@Z 1000c960 f i Match.obj
 0001:0000b9b0       ??0EnregistrementTV@@QAE@ABV0@@Z 1000c9b0 f i Match.obj
 0001:0000b9e0       ??4?$basic_string@DU?$char_traits@D@std@@V?$allocator@D@2@@std@@QAEAAV01@PBD@Z 1000c9e0 f i Match.obj
 0001:0000ba10       ?_Xlen@?$vector@VEnregistrementTV@@V?$allocator@VEnregistrementTV@@@std@@@std@@KAXXZ 1000ca10 f i Match.obj
 0001:0000ba90       ??0logic_error@std@@QAE@ABV01@@Z 1000ca90 f i Match.obj
 0001:0000bb10       ??0length_error@std@@QAE@ABV01@@Z 1000cb10 f i Match.obj
 0001:0000bb30       ??4EnregistrementTV@@QAEAAV0@ABV0@@Z 1000cb30 f i Match.obj
 0001:0000bb50       ?destroy@?$allocator@VEnregistrementTV@@@std@@QAEXPAVEnregistrementTV@@@Z 1000cb50 f i Match.obj
 0001:0000bb80       ??$_Copy_opt@PAVEnregistrementTV@@PAV1@Uforward_iterator_tag@std@@@std@@YAPAVEnregistrementTV@@PAV1@00Uforward_iterator_tag@0@U_Nonscalar_ptr_iterator_tag@0@U_Range_checked_iterator_tag@0@@Z 1000cb80 f i Match.obj
 0001:0000bbc0       ??$_Construct@VEnregistrementTV@@V1@@std@@YAXPAVEnregistrementTV@@ABV1@@Z 1000cbc0 f i Match.obj
 0001:0000bc30       ??$_Copy_backward_opt@PAVEnregistrementTV@@PAV1@Uforward_iterator_tag@std@@@std@@YAPAVEnregistrementTV@@PAV1@00Uforward_iterator_tag@0@U_Nonscalar_ptr_iterator_tag@0@U_Range_checked_iterator_tag@0@@Z 1000cc30 f i Match.obj
 0001:0000bc70       ??0CSSMatchMatchException@@QAE@ABV?$basic_string@DU?$char_traits@D@std@@V?$allocator@D@2@@std@@@Z 1000cc70 f i Match.obj
 0001:0000bce0       ?what@CSSMatchMatchException@@UBEPBDXZ 1000cce0 f i Match.obj
 0001:0000bcf0       ??1CSSMatchMatchException@@UAE@XZ 1000ccf0 f i Match.obj
 0001:0000bd30       ??_GCSSMatchMatchException@@UAEPAXI@Z 1000cd30 f i Match.obj
 0001:0000bd30       ??_ECSSMatchMatchException@@UAEPAXI@Z 1000cd30 f i Match.obj
 0001:0000bd80       ?timerVerifAllTalk@@YAXABV?$basic_string@DU?$char_traits@D@std@@V?$allocator@D@2@@std@@@Z 1000cd80 f   Match.obj
 0001:0000bec0       ?timerVerifCheats@@YAXABV?$basic_string@DU?$char_traits@D@std@@V?$allocator@D@2@@std@@@Z 1000cec0 f   Match.obj
 0001:0000c000       ??4Team@@QAEAAV0@ABV0@@Z   1000d000 f i Match.obj
 0001:0000c040       ?setTagGagnantCutRound@Match@@QAEXABV?$basic_string@DU?$char_traits@D@std@@V?$allocator@D@2@@std@@@Z 1000d040 f   Match.obj
 0001:0000c060       ?getTeam@Match@@QAEPAVTeam@@W4CodeTeam@@@Z 1000d060 f   Match.obj
 0001:0000c140       ??0CSSMatchMatchException@@QAE@ABV0@@Z 1000d140 f i Match.obj
 0001:0000c1c0       ?finTempsMortFinMatch@Match@@QAEXXZ 1000d1c0 f   Match.obj
 0001:0000c3c0       ?lanceCutRound@Match@@QAEXXZ 1000d3c0 f   Match.obj
 0001:0000c4a0       ?formateHostname@Match@@QAEXXZ 1000d4a0 f   Match.obj
 0001:0000c640       ?restartRound@Match@@QAEXPAUedict_t@@@Z 1000d640 f   Match.obj
 0001:0000c790       ?restartManche@Match@@QAEXPAUedict_t@@@Z 1000d790 f   Match.obj
 0001:0000c920       ?forceGo@Match@@QAEXPAUedict_t@@@Z 1000d920 f   Match.obj
 0001:0000cae0       ?_Buy@?$vector@VEnregistrementTV@@V?$allocator@VEnregistrementTV@@@std@@@std@@IAE_NI@Z 1000dae0 f i Match.obj
 0001:0000cb30       ??$_Copy_opt@PAVEnregistrementTV@@PAV1@@std@@YAPAVEnregistrementTV@@PAV1@00Urandom_access_iterator_tag@0@U_Nonscalar_ptr_iterator_tag@0@U_Range_checked_iterator_tag@0@@Z 1000db30 f i Match.obj
 0001:0000cb80       ??$_Destroy_range@VEnregistrementTV@@V?$allocator@VEnregistrementTV@@@std@@@std@@YAXPAVEnregistrementTV@@0AAV?$allocator@VEnregistrementTV@@@0@U_Nonscalar_ptr_iterator_tag@0@@Z 1000db80 f i Match.obj
 0001:0000cbc0       ??$_Fill@PAVEnregistrementTV@@V1@@std@@YAXPAVEnregistrementTV@@0ABV1@@Z 1000dbc0 f i Match.obj
 0001:0000cbf0       ?construct@?$allocator@VEnregistrementTV@@@std@@QAEXPAVEnregistrementTV@@ABV3@@Z 1000dbf0 f i Match.obj
 0001:0000cc10       ??$_Copy_backward_opt@PAVEnregistrementTV@@PAV1@@std@@YAPAVEnregistrementTV@@PAV1@00Urandom_access_iterator_tag@0@U_Nonscalar_ptr_iterator_tag@0@U_Range_checked_iterator_tag@0@@Z 1000dc10 f i Match.obj
 0001:0000cc60       ??$_Uninit_copy@PAVEnregistrementTV@@PAV1@V?$allocator@VEnregistrementTV@@@std@@@std@@YAPAVEnregistrementTV@@PAV1@00AAV?$allocator@VEnregistrementTV@@@0@U_Nonscalar_ptr_iterator_tag@0@U_Range_checked_iterator_tag@0@@Z 1000dc60 f i Match.obj
 0001:0000cd00       ?timerFinMatch@@YAXABV?$basic_string@DU?$char_traits@D@std@@V?$allocator@D@2@@std@@@Z 1000dd00 f   Match.obj
 0001:0000cd20       ?modifieTag@Match@@QAEXW4CodeTeam@@ABV?$basic_string@DU?$char_traits@D@std@@V?$allocator@D@2@@std@@@Z 1000dd20 f   Match.obj
 0001:0000cd90       ?detecteTags@Match@@QAEX_N@Z 1000dd90 f   Match.obj
 0001:0000cfa0       ??0?$vector@VEnregistrementTV@@V?$allocator@VEnregistrementTV@@@std@@@std@@QAE@XZ 1000dfa0 f i Match.obj
 0001:0000cfb0       ??$unchecked_copy@PAVEnregistrementTV@@PAV1@@stdext@@YAPAVEnregistrementTV@@PAV1@00@Z 1000dfb0 f i Match.obj
 0001:0000d000       ??$_Destroy_range@VEnregistrementTV@@V?$allocator@VEnregistrementTV@@@std@@@std@@YAXPAVEnregistrementTV@@0AAV?$allocator@VEnregistrementTV@@@0@@Z 1000e000 f i Match.obj
 0001:0000d020       ??$fill@PAVEnregistrementTV@@V1@@std@@YAXPAVEnregistrementTV@@0ABV1@@Z 1000e020 f i Match.obj
 0001:0000d030       ??$_Uninit_fill_n@PAVEnregistrementTV@@IV1@V?$allocator@VEnregistrementTV@@@std@@@std@@YAXPAVEnregistrementTV@@IABV1@AAV?$allocator@VEnregistrementTV@@@0@U_Nonscalar_ptr_iterator_tag@0@U_Range_checked_iterator_tag@0@@Z 1000e030 f i Match.obj
 0001:0000d0c0       ??$_Move_backward_opt@PAVEnregistrementTV@@PAV1@Urandom_access_iterator_tag@std@@U_Undefined_move_tag@3@@std@@YAPAVEnregistrementTV@@PAV1@00Urandom_access_iterator_tag@0@U_Undefined_move_tag@0@U_Range_checked_iterator_tag@0@@Z 1000e0c0 f i Match.obj
 0001:0000d110       ??$unchecked_uninitialized_copy@PAVEnregistrementTV@@PAV1@V?$allocator@VEnregistrementTV@@@std@@@stdext@@YAPAVEnregistrementTV@@PAV1@00AAV?$allocator@VEnregistrementTV@@@std@@@Z 1000e110 f i Match.obj
 0001:0000d140       ?timerRetag@@YAXABV?$basic_string@DU?$char_traits@D@std@@V?$allocator@D@2@@std@@@Z 1000e140 f   Match.obj
 0001:0000d170       ?_Destroy@?$vector@VEnregistrementTV@@V?$allocator@VEnregistrementTV@@@std@@@std@@IAEXPAVEnregistrementTV@@0@Z 1000e170 f i Match.obj
 0001:0000d190       ??$unchecked_uninitialized_fill_n@PAVEnregistrementTV@@IV1@V?$allocator@VEnregistrementTV@@@std@@@stdext@@YAXPAVEnregistrementTV@@IABV1@AAV?$allocator@VEnregistrementTV@@@std@@@Z 1000e190 f i Match.obj
 0001:0000d1c0       ??$_Unchecked_move_backward@PAVEnregistrementTV@@PAV1@@stdext@@YAPAVEnregistrementTV@@PAV1@00@Z 1000e1c0 f i Match.obj
 0001:0000d210       ??$_Uninit_move@PAVEnregistrementTV@@PAV1@V?$allocator@VEnregistrementTV@@@std@@U_Undefined_move_tag@3@@std@@YAPAVEnregistrementTV@@PAV1@00AAV?$allocator@VEnregistrementTV@@@0@U_Undefined_move_tag@0@U_Range_checked_iterator_tag@0@@Z 1000e210 f i Match.obj
 0001:0000d230       ?erase@?$vector@VEnregistrementTV@@V?$allocator@VEnregistrementTV@@@std@@@std@@QAE?AV?$_Vector_iterator@VEnregistrementTV@@V?$allocator@VEnregistrementTV@@@std@@@2@V32@0@Z 1000e230 f i Match.obj
 0001:0000d290       ?_Tidy@?$vector@VEnregistrementTV@@V?$allocator@VEnregistrementTV@@@std@@@std@@IAEXXZ 1000e290 f i Match.obj
 0001:0000d2d0       ?_Ufill@?$vector@VEnregistrementTV@@V?$allocator@VEnregistrementTV@@@std@@@std@@IAEPAVEnregistrementTV@@PAV3@IABV3@@Z 1000e2d0 f i Match.obj
 0001:0000d310       ??$_Unchecked_uninitialized_move@PAVEnregistrementTV@@PAV1@V?$allocator@VEnregistrementTV@@@std@@@stdext@@YAPAVEnregistrementTV@@PAV1@00AAV?$allocator@VEnregistrementTV@@@std@@@Z 1000e310 f i Match.obj
 0001:0000d340       ??1?$vector@VEnregistrementTV@@V?$allocator@VEnregistrementTV@@@std@@@std@@QAE@XZ 1000e340 f i Match.obj
 0001:0000d380       ?clear@?$vector@VEnregistrementTV@@V?$allocator@VEnregistrementTV@@@std@@@std@@QAEXXZ 1000e380 f i Match.obj
 0001:0000d3c0       ??$_Umove@PAVEnregistrementTV@@@?$vector@VEnregistrementTV@@V?$allocator@VEnregistrementTV@@@std@@@std@@IAEPAVEnregistrementTV@@PAV2@00@Z 1000e3c0 f i Match.obj
 0001:0000d3f0       ??0Match@@QAE@XZ           1000e3f0 f   Match.obj
 0001:0000d560       ??1Match@@QAE@XZ           1000e560 f   Match.obj
 0001:0000d630       ?reset@Match@@AAEXXZ       1000e630 f   Match.obj
 0001:0000d770       ?finMatch@Match@@QAEXPAUedict_t@@@Z 1000e770 f   Match.obj
 0001:0000dc90       ?afficheScores@Match@@QAEXXZ 1000ec90 f   Match.obj
 0001:0000dec0       ?_Insert_n@?$vector@VEnregistrementTV@@V?$allocator@VEnregistrementTV@@@std@@@std@@IAEXV?$_Vector_iterator@VEnregistrementTV@@V?$allocator@VEnregistrementTV@@@std@@@2@IABVEnregistrementTV@@@Z 1000eec0 f i Match.obj
 0001:0000e170       ?insert@?$vector@VEnregistrementTV@@V?$allocator@VEnregistrementTV@@@std@@@std@@QAE?AV?$_Vector_iterator@VEnregistrementTV@@V?$allocator@VEnregistrementTV@@@std@@@2@V32@ABVEnregistrementTV@@@Z 1000f170 f i Match.obj
 0001:0000e200       ?push_back@?$vector@VEnregistrementTV@@V?$allocator@VEnregistrementTV@@@std@@@std@@QAEXABVEnregistrementTV@@@Z 1000f200 f i Match.obj
 0001:0000e290       ?lanceManche@Match@@QAEXXZ 1000f290 f   Match.obj
 0001:0000e5c0       ?timerLanceManche@@YAXABV?$basic_string@DU?$char_traits@D@std@@V?$allocator@D@2@@std@@@Z 1000f5c0 f   Match.obj
 0001:0000e5e0       ?finStratsTime@Match@@QAEXXZ 1000f5e0 f   Match.obj
 0001:0000e6b0       ?timerFinStrats@@YAXABV?$basic_string@DU?$char_traits@D@std@@V?$allocator@D@2@@std@@@Z 1000f6b0 f   Match.obj
 0001:0000e6d0       ?timerChronoStrats@@YAXABV?$basic_string@DU?$char_traits@D@std@@V?$allocator@D@2@@std@@@Z 1000f6d0 f   Match.obj
 0001:0000e770       ?lanceStratsTime@Match@@QAEXXZ 1000f770 f   Match.obj
 0001:0000e8f0       ?timerLanceStrats@@YAXABV?$basic_string@DU?$char_traits@D@std@@V?$allocator@D@2@@std@@@Z 1000f8f0 f   Match.obj
 0001:0000e910       ?lanceMatch@Match@@QAEXPAVConfiguration@@PAUedict_t@@@Z 1000f910 f   Match.obj
 0001:0000efc0       ?finCutRound@Match@@QAEXW4CodeTeam@@@Z 1000ffc0 f   Match.obj
 0001:0000f400       ?finManche@Match@@QAEXXZ   10010400 f   Match.obj
 0001:0000fc40       ?getNomFichier@Configuration@@QBEABV?$basic_string@DU?$char_traits@D@std@@V?$allocator@D@2@@std@@XZ 10010c40 f   Configuration.obj
 0001:0000fc50       ??0CSSMatchConfigurationException@@QAE@ABV?$basic_string@DU?$char_traits@D@std@@V?$allocator@D@2@@std@@@Z 10010c50 f i Configuration.obj
 0001:0000fcc0       ?what@CSSMatchConfigurationException@@UBEPBDXZ 10010cc0 f i Configuration.obj
 0001:0000fcd0       ??1CSSMatchConfigurationException@@UAE@XZ 10010cd0 f i Configuration.obj
 0001:0000fd10       ??_GCSSMatchConfigurationException@@UAEPAXI@Z 10010d10 f i Configuration.obj
 0001:0000fd10       ??_ECSSMatchConfigurationException@@UAEPAXI@Z 10010d10 f i Configuration.obj
 0001:0000fd60       ??0Configuration@@QAE@ABV?$basic_string@DU?$char_traits@D@std@@V?$allocator@D@2@@std@@@Z 10010d60 f   Configuration.obj
 0001:0000fdc0       ?execute@Configuration@@QBEXXZ 10010dc0 f   Configuration.obj
 0001:0000ff50       ??0CSSMatchConfigurationException@@QAE@ABV0@@Z 10010f50 f i Configuration.obj
 0001:0000ffd0       ??1IGameEventListener2@@UAE@XZ 10010fd0 f i CSSMatch.obj
 0001:0000ffe0       ??_EIGameEventListener2@@UAEPAXI@Z 10010fe0 f i CSSMatch.obj
 0001:0000ffe0       ??_GIGameEventListener2@@UAEPAXI@Z 10010fe0 f i CSSMatch.obj
 0001:00010000       ??0IServerPluginCallbacks@@QAE@XZ 10011000 f i CSSMatch.obj
 0001:00010010       ??1EventListener@@UAE@XZ   10011010 f i CSSMatch.obj
 0001:00010020       ??0IGameEventListener2@@QAE@XZ 10011020 f i CSSMatch.obj
 0001:00010030       ?Pause@CSSMatch@@UAEXXZ    10011030 f   CSSMatch.obj
 0001:00010040       ?UnPause@CSSMatch@@UAEXXZ  10011040 f   CSSMatch.obj
 0001:00010050       ?GetPluginDescription@CSSMatch@@UAEPBDXZ 10011050 f   CSSMatch.obj
 0001:00010060       ?ServerActivate@CSSMatch@@UAEXPAUedict_t@@HH@Z 10011060 f   CSSMatch.obj
 0001:00010080       ?GameFrame@CSSMatch@@UAEX_N@Z 10011080 f   CSSMatch.obj
 0001:000100b0       ?LevelShutdown@CSSMatch@@UAEXXZ 100110b0 f   CSSMatch.obj
 0001:000100c0       ?ClientActive@CSSMatch@@UAEXPAUedict_t@@@Z 100110c0 f   CSSMatch.obj
 0001:000100d0       ?ClientDisconnect@CSSMatch@@UAEXPAUedict_t@@@Z 100110d0 f   CSSMatch.obj
 0001:000100e0       ?SetCommandClient@CSSMatch@@UAEXH@Z 100110e0 f   CSSMatch.obj
 0001:000100f0       ?ClientSettingsChanged@CSSMatch@@UAEXPAUedict_t@@@Z 100110f0 f   CSSMatch.obj
 0001:00010100       ?ClientConnect@CSSMatch@@UAE?AW4PLUGIN_RESULT@@PA_NPAUedict_t@@PBD2PADH@Z 10011100 f   CSSMatch.obj
 0001:00010150       ?NetworkIDValidated@CSSMatch@@UAE?AW4PLUGIN_RESULT@@PBD0@Z 10011150 f   CSSMatch.obj
 0001:00010160       ?GetCommandIndex@CSSMatch@@QAEHXZ 10011160 f   CSSMatch.obj
 0001:00010170       ?getAdminList@CSSMatch@@QAEPAVAuthentification@@XZ 10011170 f   CSSMatch.obj
 0001:00010180       ?getMatch@CSSMatch@@QAEPAVMatch@@XZ 10011180 f   CSSMatch.obj
 0001:00010190       ?getTimers@CSSMatch@@QAEPAVGestionTimers@@XZ 10011190 f   CSSMatch.obj
 0001:000101a0       ??1SayHook@@UAE@XZ         100111a0 f i CSSMatch.obj
 0001:000101b0       ??1SayTeamHook@@UAE@XZ     100111b0 f i CSSMatch.obj
 0001:000101c0       ??0?$allocator@V?$basic_string@DU?$char_traits@D@std@@V?$allocator@D@2@@std@@@std@@QAE@XZ 100111c0 f i CSSMatch.obj
 0001:000101d0       ??0?$allocator@V?$basic_string@DU?$char_traits@D@std@@V?$allocator@D@2@@std@@@std@@QAE@ABV01@@Z 100111d0 f i CSSMatch.obj
 0001:000101e0       ?deallocate@?$allocator@V?$basic_string@DU?$char_traits@D@std@@V?$allocator@D@2@@std@@@std@@QAEXPAV?$basic_string@DU?$char_traits@D@std@@V?$allocator@D@2@@2@I@Z 100111e0 f i CSSMatch.obj
 0001:000101f0       ?max_size@?$allocator@V?$basic_string@DU?$char_traits@D@std@@V?$allocator@D@2@@std@@@std@@QBEIXZ 100111f0 f i CSSMatch.obj
 0001:00010200       ??$_Allocate@V?$basic_string@DU?$char_traits@D@std@@V?$allocator@D@2@@std@@@std@@YAPAV?$basic_string@DU?$char_traits@D@std@@V?$allocator@D@2@@0@IPAV10@@Z 10011200 f i CSSMatch.obj
 0001:00010270       ??$_Ptr_cat@PAV?$basic_string@DU?$char_traits@D@std@@V?$allocator@D@2@@std@@PAV12@@std@@YA?AU_Nonscalar_ptr_iterator_tag@0@AAPAV?$basic_string@DU?$char_traits@D@std@@V?$allocator@D@2@@0@0@Z 10011270 f i CSSMatch.obj
 0001:00010280       ??0EventListener@@QAE@XZ   10011280 f i CSSMatch.obj
 0001:00010290       ??_EEventListener@@UAEPAXI@Z 10011290 f i CSSMatch.obj
 0001:00010290       ??_GEventListener@@UAEPAXI@Z 10011290 f i CSSMatch.obj
 0001:000102b0       ??0?$_Vector_val@V?$basic_string@DU?$char_traits@D@std@@V?$allocator@D@2@@std@@V?$allocator@V?$basic_string@DU?$char_traits@D@std@@V?$allocator@D@2@@std@@@2@@std@@IAE@V?$allocator@V?$basic_string@DU?$char_traits@D@std@@V?$allocator@D@2@@std@@@1@@Z 100112b0 f i CSSMatch.obj
 0001:000102c0       ?max_size@?$vector@V?$basic_string@DU?$char_traits@D@std@@V?$allocator@D@2@@std@@V?$allocator@V?$basic_string@DU?$char_traits@D@std@@V?$allocator@D@2@@std@@@2@@std@@QBEIXZ 100112c0 f i CSSMatch.obj
 0001:000102d0       ?allocate@?$allocator@V?$basic_string@DU?$char_traits@D@std@@V?$allocator@D@2@@std@@@std@@QAEPAV?$basic_string@DU?$char_traits@D@std@@V?$allocator@D@2@@2@I@Z 100112d0 f i CSSMatch.obj
 0001:000102f0       ??_G?$basic_string@DU?$char_traits@D@std@@V?$allocator@D@2@@std@@QAEPAXI@Z 100112f0 f i CSSMatch.obj
 0001:00010330       ??1PlayerProp@@QAE@XZ      10011330 f i CSSMatch.obj
 0001:00010380       ??$_Destroy@V?$basic_string@DU?$char_traits@D@std@@V?$allocator@D@2@@std@@@std@@YAXPAV?$basic_string@DU?$char_traits@D@std@@V?$allocator@D@2@@0@@Z 10011380 f i CSSMatch.obj
 0001:000103b0       ?destroy@?$allocator@V?$basic_string@DU?$char_traits@D@std@@V?$allocator@D@2@@std@@@std@@QAEXPAV?$basic_string@DU?$char_traits@D@std@@V?$allocator@D@2@@2@@Z 100113b0 f i CSSMatch.obj
 0001:000103e0       ?_Xlen@?$vector@V?$basic_string@DU?$char_traits@D@std@@V?$allocator@D@2@@std@@V?$allocator@V?$basic_string@DU?$char_traits@D@std@@V?$allocator@D@2@@std@@@2@@std@@KAXXZ 100113e0 f i CSSMatch.obj
 0001:00010460       ??$_Destroy_range@V?$basic_string@DU?$char_traits@D@std@@V?$allocator@D@2@@std@@V?$allocator@V?$basic_string@DU?$char_traits@D@std@@V?$allocator@D@2@@std@@@2@@std@@YAXPAV?$basic_string@DU?$char_traits@D@std@@V?$allocator@D@2@@0@0AAV?$allocator@V?$basic_string@DU?$char_traits@D@std@@V?$allocator@D@2@@std@@@0@U_Nonscalar_ptr_iterator_tag@0@@Z 10011460 f i CSSMatch.obj
 0001:000104a0       ??4PlayerProp@@QAEAAV0@ABV0@@Z 100114a0 f i CSSMatch.obj
 0001:000104d0       ?LevelInit@CSSMatch@@UAEXPBD@Z 100114d0 f   CSSMatch.obj
 0001:000105c0       ?ClientPutInServer@CSSMatch@@UAEXPAUedict_t@@PBD@Z 100115c0 f   CSSMatch.obj
 0001:00010760       ?goTeam@CSSMatch@@QAEXPAVTeam@@PAUedict_t@@@Z 10011760 f   CSSMatch.obj
 0001:00010840       ?_Buy@?$vector@V?$basic_string@DU?$char_traits@D@std@@V?$allocator@D@2@@std@@V?$allocator@V?$basic_string@DU?$char_traits@D@std@@V?$allocator@D@2@@std@@@2@@std@@IAE_NI@Z 10011840 f i CSSMatch.obj
 0001:000108a0       ??$_Destroy_range@V?$basic_string@DU?$char_traits@D@std@@V?$allocator@D@2@@std@@V?$allocator@V?$basic_string@DU?$char_traits@D@std@@V?$allocator@D@2@@std@@@2@@std@@YAXPAV?$basic_string@DU?$char_traits@D@std@@V?$allocator@D@2@@0@0AAV?$allocator@V?$basic_string@DU?$char_traits@D@std@@V?$allocator@D@2@@std@@@0@@Z 100118a0 f i CSSMatch.obj
 0001:000108c0       ?Load@CSSMatch@@UAE_NP6APAXPBDPAH@Z2@Z 100118c0 f   CSSMatch.obj
 0001:00010b60       ??0?$vector@V?$basic_string@DU?$char_traits@D@std@@V?$allocator@D@2@@std@@V?$allocator@V?$basic_string@DU?$char_traits@D@std@@V?$allocator@D@2@@std@@@2@@std@@QAE@XZ 10011b60 f i CSSMatch.obj
 0001:00010b70       ?_Destroy@?$vector@V?$basic_string@DU?$char_traits@D@std@@V?$allocator@D@2@@std@@V?$allocator@V?$basic_string@DU?$char_traits@D@std@@V?$allocator@D@2@@std@@@2@@std@@IAEXPAV?$basic_string@DU?$char_traits@D@std@@V?$allocator@D@2@@2@0@Z 10011b70 f i CSSMatch.obj
 0001:00010b90       ?_Tidy@?$vector@V?$basic_string@DU?$char_traits@D@std@@V?$allocator@D@2@@std@@V?$allocator@V?$basic_string@DU?$char_traits@D@std@@V?$allocator@D@2@@std@@@2@@std@@IAEXXZ 10011b90 f i CSSMatch.obj
 0001:00010bd0       ??1?$vector@V?$basic_string@DU?$char_traits@D@std@@V?$allocator@D@2@@std@@V?$allocator@V?$basic_string@DU?$char_traits@D@std@@V?$allocator@D@2@@std@@@2@@std@@QAE@XZ 10011bd0 f i CSSMatch.obj
 0001:00010c10       ??0Authentification@@QAE@XZ 10011c10 f i CSSMatch.obj
 0001:00010c20       ??1Authentification@@QAE@XZ 10011c20 f i CSSMatch.obj
 0001:00010c60       ??1CSSMatch@@AAE@XZ        10011c60 f   CSSMatch.obj
 0001:00010dc0       ??_GCSSMatch@@AAEPAXI@Z    10011dc0 f i CSSMatch.obj
 0001:00010de0       ??0CSSMatch@@AAE@XZ        10011de0 f   CSSMatch.obj
 0001:00010ec0       ?Unload@CSSMatch@@UAEXXZ   10011ec0 f   CSSMatch.obj
 0001:00010f30       ?ClientCommand@CSSMatch@@UAE?AW4PLUGIN_RESULT@@PAUedict_t@@@Z 10011f30 f   CSSMatch.obj
 0001:000114f0       ?getInstance@CSSMatch@@SAPAV1@XZ 100124f0 f   CSSMatch.obj
 0001:00011580       ?FStrEq@@YA_NPBD0@Z        10012580 f i ConVars.obj
 0001:000115f0       ?initialise@ConVars@@SAXXZ 100125f0 f   ConVars.obj
 0001:000116a0       ?swapAlltalk@ConVars@@SAXXZ 100126a0 f   ConVars.obj
 0001:000117a0       ?getNom@EnregistrementTV@@QBEABV?$basic_string@DU?$char_traits@D@std@@V?$allocator@D@2@@std@@XZ 100127a0 f   EnregistrementTV.obj
 0001:000117b0       ?getEnregistrant@EnregistrementTV@@QBE_NXZ 100127b0 f   EnregistrementTV.obj
 0001:000117c0       ?empty@?$basic_string@DU?$char_traits@D@std@@V?$allocator@D@2@@std@@QBE_NXZ 100127c0 f i EnregistrementTV.obj
 0001:000117d0       ??$?9DU?$char_traits@D@std@@V?$allocator@D@1@@std@@YA_NABV?$basic_string@DU?$char_traits@D@std@@V?$allocator@D@2@@0@PBD@Z 100127d0 f i EnregistrementTV.obj
 0001:00011810       ??0CSSMatchTVException@@QAE@ABV?$basic_string@DU?$char_traits@D@std@@V?$allocator@D@2@@std@@@Z 10012810 f i EnregistrementTV.obj
 0001:00011880       ?what@CSSMatchTVException@@UBEPBDXZ 10012880 f i EnregistrementTV.obj
 0001:00011890       ??1CSSMatchTVException@@UAE@XZ 10012890 f i EnregistrementTV.obj
 0001:000118d0       ??_ECSSMatchTVException@@UAEPAXI@Z 100128d0 f i EnregistrementTV.obj
 0001:000118d0       ??_GCSSMatchTVException@@UAEPAXI@Z 100128d0 f i EnregistrementTV.obj
 0001:00011920       ?timerStoppeRecords@@YAXABV?$basic_string@DU?$char_traits@D@std@@V?$allocator@D@2@@std@@@Z 10012920 f   EnregistrementTV.obj
 0001:000119b0       ??0EnregistrementTV@@QAE@XZ 100129b0 f   EnregistrementTV.obj
 0001:00011a10       ?enregistre@EnregistrementTV@@QAEXXZ 10012a10 f   EnregistrementTV.obj
 0001:00011be0       ??0CSSMatchTVException@@QAE@ABV0@@Z 10012be0 f i EnregistrementTV.obj
 0001:00011c60       ?coupe@EnregistrementTV@@QAEXXZ 10012c60 f   EnregistrementTV.obj
 0001:00011d30       ??0EnregistrementTV@@QAE@ABV?$basic_string@DU?$char_traits@D@std@@V?$allocator@D@2@@std@@@Z 10012d30 f   EnregistrementTV.obj
 0001:00012150       ?setIndex@Joueur@@QAEXH@Z  10013150 f   Joueur.obj
 0001:00012160       ?getIndex@Joueur@@QBEHXZ   10013160 f   Joueur.obj
 0001:00012170       ?getKills@Joueur@@QBEHXZ   10013170 f   Joueur.obj
 0001:00012180       ?incKills@Joueur@@QAEHXZ   10013180 f   Joueur.obj
 0001:00012190       ?decKills@Joueur@@QAEHXZ   10013190 f   Joueur.obj
 0001:000121a0       ?setKills@Joueur@@QAEXH@Z  100131a0 f   Joueur.obj
 0001:000121b0       ?getDeaths@Joueur@@QBEHXZ  100131b0 f   Joueur.obj
 0001:000121c0       ?incDeaths@Joueur@@QAEHXZ  100131c0 f   Joueur.obj
 0001:000121d0       ?decDeaths@Joueur@@QAEHXZ  100131d0 f   Joueur.obj
 0001:000121e0       ?setDeaths@Joueur@@QAEXH@Z 100131e0 f   Joueur.obj
 0001:000121f0       ?getRatio@Joueur@@QBEMXZ   100131f0 f   Joueur.obj
 0001:00012210       ?sauveStatsRound@Joueur@@QAEXXZ 10013210 f   Joueur.obj
 0001:00012220       ?sauveStatsManche@Joueur@@QAEXXZ 10013220 f   Joueur.obj
 0001:00012230       ?restoreStatsRound@Joueur@@QAEXXZ 10013230 f   Joueur.obj
 0001:00012240       ?restoreStatsManche@Joueur@@QAEXXZ 10013240 f   Joueur.obj
 0001:00012250       ?getMenu@Joueur@@QAEPAVMenu@@XZ 10013250 f   Joueur.obj
 0001:00012260       ?getPageMenu@Joueur@@QBEHXZ 10013260 f   Joueur.obj
 0001:00012270       ?setPageMenu@Joueur@@QAEXH@Z 10013270 f   Joueur.obj
 0001:00012280       ?incPageMenu@Joueur@@QAEHXZ 10013280 f   Joueur.obj
 0001:00012290       ?decPageMenu@Joueur@@QAEHXZ 10013290 f   Joueur.obj
 0001:000122a0       ?getUseridCible@Joueur@@QBEHXZ 100132a0 f   Joueur.obj
 0001:000122b0       ?setUseridCible@Joueur@@QAEXH@Z 100132b0 f   Joueur.obj
 0001:000122c0       ?deallocate@?$allocator@VLigne@@@std@@QAEXPAVLigne@@I@Z 100132c0 f i Joueur.obj
 0001:000122d0       ??$_Ptr_cat@PAVLigne@@PAV1@@std@@YA?AU_Nonscalar_ptr_iterator_tag@0@AAPAVLigne@@0@Z 100132d0 f i Joueur.obj
 0001:000122e0       ??1Ligne@@QAE@XZ           100132e0 f i Joueur.obj
 0001:00012310       ??_GLigne@@QAEPAXI@Z       10013310 f i Joueur.obj
 0001:00012350       ??$_Destroy@VLigne@@@std@@YAXPAVLigne@@@Z 10013350 f i Joueur.obj
 0001:00012380       ?destroy@?$allocator@VLigne@@@std@@QAEXPAVLigne@@@Z 10013380 f i Joueur.obj
 0001:000123b0       ??$_Destroy_range@VLigne@@V?$allocator@VLigne@@@std@@@std@@YAXPAVLigne@@0AAV?$allocator@VLigne@@@0@U_Nonscalar_ptr_iterator_tag@0@@Z 100133b0 f i Joueur.obj
 0001:000123f0       ??$_Destroy_range@VLigne@@V?$allocator@VLigne@@@std@@@std@@YAXPAVLigne@@0AAV?$allocator@VLigne@@@0@@Z 100133f0 f i Joueur.obj
 0001:00012410       ?_Destroy@?$vector@VLigne@@V?$allocator@VLigne@@@std@@@std@@IAEXPAVLigne@@0@Z 10013410 f i Joueur.obj
 0001:00012430       ?_Tidy@?$vector@VLigne@@V?$allocator@VLigne@@@std@@@std@@IAEXXZ 10013430 f i Joueur.obj
 0001:00012470       ??1?$vector@VLigne@@V?$allocator@VLigne@@@std@@@std@@QAE@XZ 10013470 f i Joueur.obj
 0001:000124b0       ??1Menu@@QAE@XZ            100134b0 f i Joueur.obj
 0001:00012510       ??1Joueur@@QAE@XZ          10013510 f i Joueur.obj
 0001:00012520       ?setMenu@Joueur@@QAEXVMenu@@@Z 10013520 f   Joueur.obj
 0001:00012580       ??0Joueur@@QAE@XZ          10013580 f   Joueur.obj
 0001:00012610       ??0Joueur@@QAE@H@Z         10013610 f   Joueur.obj
 0001:000126c0       ?getTexte@Ligne@@QBEABV?$basic_string@DU?$char_traits@D@std@@V?$allocator@D@2@@std@@XZ 100136c0 f   Ligne.obj
 0001:000126d0       ?getValeur@Ligne@@QBEHXZ   100136d0 f   Ligne.obj
 0001:000126e0       ??0Ligne@@QAE@XZ           100136e0 f   Ligne.obj
 0001:00012740       ??0Ligne@@QAE@ABV?$basic_string@DU?$char_traits@D@std@@V?$allocator@D@2@@std@@H@Z 10013740 f   Ligne.obj
 0001:000127b0       ??0codecvt_base@std@@QAE@I@Z 100137b0 f i Menu.obj
 0001:000127d0       ?always_noconv@codecvt_base@std@@QBE_NXZ 100137d0 f i Menu.obj
 0001:000127e0       ??1codecvt_base@std@@UAE@XZ 100137e0 f i Menu.obj
 0001:000127f0       ?do_always_noconv@codecvt_base@std@@MBE_NXZ 100137f0 f i Menu.obj
 0001:00012800       ?do_max_length@codecvt_base@std@@MBEHXZ 10013800 f i Menu.obj
 0001:00012810       ?do_encoding@codecvt_base@std@@MBEHXZ 10013810 f i Menu.obj
 0001:00012820       ??_Gcodecvt_base@std@@UAEPAXI@Z 10013820 f i Menu.obj
 0001:00012820       ??_Ecodecvt_base@std@@UAEPAXI@Z 10013820 f i Menu.obj
 0001:00012840       ?is@?$ctype@D@std@@QBE_NFD@Z 10013840 f i Menu.obj
 0001:00012860       ?getTitre@Menu@@QBEABV?$basic_string@DU?$char_traits@D@std@@V?$allocator@D@2@@std@@XZ 10013860 f   Menu.obj
 0001:00012870       ?setCodeMenu@Menu@@QAEXW4CodeMenu@@@Z 10013870 f   Menu.obj
 0001:00012880       ?getCodeMenu@Menu@@QBE?AW4CodeMenu@@XZ 10013880 f   Menu.obj
 0001:00012890       ?setCodeMenuParent@Menu@@QAEXW4CodeMenu@@@Z 10013890 f   Menu.obj
 0001:000128a0       ?getCodeMenuParent@Menu@@QBE?AW4CodeMenu@@XZ 100138a0 f   Menu.obj
 0001:000128b0       ?specialise@Menu@@QAEXW4TypeSpeMenu@@@Z 100138b0 f   Menu.obj
 0001:000128c0       ?getSpecialisation@Menu@@QBE?AW4TypeSpeMenu@@XZ 100138c0 f   Menu.obj
 0001:000128d0       ?setCallBack@Menu@@QAEXP6AXHH@Z@Z 100138d0 f   Menu.obj
 0001:000128e0       ?callBack@Menu@@QAEXHH@Z   100138e0 f   Menu.obj
 0001:00012900       ??1?$basic_istream@DU?$char_traits@D@std@@@std@@UAE@XZ 10013900 f i Menu.obj
 0001:00012910       ??Bsentry@?$basic_istream@DU?$char_traits@D@std@@@std@@QBE_NXZ 10013910 f i Menu.obj
 0001:00012920       ?size@?$vector@VLigne@@V?$allocator@VLigne@@@std@@@std@@QBEIXZ 10013920 f i Menu.obj
 0001:00012940       ??A?$vector@VLigne@@V?$allocator@VLigne@@@std@@@std@@QBEABVLigne@@I@Z 10013940 f i Menu.obj
 0001:00012970       ??A?$vector@VLigne@@V?$allocator@VLigne@@@std@@@std@@QAEAAVLigne@@I@Z 10013970 f i Menu.obj
 0001:000129a0       ??_D?$basic_istream@DU?$char_traits@D@std@@@std@@QAEXXZ 100139a0 f i Menu.obj
 0001:000129c0       ?_Gnpreinc@?$basic_streambuf@DU?$char_traits@D@std@@@std@@IAEPADXZ 100139c0 f i Menu.obj
 0001:000129e0       ?capacity@?$vector@VLigne@@V?$allocator@VLigne@@@std@@@std@@QBEIXZ 100139e0 f i Menu.obj
 0001:00012a00       ??0?$allocator@VLigne@@@std@@QAE@XZ 10013a00 f i Menu.obj
 0001:00012a10       ?getloc@?$basic_streambuf@DU?$char_traits@D@std@@@std@@QBE?AVlocale@2@XZ 10013a10 f i Menu.obj
 0001:00012a50       ?_Init@?$basic_streambuf@DU?$char_traits@D@std@@@std@@IAEXPAPAD0PAH001@Z 10013a50 f i Menu.obj
 0001:00012a80       ??0?$allocator@VLigne@@@std@@QAE@ABV01@@Z 10013a80 f i Menu.obj
 0001:00012a90       ?unshift@?$codecvt@DDH@std@@QBEHAAHPAD1AAPAD@Z 10013a90 f i Menu.obj
 0001:00012aa0       ?max_size@?$allocator@VLigne@@@std@@QBEIXZ 10013aa0 f i Menu.obj
 0001:00012ab0       ??G?$_Vector_const_iterator@VLigne@@V?$allocator@VLigne@@@std@@@std@@QBEHABV01@@Z 10013ab0 f i Menu.obj
 0001:00012ae0       ??8?$_Vector_const_iterator@VLigne@@V?$allocator@VLigne@@@std@@@std@@QBE_NABV01@@Z 10013ae0 f i Menu.obj
 0001:00012b10       ??0?$_Ranit@VLigne@@HPBV1@ABV1@@std@@QAE@XZ 10013b10 f i Menu.obj
 0001:00012b20       ??Y?$_Vector_const_iterator@VLigne@@V?$allocator@VLigne@@@std@@@std@@QAEAAV01@H@Z 10013b20 f i Menu.obj
 0001:00012b60       ??$_Allocate@VLigne@@@std@@YAPAVLigne@@IPAV1@@Z 10013b60 f i Menu.obj
 0001:00012bc0       ?_Init@?$codecvt@DDH@std@@IAEXABV_Locinfo@2@@Z 10013bc0 f i Menu.obj
 0001:00012bd0       ??$_Iter_random@PAVLigne@@PAV1@@std@@YA?AUrandom_access_iterator_tag@0@ABQAVLigne@@0@Z 10013bd0 f i Menu.obj
 0001:00012be0       ??$_Move_cat@PAVLigne@@@std@@YA?AU_Undefined_move_tag@0@ABQAVLigne@@@Z 10013be0 f i Menu.obj
 0001:00012bf0       ??$_Checked_base@PAVLigne@@@std@@YAPAVLigne@@AAPAV1@U_Unchanged_checked_iterator_base_type_tag@0@@Z 10013bf0 f i Menu.obj
 0001:00012c00       ??Bios_base@std@@QBEPAXXZ  10013c00 f i Menu.obj
 0001:00012c10       ?getNbrLignes@Menu@@QBEHXZ 10013c10 f   Menu.obj
 0001:00012c30       ??1_Sentry_base@?$basic_istream@DU?$char_traits@D@std@@@std@@QAE@XZ 10013c30 f i Menu.obj
 0001:00012c50       ?sgetc@?$basic_streambuf@DU?$char_traits@D@std@@@std@@QAEHXZ 10013c50 f i Menu.obj
 0001:00012c70       ??_G?$basic_istream@DU?$char_traits@D@std@@@std@@UAEPAXI@Z 10013c70 f i Menu.obj
 0001:00012c70       ??_E?$basic_istream@DU?$char_traits@D@std@@@std@@UAEPAXI@Z 10013c70 f i Menu.obj
 0001:00012cb0       ??0_Sentry_base@?$basic_istream@DU?$char_traits@D@std@@@std@@QAE@AAV12@@Z 10013cb0 f i Menu.obj
 0001:00012ce0       ?sbumpc@?$basic_streambuf@DU?$char_traits@D@std@@@std@@QAEHXZ 10013ce0 f i Menu.obj
 0001:00012d10       ??0?$_Vector_val@VLigne@@V?$allocator@VLigne@@@std@@@std@@IAE@V?$allocator@VLigne@@@1@@Z 10013d10 f i Menu.obj
 0001:00012d20       ?_Init@?$basic_filebuf@DU?$char_traits@D@std@@@std@@IAEXPAU_iobuf@@W4_Initfl@12@@Z 10013d20 f i Menu.obj
 0001:00012d70       ?_Initcvt@?$basic_filebuf@DU?$char_traits@D@std@@@std@@IAEXPAV?$codecvt@DDH@2@@Z 10013d70 f i Menu.obj
 0001:00012da0       ?max_size@?$vector@VLigne@@V?$allocator@VLigne@@@std@@@std@@QBEIXZ 10013da0 f i Menu.obj
 0001:00012db0       ?allocate@?$allocator@VLigne@@@std@@QAEPAVLigne@@I@Z 10013db0 f i Menu.obj
 0001:00012dd0       ??G?$_Vector_iterator@VLigne@@V?$allocator@VLigne@@@std@@@std@@QBEHABV?$_Vector_const_iterator@VLigne@@V?$allocator@VLigne@@@std@@@1@@Z 10013dd0 f i Menu.obj
 0001:00012e00       ??9?$_Vector_const_iterator@VLigne@@V?$allocator@VLigne@@@std@@@std@@QBE_NABV01@@Z 10013e00 f i Menu.obj
 0001:00012e30       ??Y?$_Vector_iterator@VLigne@@V?$allocator@VLigne@@@std@@@std@@QAEAAV01@H@Z 10013e30 f i Menu.obj
 0001:00012e70       ??0?$_Vector_const_iterator@VLigne@@V?$allocator@VLigne@@@std@@@std@@QAE@PAVLigne@@PBU_Container_base@1@@Z 10013e70 f i Menu.obj
 0001:00012eb0       ??$_Checked_base@PAVLigne@@@std@@YAPAVLigne@@AAPAV1@@Z 10013eb0 f i Menu.obj
 0001:00012ec0       ??1sentry@?$basic_istream@DU?$char_traits@D@std@@@std@@QAE@XZ 10013ec0 f i Menu.obj
 0001:00012ee0       ?find@?$basic_string@DU?$char_traits@D@std@@V?$allocator@D@2@@std@@QBEIDI@Z 10013ee0 f i Menu.obj
 0001:00012f00       ?snextc@?$basic_streambuf@DU?$char_traits@D@std@@@std@@QAEHXZ 10013f00 f i Menu.obj
 0001:00012f80       ??0?$basic_filebuf@DU?$char_traits@D@std@@@std@@QAE@PAU_iobuf@@@Z 10013f80 f i Menu.obj
 0001:00012fe0       ??$_Fgetc@D@std@@YA_NAADPAU_iobuf@@@Z 10013fe0 f i Menu.obj
 0001:00013000       ??$_Fputc@D@std@@YA_NDPAU_iobuf@@@Z 10014000 f i Menu.obj
 0001:00013020       ??$_Ungetc@D@std@@YA_NABDPAU_iobuf@@@Z 10014020 f i Menu.obj
 0001:00013040       ?sync@?$basic_filebuf@DU?$char_traits@D@std@@@std@@MAEHXZ 10014040 f i Menu.obj
 0001:00013070       ?_Gndec@?$basic_streambuf@DU?$char_traits@D@std@@@std@@IAEPADXZ 10014070 f i Menu.obj
 0001:00013090       ??0?$fpos@H@std@@QAE@H_J@Z 10014090 f i Menu.obj
 0001:000130b0       ?state@?$fpos@H@std@@QBEHXZ 100140b0 f i Menu.obj
 0001:000130c0       ?seekpos@?$fpos@H@std@@QBE_JXZ 100140c0 f i Menu.obj
 0001:000130d0       ?in@?$codecvt@DDH@std@@QBEHAAHPBD1AAPBDPAD3AAPAD@Z 100140d0 f i Menu.obj
 0001:000130e0       ?out@?$codecvt@DDH@std@@QBEHAAHPBD1AAPBDPAD3AAPAD@Z 100140e0 f i Menu.obj
 0001:000130f0       ?pbackfail@?$basic_filebuf@DU?$char_traits@D@std@@@std@@MAEHH@Z 100140f0 f i Menu.obj
 0001:00013160       ?underflow@?$basic_filebuf@DU?$char_traits@D@std@@@std@@MAEHXZ 10014160 f i Menu.obj
 0001:000131b0       ?setbuf@?$basic_filebuf@DU?$char_traits@D@std@@@std@@MAEPAV?$basic_streambuf@DU?$char_traits@D@std@@@2@PADH@Z 100141b0 f i Menu.obj
 0001:00013240       ??0?$_Vector_iterator@VLigne@@V?$allocator@VLigne@@@std@@@std@@QAE@PAVLigne@@PBU_Container_base@1@@Z 10014240 f i Menu.obj
 0001:00013280       ??H?$_Vector_iterator@VLigne@@V?$allocator@VLigne@@@std@@@std@@QBE?AV01@H@Z 10014280 f i Menu.obj
 0001:000132c0       ?begin@?$vector@VLigne@@V?$allocator@VLigne@@@std@@@std@@QAE?AV?$_Vector_iterator@VLigne@@V?$allocator@VLigne@@@std@@@2@XZ 100142c0 f i Menu.obj
 0001:000132f0       ?end@?$vector@VLigne@@V?$allocator@VLigne@@@std@@@std@@QAE?AV?$_Vector_iterator@VLigne@@V?$allocator@VLigne@@@std@@@2@XZ 100142f0 f i Menu.obj
 0001:00013320       ?assign@?$basic_string@DU?$char_traits@D@std@@V?$allocator@D@2@@std@@QAEAAV12@ID@Z 10014320 f i Menu.obj
 0001:000133b0       ??0?$basic_string@DU?$char_traits@D@std@@V?$allocator@D@2@@std@@QAE@ID@Z 100143b0 f i Menu.obj
 0001:000133e0       ?_Endwrite@?$basic_filebuf@DU?$char_traits@D@std@@@std@@IAE_NXZ 100143e0 f i Menu.obj
 0001:00013700       ??Y?$basic_string@DU?$char_traits@D@std@@V?$allocator@D@2@@std@@QAEAAV01@D@Z 10014700 f i Menu.obj
 0001:00013710       ?overflow@?$basic_filebuf@DU?$char_traits@D@std@@@std@@MAEHH@Z 10014710 f i Menu.obj
 0001:00013ae0       ?uflow@?$basic_filebuf@DU?$char_traits@D@std@@@std@@MAEHXZ 10014ae0 f i Menu.obj
 0001:00013e40       ?seekoff@?$basic_filebuf@DU?$char_traits@D@std@@@std@@MAE?AV?$fpos@H@2@JHH@Z 10014e40 f i Menu.obj
 0001:00013f20       ?seekpos@?$basic_filebuf@DU?$char_traits@D@std@@@std@@MAE?AV?$fpos@H@2@V32@H@Z 10014f20 f i Menu.obj
 0001:00014010       ?close@?$basic_filebuf@DU?$char_traits@D@std@@@std@@QAEPAV12@XZ 10015010 f i Menu.obj
 0001:00014060       ??0Ligne@@QAE@ABV0@@Z      10015060 f i Menu.obj
 0001:00014090       ??1?$basic_filebuf@DU?$char_traits@D@std@@@std@@UAE@XZ 10015090 f i Menu.obj
 0001:00014100       ??_G?$basic_filebuf@DU?$char_traits@D@std@@@std@@UAEPAXI@Z 10015100 f i Menu.obj
 0001:00014100       ??_E?$basic_filebuf@DU?$char_traits@D@std@@@std@@UAEPAXI@Z 10015100 f i Menu.obj
 0001:00014120       ?_Xlen@?$vector@VLigne@@V?$allocator@VLigne@@@std@@@std@@KAXXZ 10015120 f i Menu.obj
 0001:000141a0       ??$_Construct@VLigne@@V1@@std@@YAXPAVLigne@@ABV1@@Z 100151a0 f i Menu.obj
 0001:00014210       ??0CSSMatchMenuException@@QAE@ABV?$basic_string@DU?$char_traits@D@std@@V?$allocator@D@2@@std@@@Z 10015210 f i Menu.obj
 0001:00014280       ?what@CSSMatchMenuException@@UBEPBDXZ 10015280 f i Menu.obj
 0001:00014290       ??1CSSMatchMenuException@@UAE@XZ 10015290 f i Menu.obj
 0001:000142d0       ??_GCSSMatchMenuException@@UAEPAXI@Z 100152d0 f i Menu.obj
 0001:000142d0       ??_ECSSMatchMenuException@@UAEPAXI@Z 100152d0 f i Menu.obj
 0001:00014320       ?setTitre@Menu@@QAEXABV?$basic_string@DU?$char_traits@D@std@@V?$allocator@D@2@@std@@@Z 10015320 f   Menu.obj
 0001:00014340       ??4Ligne@@QAEAAV0@ABV0@@Z  10015340 f i Menu.obj
 0001:00014360       ?setLigne@Menu@@QAEXHABV?$basic_string@DU?$char_traits@D@std@@V?$allocator@D@2@@std@@H@Z 10015360 f   Menu.obj
 0001:00014440       ?getLigne@Menu@@QBEABVLigne@@H@Z 10015440 f   Menu.obj
 0001:00014510       ??0CSSMatchMenuException@@QAE@ABV0@@Z 10015510 f i Menu.obj
 0001:00014590       ?getChoix@Menu@@QBEABVLigne@@HH@Z 10015590 f   Menu.obj
 0001:00014670       ??1?$basic_ifstream@DU?$char_traits@D@std@@@std@@UAE@XZ 10015670 f i Menu.obj
 0001:000146e0       ?_Buy@?$vector@VLigne@@V?$allocator@VLigne@@@std@@@std@@IAE_NI@Z 100156e0 f i Menu.obj
 0001:00014730       ??0?$codecvt@DDH@std@@QAE@I@Z 10015730 f i Menu.obj
 0001:000147c0       ??1?$codecvt@DDH@std@@MAE@XZ 100157c0 f i Menu.obj
 0001:000147d0       ?do_in@?$codecvt@DDH@std@@MBEHAAHPBD1AAPBDPAD3AAPAD@Z 100157d0 f i Menu.obj
 0001:000147f0       ?do_out@?$codecvt@DDH@std@@MBEHAAHPBD1AAPBDPAD3AAPAD@Z 100157f0 f i Menu.obj
 0001:00014810       ?do_unshift@?$codecvt@DDH@std@@MBEHAAHPAD1AAPAD@Z 10015810 f i Menu.obj
 0001:00014830       ?do_length@?$codecvt@DDH@std@@MBEHABHPBD1I@Z 10015830 f i Menu.obj
 0001:00014850       ??_G?$codecvt@DDH@std@@MAEPAXI@Z 10015850 f i Menu.obj
 0001:00014850       ??_E?$codecvt@DDH@std@@MAEPAXI@Z 10015850 f i Menu.obj
 0001:00014870       ??$_Fill@PAVLigne@@V1@@std@@YAXPAVLigne@@0ABV1@@Z 10015870 f i Menu.obj
 0001:000148a0       ?construct@?$allocator@VLigne@@@std@@QAEXPAVLigne@@ABV3@@Z 100158a0 f i Menu.obj
 0001:000148c0       ??$_Copy_opt@PAVLigne@@PAV1@Uforward_iterator_tag@std@@@std@@YAPAVLigne@@PAV1@00Uforward_iterator_tag@0@U_Nonscalar_ptr_iterator_tag@0@U_Range_checked_iterator_tag@0@@Z 100158c0 f i Menu.obj
 0001:00014900       ??$_Uninit_copy@PAVLigne@@PAV1@V?$allocator@VLigne@@@std@@@std@@YAPAVLigne@@PAV1@00AAV?$allocator@VLigne@@@0@U_Nonscalar_ptr_iterator_tag@0@U_Range_checked_iterator_tag@0@@Z 10015900 f i Menu.obj
 0001:000149a0       ??$_Copy_backward_opt@PAVLigne@@PAV1@Uforward_iterator_tag@std@@@std@@YAPAVLigne@@PAV1@00Uforward_iterator_tag@0@U_Nonscalar_ptr_iterator_tag@0@U_Range_checked_iterator_tag@0@@Z 100159a0 f i Menu.obj
 0001:000149e0       ??_D?$basic_ifstream@DU?$char_traits@D@std@@@std@@QAEXXZ 100159e0 f i Menu.obj
 0001:00014a00       ??0?$vector@VLigne@@V?$allocator@VLigne@@@std@@@std@@QAE@XZ 10015a00 f i Menu.obj
 0001:00014a10       ??_G?$basic_ifstream@DU?$char_traits@D@std@@@std@@UAEPAXI@Z 10015a10 f i Menu.obj
 0001:00014a10       ??_E?$basic_ifstream@DU?$char_traits@D@std@@@std@@UAEPAXI@Z 10015a10 f i Menu.obj
 0001:00014a50       ??$fill@PAVLigne@@V1@@std@@YAXPAVLigne@@0ABV1@@Z 10015a50 f i Menu.obj
 0001:00014a60       ?_Getcat@?$codecvt@DDH@std@@SAIPAPBVfacet@locale@2@@Z 10015a60 f i Menu.obj
 0001:00014ad0       ??$_Copy_opt@PAVLigne@@PAV1@@std@@YAPAVLigne@@PAV1@00Urandom_access_iterator_tag@0@U_Nonscalar_ptr_iterator_tag@0@U_Range_checked_iterator_tag@0@@Z 10015ad0 f i Menu.obj
 0001:00014b20       ??$unchecked_uninitialized_copy@PAVLigne@@PAV1@V?$allocator@VLigne@@@std@@@stdext@@YAPAVLigne@@PAV1@00AAV?$allocator@VLigne@@@std@@@Z 10015b20 f i Menu.obj
 0001:00014b50       ??$_Uninit_fill_n@PAVLigne@@IV1@V?$allocator@VLigne@@@std@@@std@@YAXPAVLigne@@IABV1@AAV?$allocator@VLigne@@@0@U_Nonscalar_ptr_iterator_tag@0@U_Range_checked_iterator_tag@0@@Z 10015b50 f i Menu.obj
 0001:00014be0       ??$_Uninit_move@PAVLigne@@PAV1@V?$allocator@VLigne@@@std@@U_Undefined_move_tag@3@@std@@YAPAVLigne@@PAV1@00AAV?$allocator@VLigne@@@0@U_Undefined_move_tag@0@U_Range_checked_iterator_tag@0@@Z 10015be0 f i Menu.obj
 0001:00014c00       ??$_Copy_backward_opt@PAVLigne@@PAV1@@std@@YAPAVLigne@@PAV1@00Urandom_access_iterator_tag@0@U_Nonscalar_ptr_iterator_tag@0@U_Range_checked_iterator_tag@0@@Z 10015c00 f i Menu.obj
 0001:00014c50       ?_Ipfx@?$basic_istream@DU?$char_traits@D@std@@@std@@QAE_N_N@Z 10015c50 f i Menu.obj
 0001:00014df0       ??$unchecked_copy@PAVLigne@@PAV1@@stdext@@YAPAVLigne@@PAV1@00@Z 10015df0 f i Menu.obj
 0001:00014e40       ??$_Ucopy@PAVLigne@@@?$vector@VLigne@@V?$allocator@VLigne@@@std@@@std@@IAEPAVLigne@@PAV2@00@Z 10015e40 f i Menu.obj
 0001:00014e70       ??$use_facet@V?$codecvt@DDH@std@@@std@@YAABV?$codecvt@DDH@0@ABVlocale@0@@Z 10015e70 f i Menu.obj
 0001:00014fa0       ??$unchecked_uninitialized_fill_n@PAVLigne@@IV1@V?$allocator@VLigne@@@std@@@stdext@@YAXPAVLigne@@IABV1@AAV?$allocator@VLigne@@@std@@@Z 10015fa0 f i Menu.obj
 0001:00014fd0       ??$_Unchecked_uninitialized_move@PAVLigne@@PAV1@V?$allocator@VLigne@@@std@@@stdext@@YAPAVLigne@@PAV1@00AAV?$allocator@VLigne@@@std@@@Z 10015fd0 f i Menu.obj
 0001:00015000       ??$_Move_backward_opt@PAVLigne@@PAV1@Urandom_access_iterator_tag@std@@U_Undefined_move_tag@3@@std@@YAPAVLigne@@PAV1@00Urandom_access_iterator_tag@0@U_Undefined_move_tag@0@U_Range_checked_iterator_tag@0@@Z 10016000 f i Menu.obj
 0001:00015050       ??0sentry@?$basic_istream@DU?$char_traits@D@std@@@std@@QAE@AAV12@_N@Z 10016050 f i Menu.obj
 0001:000150c0       ?imbue@?$basic_filebuf@DU?$char_traits@D@std@@@std@@MAEXABVlocale@2@@Z 100160c0 f i Menu.obj
 0001:00015100       ??0?$basic_istream@DU?$char_traits@D@std@@@std@@QAE@PAV?$basic_streambuf@DU?$char_traits@D@std@@@1@_N@Z 10016100 f i Menu.obj
 0001:00015190       ?erase@?$vector@VLigne@@V?$allocator@VLigne@@@std@@@std@@QAE?AV?$_Vector_iterator@VLigne@@V?$allocator@VLigne@@@std@@@2@V32@0@Z 10016190 f i Menu.obj
 0001:000151f0       ?_Ufill@?$vector@VLigne@@V?$allocator@VLigne@@@std@@@std@@IAEPAVLigne@@PAV3@IABV3@@Z 100161f0 f i Menu.obj
 0001:00015230       ?open@?$basic_filebuf@DU?$char_traits@D@std@@@std@@QAEPAV12@PBDHH@Z 10016230 f i Menu.obj
 0001:00015350       ??$_Umove@PAVLigne@@@?$vector@VLigne@@V?$allocator@VLigne@@@std@@@std@@IAEPAVLigne@@PAV2@00@Z 10016350 f i Menu.obj
 0001:00015380       ??$_Unchecked_move_backward@PAVLigne@@PAV1@@stdext@@YAPAVLigne@@PAV1@00@Z 10016380 f i Menu.obj
 0001:000153d0       ??$getline@DU?$char_traits@D@std@@V?$allocator@D@2@@std@@YAAAV?$basic_istream@DU?$char_traits@D@std@@@0@AAV10@AAV?$basic_string@DU?$char_traits@D@std@@V?$allocator@D@2@@0@D@Z 100163d0 f i Menu.obj
 0001:00015570       ??0Menu@@QAE@XZ            10016570 f   Menu.obj
 0001:000155f0       ?clear@?$vector@VLigne@@V?$allocator@VLigne@@@std@@@std@@QAEXXZ 100165f0 f i Menu.obj
 0001:00015630       ??0?$basic_ifstream@DU?$char_traits@D@std@@@std@@QAE@PBDHH@Z 10016630 f i Menu.obj
 0001:00015770       ?_Insert_n@?$vector@VLigne@@V?$allocator@VLigne@@@std@@@std@@IAEXV?$_Vector_iterator@VLigne@@V?$allocator@VLigne@@@std@@@2@IABVLigne@@@Z 10016770 f i Menu.obj
 0001:00015a20       ??$getline@DU?$char_traits@D@std@@V?$allocator@D@2@@std@@YAAAV?$basic_istream@DU?$char_traits@D@std@@@0@AAV10@AAV?$basic_string@DU?$char_traits@D@std@@V?$allocator@D@2@@0@@Z 10016a20 f i Menu.obj
 0001:00015a50       ?affiche@Menu@@QAEXHH@Z    10016a50 f   Menu.obj
 0001:00015ec0       ?purge@Menu@@QAEXXZ        10016ec0 f   Menu.obj
 0001:00015f00       ??4?$vector@VLigne@@V?$allocator@VLigne@@@std@@@std@@QAEAAV01@ABV01@@Z 10016f00 f i Menu.obj
 0001:00016050       ?insert@?$vector@VLigne@@V?$allocator@VLigne@@@std@@@std@@QAE?AV?$_Vector_iterator@VLigne@@V?$allocator@VLigne@@@std@@@2@V32@ABVLigne@@@Z 10017050 f i Menu.obj
 0001:000160e0       ??0Menu@@QAE@ABV0@@Z       100170e0 f   Menu.obj
 0001:00016180       ??4Menu@@QAEAAV0@ABV0@@Z   10017180 f   Menu.obj
 0001:000161c0       ?push_back@?$vector@VLigne@@V?$allocator@VLigne@@@std@@@std@@QAEXABVLigne@@@Z 100171c0 f i Menu.obj
 0001:00016250       ?addLigne@Menu@@QAEXABV?$basic_string@DU?$char_traits@D@std@@V?$allocator@D@2@@std@@H@Z 10017250 f   Menu.obj
 0001:00016550       ?playerlist@Menu@@QAEX_N@Z 10017550 f   Menu.obj
 0001:00016860       ?cfglist@Menu@@QAEXABV?$basic_string@DU?$char_traits@D@std@@V?$allocator@D@2@@std@@@Z 10017860 f   Menu.obj
 0001:00016cf0       ?filelist@Menu@@QAEXABV?$basic_string@DU?$char_traits@D@std@@V?$allocator@D@2@@std@@@Z 10017cf0 f   Menu.obj
 0001:00016f90       ?getScore@Team@@QBEHXZ     10017f90 f   Team.obj
 0001:00016fa0       ?incScore@Team@@QAEHXZ     10017fa0 f   Team.obj
 0001:00016fb0       ?setScore@Team@@QAEXH@Z    10017fb0 f   Team.obj
 0001:00016fc0       ?getScoreT@Team@@QBEHXZ    10017fc0 f   Team.obj
 0001:00016fd0       ?incScoreT@Team@@QAEHXZ    10017fd0 f   Team.obj
 0001:00016fe0       ?setScoreT@Team@@QAEXH@Z   10017fe0 f   Team.obj
 0001:00016ff0       ?getScoreCT@Team@@QBEHXZ   10017ff0 f   Team.obj
 0001:00017000       ?incScoreCT@Team@@QAEHXZ   10018000 f   Team.obj
 0001:00017010       ?setScoreCT@Team@@QAEXH@Z  10018010 f   Team.obj
 0001:00017020       ?getTag@Team@@QBEABV?$basic_string@DU?$char_traits@D@std@@V?$allocator@D@2@@std@@XZ 10018020 f   Team.obj
 0001:00017030       ?setGoStrats@Team@@QAEX_N@Z 10018030 f   Team.obj
 0001:00017040       ?getGoStrats@Team@@QBE_NXZ 10018040 f   Team.obj
 0001:00017050       ?getNbrMembres@Team@@QBEHXZ 10018050 f   Team.obj
 0001:00017060       ?incNbrMembres@Team@@QAEHXZ 10018060 f   Team.obj
 0001:00017070       ?decNbrMembres@Team@@QAEHXZ 10018070 f   Team.obj
 0001:00017080       ??0Team@@QAE@XZ            10018080 f   Team.obj
 0001:000170f0       ?setTag@Team@@QAEXABV?$basic_string@DU?$char_traits@D@std@@V?$allocator@D@2@@std@@@Z 100180f0 f   Team.obj
 0001:00017110       ?aucunTag@Team@@AAEXXZ     10018110 f   Team.obj
 0001:00017120       ?aucuneTeam@Team@@AAEXW4CodeTeam@@@Z 10018120 f   Team.obj
 0001:000171f0       ?confirmeTag@Team@@AAE_NABV?$basic_string@DU?$char_traits@D@std@@V?$allocator@D@2@@std@@H0H@Z 100181f0 f   Team.obj
 0001:000172e0       ?determineTag@Team@@AAEXW4CodeTeam@@@Z 100182e0 f   Team.obj
 0001:000174f0       ?chercheTag@Team@@QAEABV?$basic_string@DU?$char_traits@D@std@@V?$allocator@D@2@@std@@W4CodeTeam@@@Z 100184f0 f   Team.obj
 0001:00017640       ?setf@ios_base@std@@QAEHHH@Z 10018640 f i Messages.obj
 0001:00017670       ?left@std@@YAAAVios_base@1@AAV21@@Z 10018670 f i Messages.obj
 0001:00017690       ?right@std@@YAAAVios_base@1@AAV21@@Z 10018690 f i Messages.obj
 0001:000176b0       ??6?$basic_ostream@DU?$char_traits@D@std@@@std@@QAEAAV01@P6AAAVios_base@1@AAV21@@Z@Z 100186b0 f i Messages.obj
 0001:000176e0       ??$?6DU?$char_traits@D@std@@H@std@@YAAAV?$basic_ostream@DU?$char_traits@D@std@@@0@AAV10@ABU?$_Smanip@H@0@@Z 100186e0 f i Messages.obj
 0001:00017720       ?fill@?$basic_ios@DU?$char_traits@D@std@@@std@@QAEDD@Z 10018720 f i Messages.obj
 0001:00017730       ??0?$_Fillobj@D@std@@QAE@D@Z 10018730 f i Messages.obj
 0001:00017740       ??$setfill@D@std@@YA?AU?$_Fillobj@D@0@D@Z 10018740 f i Messages.obj
 0001:00017750       ??$?6DU?$char_traits@D@std@@@std@@YAAAV?$basic_ostream@DU?$char_traits@D@std@@@0@AAV10@ABU?$_Fillobj@D@0@@Z 10018750 f i Messages.obj
 0001:00017770       ?clientPrintTell@Messages@@YAXPAUedict_t@@ABV?$basic_string@DU?$char_traits@D@std@@V?$allocator@D@2@@std@@@Z 10018770 f   Messages.obj
 0001:00017800       ?clientPrintMsg@Messages@@YAXABV?$basic_string@DU?$char_traits@D@std@@V?$allocator@D@2@@std@@@Z 10018800 f   Messages.obj
 0001:00017890       ?sayMsg@Messages@@YAXABV?$basic_string@DU?$char_traits@D@std@@V?$allocator@D@2@@std@@H@Z 10018890 f   Messages.obj
 0001:00017a40       ?sayColor@Messages@@YAXABV?$basic_string@DU?$char_traits@D@std@@V?$allocator@D@2@@std@@@Z 10018a40 f   Messages.obj
 0001:00017c00       ?sayTell@Messages@@YAXHABV?$basic_string@DU?$char_traits@D@std@@V?$allocator@D@2@@std@@@Z 10018c00 f   Messages.obj
 0001:00017da0       ?tellAMX@Messages@@YAXHABV?$basic_string@DU?$char_traits@D@std@@V?$allocator@D@2@@std@@H@Z 10018da0 f   Messages.obj
 0001:00017f40       ?hintTell@Messages@@YAXHABV?$basic_string@DU?$char_traits@D@std@@V?$allocator@D@2@@std@@@Z 10018f40 f   Messages.obj
 0001:00018060       ?centerTell@Messages@@YAXHABV?$basic_string@DU?$char_traits@D@std@@V?$allocator@D@2@@std@@@Z 10019060 f   Messages.obj
 0001:00018180       ?timerSayMsg@Messages@@YAXABV?$basic_string@DU?$char_traits@D@std@@V?$allocator@D@2@@std@@@Z 10019180 f   Messages.obj
 0001:00018190       ?sayAMX@Messages@@YAXABV?$basic_string@DU?$char_traits@D@std@@V?$allocator@D@2@@std@@H@Z 10019190 f   Messages.obj
 0001:000181d0       ?hintMsg@Messages@@YAXABV?$basic_string@DU?$char_traits@D@std@@V?$allocator@D@2@@std@@@Z 100191d0 f   Messages.obj
 0001:00018200       ?centerMsg@Messages@@YAXABV?$basic_string@DU?$char_traits@D@std@@V?$allocator@D@2@@std@@@Z 10019200 f   Messages.obj
 0001:00018230       ?timerSayAMX@Messages@@YAXABV?$basic_string@DU?$char_traits@D@std@@V?$allocator@D@2@@std@@@Z 10019230 f   Messages.obj
 0001:00018240       ?getRatesTab@Messages@@YAXPAUedict_t@@@Z 10019240 f   Messages.obj
 0001:00018ac0       ?getDateExecution@Timer@@QBEMXZ 10019ac0 f   Timer.obj
 0001:00018ad0       ?getParametre@Timer@@QBEABV?$basic_string@DU?$char_traits@D@std@@V?$allocator@D@2@@std@@XZ 10019ad0 f   Timer.obj
 0001:00018ae0       ?estValide@Timer@@QBE_NXZ  10019ae0 f   Timer.obj
 0001:00018b00       ?put@?$num_put@DV?$ostreambuf_iterator@DU?$char_traits@D@std@@@std@@@std@@QBE?AV?$ostreambuf_iterator@DU?$char_traits@D@std@@@2@V32@AAVios_base@2@DN@Z 10019b00 f i Timer.obj
 0001:00018b40       ??0Timer@@QAE@XZ           10019b40 f   Timer.obj
 0001:00018bb0       ??0Timer@@QAE@MP6AXABV?$basic_string@DU?$char_traits@D@std@@V?$allocator@D@2@@std@@@Z0@Z 10019bb0 f   Timer.obj
 0001:00018c30       ??0Timer@@QAE@ABV0@@Z      10019c30 f   Timer.obj
 0001:00018ca0       ??4Timer@@QAEAAV0@ABV0@@Z  10019ca0 f   Timer.obj
 0001:00018cd0       ?execute@Timer@@QAEXXZ     10019cd0 f   Timer.obj
 0001:00018d10       ??6?$basic_ostream@DU?$char_traits@D@std@@@std@@QAEAAV01@M@Z 10019d10 f i Timer.obj
 0001:00018e70       ?toString@Timer@@QBE?BV?$basic_string@DU?$char_traits@D@std@@V?$allocator@D@2@@std@@XZ 10019e70 f   Timer.obj
 0001:00018f80       ??0GestionTimers@@QAE@XZ   10019f80 f   GestionTimers.obj
 0001:00018f90       ?execute@GestionTimers@@QAEXXZ 10019f90 f   GestionTimers.obj
 0001:00018fe0       ??0GestionTimers@@QAE@ABV0@@Z 10019fe0 f   GestionTimers.obj
 0001:000190b0       ??4GestionTimers@@QAEAAV0@ABV0@@Z 1001a0b0 f   GestionTimers.obj
 0001:00019180       ?purge@GestionTimers@@QAEXXZ 1001a180 f   GestionTimers.obj
 0001:00019210       ??0GestionTimers@@QAE@H@Z  1001a210 f   GestionTimers.obj
 0001:000192b0       ??_ETimer@@QAEPAXI@Z       1001a2b0 f i GestionTimers.obj
 0001:00019320       ??1GestionTimers@@QAE@XZ   1001a320 f   GestionTimers.obj
 0001:00019350       ?addTimer@GestionTimers@@QAEXABVTimer@@@Z 1001a350 f   GestionTimers.obj
 0001:00019550       ??D?$_Vector_const_iterator@V?$basic_string@DU?$char_traits@D@std@@V?$allocator@D@2@@std@@V?$allocator@V?$basic_string@DU?$char_traits@D@std@@V?$allocator@D@2@@std@@@2@@std@@QBEABV?$basic_string@DU?$char_traits@D@std@@V?$allocator@D@2@@1@XZ 1001a550 f i Authentification.obj
 0001:00019580       ??D?$_Vector_iterator@V?$basic_string@DU?$char_traits@D@std@@V?$allocator@D@2@@std@@V?$allocator@V?$basic_string@DU?$char_traits@D@std@@V?$allocator@D@2@@std@@@2@@std@@QBEAAV?$basic_string@DU?$char_traits@D@std@@V?$allocator@D@2@@1@XZ 1001a580 f i Authentification.obj
 0001:000195b0       ?capacity@?$vector@V?$basic_string@DU?$char_traits@D@std@@V?$allocator@D@2@@std@@V?$allocator@V?$basic_string@DU?$char_traits@D@std@@V?$allocator@D@2@@std@@@2@@std@@QBEIXZ 1001a5b0 f i Authentification.obj
 0001:000195e0       ?size@?$vector@V?$basic_string@DU?$char_traits@D@std@@V?$allocator@D@2@@std@@V?$allocator@V?$basic_string@DU?$char_traits@D@std@@V?$allocator@D@2@@std@@@2@@std@@QBEIXZ 1001a5e0 f i Authentification.obj
 0001:00019610       ??E?$_Vector_const_iterator@V?$basic_string@DU?$char_traits@D@std@@V?$allocator@D@2@@std@@V?$allocator@V?$basic_string@DU?$char_traits@D@std@@V?$allocator@D@2@@std@@@2@@std@@QAEAAV01@XZ 1001a610 f i Authentification.obj
 0001:00019640       ??8?$_Vector_const_iterator@V?$basic_string@DU?$char_traits@D@std@@V?$allocator@D@2@@std@@V?$allocator@V?$basic_string@DU?$char_traits@D@std@@V?$allocator@D@2@@std@@@2@@std@@QBE_NABV01@@Z 1001a640 f i Authentification.obj
 0001:00019670       ??E?$_Vector_iterator@V?$basic_string@DU?$char_traits@D@std@@V?$allocator@D@2@@std@@V?$allocator@V?$basic_string@DU?$char_traits@D@std@@V?$allocator@D@2@@std@@@2@@std@@QAEAAV01@XZ 1001a670 f i Authentification.obj
 0001:000196a0       ??0?$_Ranit@V?$basic_string@DU?$char_traits@D@std@@V?$allocator@D@2@@std@@HPBV12@ABV12@@std@@QAE@XZ 1001a6a0 f i Authentification.obj
 0001:000196b0       ??G?$_Vector_const_iterator@V?$basic_string@DU?$char_traits@D@std@@V?$allocator@D@2@@std@@V?$allocator@V?$basic_string@DU?$char_traits@D@std@@V?$allocator@D@2@@std@@@2@@std@@QBEHABV01@@Z 1001a6b0 f i Authentification.obj
 0001:000196f0       ??Y?$_Vector_const_iterator@V?$basic_string@DU?$char_traits@D@std@@V?$allocator@D@2@@std@@V?$allocator@V?$basic_string@DU?$char_traits@D@std@@V?$allocator@D@2@@std@@@2@@std@@QAEAAV01@H@Z 1001a6f0 f i Authentification.obj
 0001:00019730       ??$_Iter_random@PAV?$basic_string@DU?$char_traits@D@std@@V?$allocator@D@2@@std@@PAV12@@std@@YA?AUrandom_access_iterator_tag@0@ABQAV?$basic_string@DU?$char_traits@D@std@@V?$allocator@D@2@@0@0@Z 1001a730 f i Authentification.obj
 0001:00019740       ??$_Move_cat@PAV?$basic_string@DU?$char_traits@D@std@@V?$allocator@D@2@@std@@@std@@YA?AU_Swap_move_tag@0@ABQAV?$basic_string@DU?$char_traits@D@std@@V?$allocator@D@2@@0@@Z 1001a740 f i Authentification.obj
 0001:00019750       ??$_Checked_base@PAV?$basic_string@DU?$char_traits@D@std@@V?$allocator@D@2@@std@@@std@@YAPAV?$basic_string@DU?$char_traits@D@std@@V?$allocator@D@2@@0@AAPAV10@U_Unchanged_checked_iterator_base_type_tag@0@@Z 1001a750 f i Authentification.obj
 0001:00019760       ??$?8DD@std@@YA_NABV?$allocator@D@0@0@Z 1001a760 f i Authentification.obj
 0001:00019770       ??E?$_Vector_const_iterator@V?$basic_string@DU?$char_traits@D@std@@V?$allocator@D@2@@std@@V?$allocator@V?$basic_string@DU?$char_traits@D@std@@V?$allocator@D@2@@std@@@2@@std@@QAE?AV01@H@Z 1001a770 f i Authentification.obj
 0001:000197b0       ??9?$_Vector_const_iterator@V?$basic_string@DU?$char_traits@D@std@@V?$allocator@D@2@@std@@V?$allocator@V?$basic_string@DU?$char_traits@D@std@@V?$allocator@D@2@@std@@@2@@std@@QBE_NABV01@@Z 1001a7b0 f i Authentification.obj
 0001:000197e0       ??E?$_Vector_iterator@V?$basic_string@DU?$char_traits@D@std@@V?$allocator@D@2@@std@@V?$allocator@V?$basic_string@DU?$char_traits@D@std@@V?$allocator@D@2@@std@@@2@@std@@QAE?AV01@H@Z 1001a7e0 f i Authentification.obj
 0001:00019820       ??0?$_Vector_const_iterator@V?$basic_string@DU?$char_traits@D@std@@V?$allocator@D@2@@std@@V?$allocator@V?$basic_string@DU?$char_traits@D@std@@V?$allocator@D@2@@std@@@2@@std@@QAE@PAV?$basic_string@DU?$char_traits@D@std@@V?$allocator@D@2@@1@PBU_Container_base@1@@Z 1001a820 f i Authentification.obj
 0001:00019860       ??0?$_Vector_iterator@V?$basic_string@DU?$char_traits@D@std@@V?$allocator@D@2@@std@@V?$allocator@V?$basic_string@DU?$char_traits@D@std@@V?$allocator@D@2@@std@@@2@@std@@QAE@PAV?$basic_string@DU?$char_traits@D@std@@V?$allocator@D@2@@1@PBU_Container_base@1@@Z 1001a860 f i Authentification.obj
 0001:000198a0       ??G?$_Vector_iterator@V?$basic_string@DU?$char_traits@D@std@@V?$allocator@D@2@@std@@V?$allocator@V?$basic_string@DU?$char_traits@D@std@@V?$allocator@D@2@@std@@@2@@std@@QBEHABV?$_Vector_const_iterator@V?$basic_string@DU?$char_traits@D@std@@V?$allocator@D@2@@std@@V?$allocator@V?$basic_string@DU?$char_traits@D@std@@V?$allocator@D@2@@std@@@2@@1@@Z 1001a8a0 f i Authentification.obj
 0001:000198e0       ??Y?$_Vector_iterator@V?$basic_string@DU?$char_traits@D@std@@V?$allocator@D@2@@std@@V?$allocator@V?$basic_string@DU?$char_traits@D@std@@V?$allocator@D@2@@std@@@2@@std@@QAEAAV01@H@Z 1001a8e0 f i Authentification.obj
 0001:00019920       ??$_Checked_base@PAV?$basic_string@DU?$char_traits@D@std@@V?$allocator@D@2@@std@@@std@@YAPAV?$basic_string@DU?$char_traits@D@std@@V?$allocator@D@2@@0@AAPAV10@@Z 1001a920 f i Authentification.obj
 0001:00019930       ?begin@?$vector@V?$basic_string@DU?$char_traits@D@std@@V?$allocator@D@2@@std@@V?$allocator@V?$basic_string@DU?$char_traits@D@std@@V?$allocator@D@2@@std@@@2@@std@@QAE?AV?$_Vector_iterator@V?$basic_string@DU?$char_traits@D@std@@V?$allocator@D@2@@std@@V?$allocator@V?$basic_string@DU?$char_traits@D@std@@V?$allocator@D@2@@std@@@2@@2@XZ 1001a930 f i Authentification.obj
 0001:00019960       ?begin@?$vector@V?$basic_string@DU?$char_traits@D@std@@V?$allocator@D@2@@std@@V?$allocator@V?$basic_string@DU?$char_traits@D@std@@V?$allocator@D@2@@std@@@2@@std@@QBE?AV?$_Vector_const_iterator@V?$basic_string@DU?$char_traits@D@std@@V?$allocator@D@2@@std@@V?$allocator@V?$basic_string@DU?$char_traits@D@std@@V?$allocator@D@2@@std@@@2@@2@XZ 1001a960 f i Authentification.obj
 0001:00019990       ?end@?$vector@V?$basic_string@DU?$char_traits@D@std@@V?$allocator@D@2@@std@@V?$allocator@V?$basic_string@DU?$char_traits@D@std@@V?$allocator@D@2@@std@@@2@@std@@QAE?AV?$_Vector_iterator@V?$basic_string@DU?$char_traits@D@std@@V?$allocator@D@2@@std@@V?$allocator@V?$basic_string@DU?$char_traits@D@std@@V?$allocator@D@2@@std@@@2@@2@XZ 1001a990 f i Authentification.obj
 0001:000199c0       ?end@?$vector@V?$basic_string@DU?$char_traits@D@std@@V?$allocator@D@2@@std@@V?$allocator@V?$basic_string@DU?$char_traits@D@std@@V?$allocator@D@2@@std@@@2@@std@@QBE?AV?$_Vector_const_iterator@V?$basic_string@DU?$char_traits@D@std@@V?$allocator@D@2@@std@@V?$allocator@V?$basic_string@DU?$char_traits@D@std@@V?$allocator@D@2@@std@@@2@@2@XZ 1001a9c0 f i Authentification.obj
 0001:000199f0       ??H?$_Vector_iterator@V?$basic_string@DU?$char_traits@D@std@@V?$allocator@D@2@@std@@V?$allocator@V?$basic_string@DU?$char_traits@D@std@@V?$allocator@D@2@@std@@@2@@std@@QBE?AV01@H@Z 1001a9f0 f i Authentification.obj
 0001:00019a30       ?estAdmin@Authentification@@QBE_NABV?$basic_string@DU?$char_traits@D@std@@V?$allocator@D@2@@std@@@Z 1001aa30 f   Authentification.obj
 0001:00019b20       ??$_Construct@V?$basic_string@DU?$char_traits@D@std@@V?$allocator@D@2@@std@@V12@@std@@YAXPAV?$basic_string@DU?$char_traits@D@std@@V?$allocator@D@2@@0@ABV10@@Z 1001ab20 f i Authentification.obj
 0001:00019b90       ??$_Fill@PAV?$basic_string@DU?$char_traits@D@std@@V?$allocator@D@2@@std@@V12@@std@@YAXPAV?$basic_string@DU?$char_traits@D@std@@V?$allocator@D@2@@0@0ABV10@@Z 1001ab90 f i Authentification.obj
 0001:00019bc0       ?construct@?$allocator@V?$basic_string@DU?$char_traits@D@std@@V?$allocator@D@2@@std@@@std@@QAEXPAV?$basic_string@DU?$char_traits@D@std@@V?$allocator@D@2@@2@ABV32@@Z 1001abc0 f i Authentification.obj
 0001:00019be0       ??$_Copy_opt@PAV?$basic_string@DU?$char_traits@D@std@@V?$allocator@D@2@@std@@PAV12@Uforward_iterator_tag@2@@std@@YAPAV?$basic_string@DU?$char_traits@D@std@@V?$allocator@D@2@@0@PAV10@00Uforward_iterator_tag@0@U_Nonscalar_ptr_iterator_tag@0@U_Range_checked_iterator_tag@0@@Z 1001abe0 f i Authentification.obj
 0001:00019c20       ?swap@?$basic_string@DU?$char_traits@D@std@@V?$allocator@D@2@@std@@QAEXAAV12@@Z 1001ac20 f i Authentification.obj
 0001:00019c90       ?logAdminlist@Authentification@@QBEXXZ 1001ac90 f   Authentification.obj
 0001:00019df0       ??$fill@PAV?$basic_string@DU?$char_traits@D@std@@V?$allocator@D@2@@std@@V12@@std@@YAXPAV?$basic_string@DU?$char_traits@D@std@@V?$allocator@D@2@@0@0ABV10@@Z 1001adf0 f i Authentification.obj
 0001:00019e20       ??$_Copy_opt@PAV?$basic_string@DU?$char_traits@D@std@@V?$allocator@D@2@@std@@PAV12@@std@@YAPAV?$basic_string@DU?$char_traits@D@std@@V?$allocator@D@2@@0@PAV10@00Urandom_access_iterator_tag@0@U_Nonscalar_ptr_iterator_tag@0@U_Range_checked_iterator_tag@0@@Z 1001ae20 f i Authentification.obj
 0001:00019e80       ??$_Uninit_fill_n@PAV?$basic_string@DU?$char_traits@D@std@@V?$allocator@D@2@@std@@IV12@V?$allocator@V?$basic_string@DU?$char_traits@D@std@@V?$allocator@D@2@@std@@@2@@std@@YAXPAV?$basic_string@DU?$char_traits@D@std@@V?$allocator@D@2@@0@IABV10@AAV?$allocator@V?$basic_string@DU?$char_traits@D@std@@V?$allocator@D@2@@std@@@0@U_Nonscalar_ptr_iterator_tag@0@U_Range_checked_iterator_tag@0@@Z 1001ae80 f i Authentification.obj
 0001:00019f40       ??$swap@DU?$char_traits@D@std@@V?$allocator@D@2@@std@@YAXAAV?$basic_string@DU?$char_traits@D@std@@V?$allocator@D@2@@0@0@Z 1001af40 f i Authentification.obj
 0001:00019f50       ??$unchecked_copy@PAV?$basic_string@DU?$char_traits@D@std@@V?$allocator@D@2@@std@@PAV12@@stdext@@YAPAV?$basic_string@DU?$char_traits@D@std@@V?$allocator@D@2@@std@@PAV12@00@Z 1001af50 f i Authentification.obj
 0001:00019f80       ??$unchecked_uninitialized_fill_n@PAV?$basic_string@DU?$char_traits@D@std@@V?$allocator@D@2@@std@@IV12@V?$allocator@V?$basic_string@DU?$char_traits@D@std@@V?$allocator@D@2@@std@@@2@@stdext@@YAXPAV?$basic_string@DU?$char_traits@D@std@@V?$allocator@D@2@@std@@IABV12@AAV?$allocator@V?$basic_string@DU?$char_traits@D@std@@V?$allocator@D@2@@std@@@2@@Z 1001af80 f i Authentification.obj
 0001:00019fb0       ??$_Uninit_move@PAV?$basic_string@DU?$char_traits@D@std@@V?$allocator@D@2@@std@@PAV12@V?$allocator@V?$basic_string@DU?$char_traits@D@std@@V?$allocator@D@2@@std@@@2@@std@@YAPAV?$basic_string@DU?$char_traits@D@std@@V?$allocator@D@2@@0@PAV10@00AAV?$allocator@V?$basic_string@DU?$char_traits@D@std@@V?$allocator@D@2@@std@@@0@U_Swap_move_tag@0@U_Range_checked_iterator_tag@0@@Z 1001afb0 f i Authentification.obj
 0001:0001a0f0       ??$_Move_backward_opt@PAV?$basic_string@DU?$char_traits@D@std@@V?$allocator@D@2@@std@@PAV12@Uforward_iterator_tag@2@@std@@YAPAV?$basic_string@DU?$char_traits@D@std@@V?$allocator@D@2@@0@PAV10@00Uforward_iterator_tag@0@U_Swap_move_tag@0@U_Range_checked_iterator_tag@0@@Z 1001b0f0 f i Authentification.obj
 0001:0001a180       ?erase@?$vector@V?$basic_string@DU?$char_traits@D@std@@V?$allocator@D@2@@std@@V?$allocator@V?$basic_string@DU?$char_traits@D@std@@V?$allocator@D@2@@std@@@2@@std@@QAE?AV?$_Vector_iterator@V?$basic_string@DU?$char_traits@D@std@@V?$allocator@D@2@@std@@V?$allocator@V?$basic_string@DU?$char_traits@D@std@@V?$allocator@D@2@@std@@@2@@2@V32@@Z 1001b180 f i Authentification.obj
 0001:0001a1e0       ?_Ufill@?$vector@V?$basic_string@DU?$char_traits@D@std@@V?$allocator@D@2@@std@@V?$allocator@V?$basic_string@DU?$char_traits@D@std@@V?$allocator@D@2@@std@@@2@@std@@IAEPAV?$basic_string@DU?$char_traits@D@std@@V?$allocator@D@2@@2@PAV32@IABV32@@Z 1001b1e0 f i Authentification.obj
 0001:0001a220       ??$_Unchecked_uninitialized_move@PAV?$basic_string@DU?$char_traits@D@std@@V?$allocator@D@2@@std@@PAV12@V?$allocator@V?$basic_string@DU?$char_traits@D@std@@V?$allocator@D@2@@std@@@2@@stdext@@YAPAV?$basic_string@DU?$char_traits@D@std@@V?$allocator@D@2@@std@@PAV12@00AAV?$allocator@V?$basic_string@DU?$char_traits@D@std@@V?$allocator@D@2@@std@@@2@@Z 1001b220 f i Authentification.obj
 0001:0001a250       ??$_Move_backward_opt@PAV?$basic_string@DU?$char_traits@D@std@@V?$allocator@D@2@@std@@PAV12@@std@@YAPAV?$basic_string@DU?$char_traits@D@std@@V?$allocator@D@2@@0@PAV10@00Urandom_access_iterator_tag@0@U_Swap_move_tag@0@U_Range_checked_iterator_tag@0@@Z 1001b250 f i Authentification.obj
 0001:0001a2b0       ?removeAdmin@Authentification@@QAE_NABV?$basic_string@DU?$char_traits@D@std@@V?$allocator@D@2@@std@@@Z 1001b2b0 f   Authentification.obj
 0001:0001a3f0       ??$_Umove@PAV?$basic_string@DU?$char_traits@D@std@@V?$allocator@D@2@@std@@@?$vector@V?$basic_string@DU?$char_traits@D@std@@V?$allocator@D@2@@std@@V?$allocator@V?$basic_string@DU?$char_traits@D@std@@V?$allocator@D@2@@std@@@2@@std@@IAEPAV?$basic_string@DU?$char_traits@D@std@@V?$allocator@D@2@@1@PAV21@00@Z 1001b3f0 f i Authentification.obj
 0001:0001a420       ??$_Unchecked_move_backward@PAV?$basic_string@DU?$char_traits@D@std@@V?$allocator@D@2@@std@@PAV12@@stdext@@YAPAV?$basic_string@DU?$char_traits@D@std@@V?$allocator@D@2@@std@@PAV12@00@Z 1001b420 f i Authentification.obj
 0001:0001a450       ?_Insert_n@?$vector@V?$basic_string@DU?$char_traits@D@std@@V?$allocator@D@2@@std@@V?$allocator@V?$basic_string@DU?$char_traits@D@std@@V?$allocator@D@2@@std@@@2@@std@@IAEXV?$_Vector_iterator@V?$basic_string@DU?$char_traits@D@std@@V?$allocator@D@2@@std@@V?$allocator@V?$basic_string@DU?$char_traits@D@std@@V?$allocator@D@2@@std@@@2@@2@IABV?$basic_string@DU?$char_traits@D@std@@V?$allocator@D@2@@2@@Z 1001b450 f i Authentification.obj
 0001:0001a7b0       ?insert@?$vector@V?$basic_string@DU?$char_traits@D@std@@V?$allocator@D@2@@std@@V?$allocator@V?$basic_string@DU?$char_traits@D@std@@V?$allocator@D@2@@std@@@2@@std@@QAE?AV?$_Vector_iterator@V?$basic_string@DU?$char_traits@D@std@@V?$allocator@D@2@@std@@V?$allocator@V?$basic_string@DU?$char_traits@D@std@@V?$allocator@D@2@@std@@@2@@2@V32@ABV?$basic_string@DU?$char_traits@D@std@@V?$allocator@D@2@@2@@Z 1001b7b0 f i Authentification.obj
 0001:0001a870       ?push_back@?$vector@V?$basic_string@DU?$char_traits@D@std@@V?$allocator@D@2@@std@@V?$allocator@V?$basic_string@DU?$char_traits@D@std@@V?$allocator@D@2@@std@@@2@@std@@QAEXABV?$basic_string@DU?$char_traits@D@std@@V?$allocator@D@2@@2@@Z 1001b870 f i Authentification.obj
 0001:0001a920       ?addAdmin@Authentification@@QAE_NABV?$basic_string@DU?$char_traits@D@std@@V?$allocator@D@2@@std@@@Z 1001b920 f   Authentification.obj
 0001:0001a950       ?parseAdminlist@Authentification@@QAE_NABV?$basic_string@DU?$char_traits@D@std@@V?$allocator@D@2@@std@@@Z 1001b950 f   Authentification.obj
 0001:0001ab80       ??0GestionMenus@@AAE@XZ    1001bb80 f   GestionMenus.obj
 0001:0001ab90       ??1GestionMenus@@AAE@XZ    1001bb90 f   GestionMenus.obj
 0001:0001aba0       ?getMenus@GestionMenus@@SAPAV1@XZ 1001bba0 f   GestionMenus.obj
 0001:0001abc0       ??_GGestionMenus@@AAEPAXI@Z 1001bbc0 f i GestionMenus.obj
 0001:0001abe0       ?quitteMenu@GestionMenus@@QAEXH@Z 1001bbe0 f   GestionMenus.obj
 0001:0001ac10       ?killMenus@GestionMenus@@SAXXZ 1001bc10 f   GestionMenus.obj
 0001:0001ac30       ?phase_cutround_choix@@YAXHH@Z 1001bc30 f   GestionMenus.obj
 0001:0001ad90       ?phase_strats_choix@@YAXHH@Z 1001bd90 f   GestionMenus.obj
 0001:0001aee0       ?phase_match_choix@@YAXHH@Z 1001bee0 f   GestionMenus.obj
 0001:0001b030       ?initialiseMenuChoixCutRound@GestionMenus@@AAEXXZ 1001c030 f   GestionMenus.obj
 0001:0001b1b0       ?initialiseMenuChoixStrats@GestionMenus@@AAEXXZ 1001c1b0 f   GestionMenus.obj
 0001:0001b330       ?initialiseMenuOff@GestionMenus@@AAEXXZ 1001c330 f   GestionMenus.obj
 0001:0001b470       ?initialiseMenuCutRound@GestionMenus@@AAEXXZ 1001c470 f   GestionMenus.obj
 0001:0001b640       ?initialiseMenuStratsTime@GestionMenus@@AAEXXZ 1001c640 f   GestionMenus.obj
 0001:0001b850       ?initialiseMenuMatch@GestionMenus@@AAEXXZ 1001c850 f   GestionMenus.obj
 0001:0001ba60       ?initialiseMenuConfiguration@GestionMenus@@AAEXXZ 1001ca60 f   GestionMenus.obj
 0001:0001bb20       ?initialiseMenuAdministration@GestionMenus@@AAEXXZ 1001cb20 f   GestionMenus.obj
 0001:0001bd80       ?initialiseMenuChangelevel@GestionMenus@@AAEXXZ 1001cd80 f   GestionMenus.obj
 0001:0001be40       ?initialiseMenuSwap@GestionMenus@@AAEXXZ 1001ce40 f   GestionMenus.obj
 0001:0001bf00       ?initialiseMenuSpec@GestionMenus@@AAEXXZ 1001cf00 f   GestionMenus.obj
 0001:0001bfc0       ?initialiseMenuKick@GestionMenus@@AAEXXZ 1001cfc0 f   GestionMenus.obj
 0001:0001c080       ?initialiseMenuBan@GestionMenus@@AAEXXZ 1001d080 f   GestionMenus.obj
 0001:0001c140       ?initialiseMenuBanTime@GestionMenus@@AAEXXZ 1001d140 f   GestionMenus.obj
 0001:0001c310       ?actionMenu@GestionMenus@@QAEXHH@Z 1001d310 f   GestionMenus.obj
 0001:0001c400       ?afficheMenuSuivant@GestionMenus@@QAEXH@Z 1001d400 f   GestionMenus.obj
 0001:0001c550       ?afficheMenuRef@GestionMenus@@QAEXAAVMenu@@H@Z 1001d550 f   GestionMenus.obj
 0001:0001c750       ?afficheMenuPrecedent@GestionMenus@@QAEXH@Z 1001d750 f   GestionMenus.obj
 0001:0001c8d0       ?cutround_question_choix@@YAXHH@Z 1001d8d0 f   GestionMenus.obj
 0001:0001ca20       ?strats_question_choix@@YAXHH@Z 1001da20 f   GestionMenus.obj
 0001:0001cb70       ?phase_off_choix@@YAXHH@Z  1001db70 f   GestionMenus.obj
 0001:0001cca0       ?configurations_choix@@YAXHH@Z 1001dca0 f   GestionMenus.obj
 0001:0001ce80       ?phase_off_choixAvecAdmin@@YAXHH@Z 1001de80 f   GestionMenus.obj
 0001:0001cfc0       ?phase_cutround_choixAvecAdmin@@YAXHH@Z 1001dfc0 f   GestionMenus.obj
 0001:0001d170       ?phase_strats_choixAvecAdmin@@YAXHH@Z 1001e170 f   GestionMenus.obj
 0001:0001d330       ?phase_match_choixAvecAdmin@@YAXHH@Z 1001e330 f   GestionMenus.obj
 0001:0001d4f0       ?administration_choix@@YAXHH@Z 1001e4f0 f   GestionMenus.obj
 0001:0001d690       ?admin_changelevel_choix@@YAXHH@Z 1001e690 f   GestionMenus.obj
 0001:0001d8b0       ?admin_swap_choix@@YAXHH@Z 1001e8b0 f   GestionMenus.obj
 0001:0001db70       ?admin_spec_choix@@YAXHH@Z 1001eb70 f   GestionMenus.obj
 0001:0001de30       ?admin_kick_choix@@YAXHH@Z 1001ee30 f   GestionMenus.obj
 0001:0001e130       ?admin_ban_choix@@YAXHH@Z  1001f130 f   GestionMenus.obj
 0001:0001e350       ?admin_ban_time_choix@@YAXHH@Z 1001f350 f   GestionMenus.obj
 0001:0001e8c0       ?initialiseMenus@GestionMenus@@QAEXXZ 1001f8c0 f   GestionMenus.obj
 0001:0001e9d0       ?initialiseMenusAvecAdministration@GestionMenus@@QAEXXZ 1001f9d0 f   GestionMenus.obj
 0001:0001ecd0       ?afficheMenuAlltalkOption@GestionMenus@@SAXAAVMenu@@HH@Z 1001fcd0 f   GestionMenus.obj
 0001:0001eef0       ?afficheMenuSansAdministration@GestionMenus@@AAEXW4CodePhase@@H@Z 1001fef0 f   GestionMenus.obj
 0001:0001ef80       ?afficheMenuAvecAdministration@GestionMenus@@AAEXW4CodePhase@@H@Z 1001ff80 f   GestionMenus.obj
 0001:0001f010       ?afficheMenu@GestionMenus@@QAEXW4CodePhase@@H@Z 10020010 f   GestionMenus.obj
 0001:0001f030       ?decTempsRestant@Decompte@@QAEHXZ 10020030 f   Decompte.obj
 0001:0001f040       ?finDecompte@Decompte@@QAEXXZ 10020040 f   Decompte.obj
 0001:0001f070       ?getTempsRestant@Decompte@@QAEHXZ 10020070 f   Decompte.obj
 0001:0001f080       ?getMoteur@Decompte@@QAEPAVGestionTimers@@XZ 10020080 f   Decompte.obj
 0001:0001f090       ??1Decompte@@AAE@XZ        10020090 f   Decompte.obj
 0001:0001f100       ??_GDecompte@@AAEPAXI@Z    10020100 f i Decompte.obj
 0001:0001f120       ?killDecompte@Decompte@@SAXXZ 10020120 f   Decompte.obj
 0001:0001f150       ??0Decompte@@AAE@XZ        10020150 f   Decompte.obj
 0001:0001f1f0       ?getDecompte@Decompte@@SAPAV1@XZ 100201f0 f   Decompte.obj
 0001:0001f270       ?termineDecompte@@YAXABV?$basic_string@DU?$char_traits@D@std@@V?$allocator@D@2@@std@@@Z 10020270 f   Decompte.obj
 0001:0001f2a0       ?afficheDecompte@@YAXABV?$basic_string@DU?$char_traits@D@std@@V?$allocator@D@2@@std@@@Z 100202a0 f   Decompte.obj
 0001:0001f4d0       ?lanceDecompte@Decompte@@QAEXHP6AXABV?$basic_string@DU?$char_traits@D@std@@V?$allocator@D@2@@std@@@Z0@Z 100204d0 f   Decompte.obj
 0001:0001f590       ??4Joueur@@QAEAAV0@ABV0@@Z 10020590 f i GestionJoueurs.obj
 0001:0001f5e0       ?size@?$vector@VJoueur@@V?$allocator@VJoueur@@@std@@@std@@QBEIXZ 100205e0 f i GestionJoueurs.obj
 0001:0001f600       ??0?$allocator@VJoueur@@@std@@QAE@XZ 10020600 f i GestionJoueurs.obj
 0001:0001f610       ??8?$_Vector_const_iterator@VJoueur@@V?$allocator@VJoueur@@@std@@@std@@QBE_NABV01@@Z 10020610 f i GestionJoueurs.obj
 0001:0001f640       ??0?$allocator@VJoueur@@@std@@QAE@ABV01@@Z 10020640 f i GestionJoueurs.obj
 0001:0001f650       ?deallocate@?$allocator@VJoueur@@@std@@QAEXPAVJoueur@@I@Z 10020650 f i GestionJoueurs.obj
 0001:0001f660       ??D?$_Vector_const_iterator@VJoueur@@V?$allocator@VJoueur@@@std@@@std@@QBEABVJoueur@@XZ 10020660 f i GestionJoueurs.obj
 0001:0001f690       ??E?$_Vector_const_iterator@VJoueur@@V?$allocator@VJoueur@@@std@@@std@@QAEAAV01@XZ 10020690 f i GestionJoueurs.obj
 0001:0001f6c0       ??0?$_Ranit@VJoueur@@HPBV1@ABV1@@std@@QAE@XZ 100206c0 f i GestionJoueurs.obj
 0001:0001f6d0       ?capacity@?$vector@VJoueur@@V?$allocator@VJoueur@@@std@@@std@@QBEIXZ 100206d0 f i GestionJoueurs.obj
 0001:0001f6f0       ?max_size@?$allocator@VJoueur@@@std@@QBEIXZ 100206f0 f i GestionJoueurs.obj
 0001:0001f700       ??Y?$_Vector_const_iterator@VJoueur@@V?$allocator@VJoueur@@@std@@@std@@QAEAAV01@H@Z 10020700 f i GestionJoueurs.obj
 0001:0001f740       ??$_Allocate@VJoueur@@@std@@YAPAVJoueur@@IPAV1@@Z 10020740 f i GestionJoueurs.obj
 0001:0001f7a0       ??$_Iter_random@PAVJoueur@@PAV1@@std@@YA?AUrandom_access_iterator_tag@0@ABQAVJoueur@@0@Z 100207a0 f i GestionJoueurs.obj
 0001:0001f7b0       ??$_Ptr_cat@PAVJoueur@@PAV1@@std@@YA?AU_Nonscalar_ptr_iterator_tag@0@AAPAVJoueur@@0@Z 100207b0 f i GestionJoueurs.obj
 0001:0001f7c0       ??$_Fill@PAVJoueur@@V1@@std@@YAXPAVJoueur@@0ABV1@@Z 100207c0 f i GestionJoueurs.obj
 0001:0001f820       ??$_Move_cat@PAVJoueur@@@std@@YA?AU_Undefined_move_tag@0@ABQAVJoueur@@@Z 10020820 f i GestionJoueurs.obj
 0001:0001f830       ??$_Checked_base@PAVJoueur@@@std@@YAPAVJoueur@@AAPAV1@U_Unchanged_checked_iterator_base_type_tag@0@@Z 10020830 f i GestionJoueurs.obj
 0001:0001f840       ??$_Copy_opt@PAVJoueur@@PAV1@Uforward_iterator_tag@std@@@std@@YAPAVJoueur@@PAV1@00Uforward_iterator_tag@0@U_Nonscalar_ptr_iterator_tag@0@U_Range_checked_iterator_tag@0@@Z 10020840 f i GestionJoueurs.obj
 0001:0001f8b0       ??$_Copy_backward_opt@PAVJoueur@@PAV1@Uforward_iterator_tag@std@@@std@@YAPAVJoueur@@PAV1@00Uforward_iterator_tag@0@U_Nonscalar_ptr_iterator_tag@0@U_Range_checked_iterator_tag@0@@Z 100208b0 f i GestionJoueurs.obj
 0001:0001f920       ??A?$vector@VJoueur@@V?$allocator@VJoueur@@@std@@@std@@QAEAAVJoueur@@I@Z 10020920 f i GestionJoueurs.obj
 0001:0001f960       ??9?$_Vector_const_iterator@VJoueur@@V?$allocator@VJoueur@@@std@@@std@@QBE_NABV01@@Z 10020960 f i GestionJoueurs.obj
 0001:0001f990       ??0?$_Vector_val@VJoueur@@V?$allocator@VJoueur@@@std@@@std@@IAE@V?$allocator@VJoueur@@@1@@Z 10020990 f i GestionJoueurs.obj
 0001:0001f9a0       ??D?$_Vector_iterator@VJoueur@@V?$allocator@VJoueur@@@std@@@std@@QBEAAVJoueur@@XZ 100209a0 f i GestionJoueurs.obj
 0001:0001f9d0       ??E?$_Vector_iterator@VJoueur@@V?$allocator@VJoueur@@@std@@@std@@QAEAAV01@XZ 100209d0 f i GestionJoueurs.obj
 0001:0001fa00       ?max_size@?$vector@VJoueur@@V?$allocator@VJoueur@@@std@@@std@@QBEIXZ 10020a00 f i GestionJoueurs.obj
 0001:0001fa10       ?allocate@?$allocator@VJoueur@@@std@@QAEPAVJoueur@@I@Z 10020a10 f i GestionJoueurs.obj
 0001:0001fa30       ??0?$_Vector_const_iterator@VJoueur@@V?$allocator@VJoueur@@@std@@@std@@QAE@PAVJoueur@@PBU_Container_base@1@@Z 10020a30 f i GestionJoueurs.obj
 0001:0001fa70       ??Y?$_Vector_iterator@VJoueur@@V?$allocator@VJoueur@@@std@@@std@@QAEAAV01@H@Z 10020a70 f i GestionJoueurs.obj
 0001:0001fab0       ??$_Checked_base@PAVJoueur@@@std@@YAPAVJoueur@@AAPAV1@@Z 10020ab0 f i GestionJoueurs.obj
 0001:0001fac0       ??$_Copy_opt@PAVJoueur@@PAV1@@std@@YAPAVJoueur@@PAV1@00Urandom_access_iterator_tag@0@U_Nonscalar_ptr_iterator_tag@0@U_Range_checked_iterator_tag@0@@Z 10020ac0 f i GestionJoueurs.obj
 0001:0001fb20       ??$_Copy_backward_opt@PAVJoueur@@PAV1@@std@@YAPAVJoueur@@PAV1@00Urandom_access_iterator_tag@0@U_Nonscalar_ptr_iterator_tag@0@U_Range_checked_iterator_tag@0@@Z 10020b20 f i GestionJoueurs.obj
 0001:0001fb80       ??C?$_Vector_iterator@VJoueur@@V?$allocator@VJoueur@@@std@@@std@@QBEPAVJoueur@@XZ 10020b80 f i GestionJoueurs.obj
 0001:0001fbb0       ??E?$_Vector_iterator@VJoueur@@V?$allocator@VJoueur@@@std@@@std@@QAE?AV01@H@Z 10020bb0 f i GestionJoueurs.obj
 0001:0001fbf0       ??0?$_Vector_iterator@VJoueur@@V?$allocator@VJoueur@@@std@@@std@@QAE@PAVJoueur@@PBU_Container_base@1@@Z 10020bf0 f i GestionJoueurs.obj
 0001:0001fc30       ??H?$_Vector_iterator@VJoueur@@V?$allocator@VJoueur@@@std@@@std@@QBE?AV01@H@Z 10020c30 f i GestionJoueurs.obj
 0001:0001fc70       ??$unchecked_copy@PAVJoueur@@PAV1@@stdext@@YAPAVJoueur@@PAV1@00@Z 10020c70 f i GestionJoueurs.obj
 0001:0001fca0       ??$fill@PAVJoueur@@V1@@std@@YAXPAVJoueur@@0ABV1@@Z 10020ca0 f i GestionJoueurs.obj
 0001:0001fcb0       ??$_Move_backward_opt@PAVJoueur@@PAV1@Urandom_access_iterator_tag@std@@U_Undefined_move_tag@3@@std@@YAPAVJoueur@@PAV1@00Urandom_access_iterator_tag@0@U_Undefined_move_tag@0@U_Range_checked_iterator_tag@0@@Z 10020cb0 f i GestionJoueurs.obj
 0001:0001fcd0       ?begin@?$vector@VJoueur@@V?$allocator@VJoueur@@@std@@@std@@QAE?AV?$_Vector_iterator@VJoueur@@V?$allocator@VJoueur@@@std@@@2@XZ 10020cd0 f i GestionJoueurs.obj
 0001:0001fd00       ?end@?$vector@VJoueur@@V?$allocator@VJoueur@@@std@@@std@@QAE?AV?$_Vector_iterator@VJoueur@@V?$allocator@VJoueur@@@std@@@2@XZ 10020d00 f i GestionJoueurs.obj
 0001:0001fd30       ??$_Unchecked_move_backward@PAVJoueur@@PAV1@@stdext@@YAPAVJoueur@@PAV1@00@Z 10020d30 f i GestionJoueurs.obj
 0001:0001fd60       ?sauvStatsRound@GestionJoueurs@@QAEXXZ 10020d60 f   GestionJoueurs.obj
 0001:0001fdb0       ?restaureStatsRound@GestionJoueurs@@QAEXXZ 10020db0 f   GestionJoueurs.obj
 0001:0001fe00       ?sauvStatsManche@GestionJoueurs@@QAEXXZ 10020e00 f   GestionJoueurs.obj
 0001:0001fe50       ?restaureStatsManche@GestionJoueurs@@QAEXXZ 10020e50 f   GestionJoueurs.obj
 0001:0001fea0       ?_Xlen@?$vector@VJoueur@@V?$allocator@VJoueur@@@std@@@std@@KAXXZ 10020ea0 f i GestionJoueurs.obj
 0001:0001ff20       ?getJoueur@GestionJoueurs@@QAEPAVJoueur@@H@Z 10020f20 f   GestionJoueurs.obj
 0001:00020000       ?_Buy@?$vector@VJoueur@@V?$allocator@VJoueur@@@std@@@std@@IAE_NI@Z 10021000 f i GestionJoueurs.obj
 0001:00020050       ??0?$vector@VJoueur@@V?$allocator@VJoueur@@@std@@@std@@QAE@XZ 10021050 f i GestionJoueurs.obj
 0001:00020060       ??0Joueur@@QAE@ABV0@@Z     10021060 f i GestionJoueurs.obj
 0001:000200b0       ??$_Construct@VJoueur@@V1@@std@@YAXPAVJoueur@@ABV1@@Z 100210b0 f i GestionJoueurs.obj
 0001:00020110       ?construct@?$allocator@VJoueur@@@std@@QAEXPAVJoueur@@ABV3@@Z 10021110 f i GestionJoueurs.obj
 0001:00020130       ??_GJoueur@@QAEPAXI@Z      10021130 f i GestionJoueurs.obj
 0001:00020160       ?connexion@GestionJoueurs@@QAEXH@Z 10021160 f   GestionJoueurs.obj
 0001:00020200       ??$_Destroy@VJoueur@@@std@@YAXPAVJoueur@@@Z 10021200 f i GestionJoueurs.obj
 0001:00020210       ?destroy@?$allocator@VJoueur@@@std@@QAEXPAVJoueur@@@Z 10021210 f i GestionJoueurs.obj
 0001:00020220       ??$_Uninit_copy@PAVJoueur@@PAV1@V?$allocator@VJoueur@@@std@@@std@@YAPAVJoueur@@PAV1@00AAV?$allocator@VJoueur@@@0@U_Nonscalar_ptr_iterator_tag@0@U_Range_checked_iterator_tag@0@@Z 10021220 f i GestionJoueurs.obj
 0001:00020300       ??$_Destroy_range@VJoueur@@V?$allocator@VJoueur@@@std@@@std@@YAXPAVJoueur@@0AAV?$allocator@VJoueur@@@0@U_Nonscalar_ptr_iterator_tag@0@@Z 10021300 f i GestionJoueurs.obj
 0001:00020370       ??$_Uninit_fill_n@PAVJoueur@@IV1@V?$allocator@VJoueur@@@std@@@std@@YAXPAVJoueur@@IABV1@AAV?$allocator@VJoueur@@@0@U_Nonscalar_ptr_iterator_tag@0@U_Range_checked_iterator_tag@0@@Z 10021370 f i GestionJoueurs.obj
 0001:00020450       ??$unchecked_uninitialized_copy@PAVJoueur@@PAV1@V?$allocator@VJoueur@@@std@@@stdext@@YAPAVJoueur@@PAV1@00AAV?$allocator@VJoueur@@@std@@@Z 10021450 f i GestionJoueurs.obj
 0001:00020480       ??$_Destroy_range@VJoueur@@V?$allocator@VJoueur@@@std@@@std@@YAXPAVJoueur@@0AAV?$allocator@VJoueur@@@0@@Z 10021480 f i GestionJoueurs.obj
 0001:000204a0       ??$unchecked_uninitialized_fill_n@PAVJoueur@@IV1@V?$allocator@VJoueur@@@std@@@stdext@@YAXPAVJoueur@@IABV1@AAV?$allocator@VJoueur@@@std@@@Z 100214a0 f i GestionJoueurs.obj
 0001:000204d0       ??$_Uninit_move@PAVJoueur@@PAV1@V?$allocator@VJoueur@@@std@@U_Undefined_move_tag@3@@std@@YAPAVJoueur@@PAV1@00AAV?$allocator@VJoueur@@@0@U_Undefined_move_tag@0@U_Range_checked_iterator_tag@0@@Z 100214d0 f i GestionJoueurs.obj
 0001:000204f0       ?_Destroy@?$vector@VJoueur@@V?$allocator@VJoueur@@@std@@@std@@IAEXPAVJoueur@@0@Z 100214f0 f i GestionJoueurs.obj
 0001:00020510       ?_Ufill@?$vector@VJoueur@@V?$allocator@VJoueur@@@std@@@std@@IAEPAVJoueur@@PAV3@IABV3@@Z 10021510 f i GestionJoueurs.obj
 0001:00020550       ??$_Unchecked_uninitialized_move@PAVJoueur@@PAV1@V?$allocator@VJoueur@@@std@@@stdext@@YAPAVJoueur@@PAV1@00AAV?$allocator@VJoueur@@@std@@@Z 10021550 f i GestionJoueurs.obj
 0001:00020580       ?_Tidy@?$vector@VJoueur@@V?$allocator@VJoueur@@@std@@@std@@IAEXXZ 10021580 f i GestionJoueurs.obj
 0001:000205c0       ?erase@?$vector@VJoueur@@V?$allocator@VJoueur@@@std@@@std@@QAE?AV?$_Vector_iterator@VJoueur@@V?$allocator@VJoueur@@@std@@@2@V32@0@Z 100215c0 f i GestionJoueurs.obj
 0001:00020630       ??$_Umove@PAVJoueur@@@?$vector@VJoueur@@V?$allocator@VJoueur@@@std@@@std@@IAEPAVJoueur@@PAV2@00@Z 10021630 f i GestionJoueurs.obj
 0001:00020660       ??1?$vector@VJoueur@@V?$allocator@VJoueur@@@std@@@std@@QAE@XZ 10021660 f i GestionJoueurs.obj
 0001:000206a0       ?_Insert_n@?$vector@VJoueur@@V?$allocator@VJoueur@@@std@@@std@@IAEXV?$_Vector_iterator@VJoueur@@V?$allocator@VJoueur@@@std@@@2@IABVJoueur@@@Z 100216a0 f i GestionJoueurs.obj
 0001:000209e0       ??0GestionJoueurs@@AAE@XZ  100219e0 f   GestionJoueurs.obj
 0001:000209f0       ??1GestionJoueurs@@AAE@XZ  100219f0 f   GestionJoueurs.obj
 0001:00020a30       ?getPlayerList@GestionJoueurs@@SAPAV1@XZ 10021a30 f   GestionJoueurs.obj
 0001:00020ab0       ??_GGestionJoueurs@@AAEPAXI@Z 10021ab0 f i GestionJoueurs.obj
 0001:00020b10       ?resize@?$vector@VJoueur@@V?$allocator@VJoueur@@@std@@@std@@QAEXIVJoueur@@@Z 10021b10 f i GestionJoueurs.obj
 0001:00020c30       ?killGestionJoueurs@GestionJoueurs@@SAXXZ 10021c30 f   GestionJoueurs.obj
 0001:00020c90       ?resize@?$vector@VJoueur@@V?$allocator@VJoueur@@@std@@@std@@QAEXI@Z 10021c90 f i GestionJoueurs.obj
 0001:00020cc0       ?setTaillePlayerList@GestionJoueurs@@QAEXH@Z 10021cc0 f   GestionJoueurs.obj
 0001:000219e0       ?capacity@?$vector@HV?$allocator@H@std@@@std@@QBEIXZ 100229e0 f i Rapport.obj
 0001:00021a00       ?size@?$vector@HV?$allocator@H@std@@@std@@QBEIXZ 10022a00 f i Rapport.obj
 0001:00021a20       ??0?$allocator@H@std@@QAE@XZ 10022a20 f i Rapport.obj
 0001:00021a30       ?deallocate@?$allocator@H@std@@QAEXPAHI@Z 10022a30 f i Rapport.obj
 0001:00021a40       ??0?$allocator@H@std@@QAE@ABV01@@Z 10022a40 f i Rapport.obj
 0001:00021a50       ?max_size@?$allocator@H@std@@QBEIXZ 10022a50 f i Rapport.obj
 0001:00021a60       ??G?$_Vector_const_iterator@HV?$allocator@H@std@@@std@@QBEHABV01@@Z 10022a60 f i Rapport.obj
 0001:00021a90       ??0?$_Ranit@HHPBHABH@std@@QAE@XZ 10022a90 f i Rapport.obj
 0001:00021aa0       ??Y?$_Vector_const_iterator@HV?$allocator@H@std@@@std@@QAEAAV01@H@Z 10022aa0 f i Rapport.obj
 0001:00021ae0       ??$_Allocate@H@std@@YAPAHIPAH@Z 10022ae0 f i Rapport.obj
 0001:00021b40       ??$_Ptr_cat@PAHPAH@std@@YA?AU_Scalar_ptr_iterator_tag@0@AAPAH0@Z 10022b40 f i Rapport.obj
 0001:00021b50       ??$_Destroy_range@HV?$allocator@H@std@@@std@@YAXPAH0AAV?$allocator@H@0@U_Scalar_ptr_iterator_tag@0@@Z 10022b50 f i Rapport.obj
 0001:00021b60       ??$_Fill@PAHH@std@@YAXPAH0ABH@Z 10022b60 f i Rapport.obj
 0001:00021b80       ??$_Iter_random@PAHPAH@std@@YA?AUrandom_access_iterator_tag@0@ABQAH0@Z 10022b80 f i Rapport.obj
 0001:00021b90       ??$_Move_cat@PAH@std@@YA?AU_Undefined_move_tag@0@ABQAH@Z 10022b90 f i Rapport.obj
 0001:00021ba0       ??$_Checked_base@PAH@std@@YAPAHAAPAHU_Unchanged_checked_iterator_base_type_tag@0@@Z 10022ba0 f i Rapport.obj
 0001:00021bb0       ??$_Copy_backward_opt@PAHPAHUrandom_access_iterator_tag@std@@@std@@YAPAHPAH00Urandom_access_iterator_tag@0@U_Scalar_ptr_iterator_tag@0@U_Range_checked_iterator_tag@0@@Z 10022bb0 f i Rapport.obj
 0001:00021be0       ??$_Iter_cat@PAH@std@@YA?AUrandom_access_iterator_tag@0@ABQAH@Z 10022be0 f i Rapport.obj
 0001:00021bf0       ?_Checked_iterator_base@?$_Vector_iterator@HV?$allocator@H@std@@@std@@QBEPAHXZ 10022bf0 f i Rapport.obj
 0001:00021c00       ??$_Uninit_copy@PAHPAHV?$allocator@H@std@@@std@@YAPAHPAH00AAV?$allocator@H@0@U_Scalar_ptr_iterator_tag@0@U_Range_checked_iterator_tag@0@@Z 10022c00 f i Rapport.obj
 0001:00021c30       ??$_Fill_n@PAHIH@std@@YAXPAHIABHU_Range_checked_iterator_tag@0@@Z 10022c30 f i Rapport.obj
 0001:00021c60       ?max_size@?$vector@HV?$allocator@H@std@@@std@@QBEIXZ 10022c60 f i Rapport.obj
 0001:00021c70       ??0?$_Vector_val@HV?$allocator@H@std@@@std@@IAE@V?$allocator@H@1@@Z 10022c70 f i Rapport.obj
 0001:00021c80       ?allocate@?$allocator@H@std@@QAEPAHI@Z 10022c80 f i Rapport.obj
 0001:00021ca0       ??G?$_Vector_iterator@HV?$allocator@H@std@@@std@@QBEHABV?$_Vector_const_iterator@HV?$allocator@H@std@@@1@@Z 10022ca0 f i Rapport.obj
 0001:00021cd0       ??Y?$_Vector_iterator@HV?$allocator@H@std@@@std@@QAEAAV01@H@Z 10022cd0 f i Rapport.obj
 0001:00021d10       ??0?$_Vector_const_iterator@HV?$allocator@H@std@@@std@@QAE@PAHPBU_Container_base@1@@Z 10022d10 f i Rapport.obj
 0001:00021d50       ??$_Destroy_range@HV?$allocator@H@std@@@std@@YAXPAH0AAV?$allocator@H@0@@Z 10022d50 f i Rapport.obj
 0001:00021d60       ??$_Checked_base@PAH@std@@YAPAHAAPAH@Z 10022d60 f i Rapport.obj
 0001:00021d70       ??$_Move_backward_opt@PAHPAHUrandom_access_iterator_tag@std@@U_Undefined_move_tag@2@@std@@YAPAHPAH00Urandom_access_iterator_tag@0@U_Undefined_move_tag@0@U_Range_checked_iterator_tag@0@@Z 10022d70 f i Rapport.obj
 0001:00021da0       ??$_Checked_base@V?$_Vector_iterator@HV?$allocator@H@std@@@std@@U_Different_checked_iterator_base_type_tag@2@@std@@YAPAHAAV?$_Vector_iterator@HV?$allocator@H@std@@@0@U_Different_checked_iterator_base_type_tag@0@@Z 10022da0 f i Rapport.obj
 0001:00021db0       ??$unchecked_uninitialized_copy@PAHPAHV?$allocator@H@std@@@stdext@@YAPAHPAH00AAV?$allocator@H@std@@@Z 10022db0 f i Rapport.obj
 0001:00021de0       ??$_Fill_n@PAHIH@std@@YAXPAHIABHUrandom_access_iterator_tag@0@U_Range_checked_iterator_tag@0@@Z 10022de0 f i Rapport.obj
 0001:00021e10       ?_Destroy@?$vector@HV?$allocator@H@std@@@std@@IAEXPAH0@Z 10022e10 f i Rapport.obj
 0001:00021e20       ?_Tidy@?$vector@HV?$allocator@H@std@@@std@@IAEXXZ 10022e20 f i Rapport.obj
 0001:00021e50       ??0?$_Vector_iterator@HV?$allocator@H@std@@@std@@QAE@PAHPBU_Container_base@1@@Z 10022e50 f i Rapport.obj
 0001:00021e90       ??H?$_Vector_iterator@HV?$allocator@H@std@@@std@@QBE?AV01@H@Z 10022e90 f i Rapport.obj
 0001:00021ed0       ??$fill@PAHH@std@@YAXPAH0ABH@Z 10022ed0 f i Rapport.obj
 0001:00021ef0       ??$_Unchecked_move_backward@PAHPAH@stdext@@YAPAHPAH00@Z 10022ef0 f i Rapport.obj
 0001:00021f20       ??$_Checked_base@V?$_Vector_iterator@HV?$allocator@H@std@@@std@@@std@@YAPAHAAV?$_Vector_iterator@HV?$allocator@H@std@@@0@@Z 10022f20 f i Rapport.obj
 0001:00021f30       ??$_Uninit_move@PAHPAHV?$allocator@H@std@@U_Undefined_move_tag@2@@std@@YAPAHPAH00AAV?$allocator@H@0@U_Undefined_move_tag@0@U_Range_checked_iterator_tag@0@@Z 10022f30 f i Rapport.obj
 0001:00021f60       ??$unchecked_fill_n@PAHIH@stdext@@YAXPAHIABH@Z 10022f60 f i Rapport.obj
 0001:00021f90       ??1?$vector@HV?$allocator@H@std@@@std@@QAE@XZ 10022f90 f i Rapport.obj
 0001:00021fc0       ?begin@?$vector@HV?$allocator@H@std@@@std@@QAE?AV?$_Vector_iterator@HV?$allocator@H@std@@@2@XZ 10022fc0 f i Rapport.obj
 0001:00021ff0       ?end@?$vector@HV?$allocator@H@std@@@std@@QAE?AV?$_Vector_iterator@HV?$allocator@H@std@@@2@XZ 10022ff0 f i Rapport.obj
 0001:00022020       ??$_Unchecked_uninitialized_move@V?$_Vector_iterator@HV?$allocator@H@std@@@std@@PAHV?$allocator@H@2@@stdext@@YAPAHV?$_Vector_iterator@HV?$allocator@H@std@@@std@@0PAHAAV?$allocator@H@2@@Z 10023020 f i Rapport.obj
 0001:00022050       ??$_Uninit_fill_n@PAHIHV?$allocator@H@std@@@std@@YAXPAHIABHAAV?$allocator@H@0@U_Scalar_ptr_iterator_tag@0@U_Range_checked_iterator_tag@0@@Z 10023050 f i Rapport.obj
 0001:00022080       ??$_Unchecked_uninitialized_move@PAHPAHV?$allocator@H@std@@@stdext@@YAPAHPAH00AAV?$allocator@H@std@@@Z 10023080 f i Rapport.obj
 0001:000220b0       ??1Rapport@@UAE@XZ         100230b0 f   Rapport.obj
 0001:00022130       ??$_Umove@V?$_Vector_iterator@HV?$allocator@H@std@@@std@@@?$vector@HV?$allocator@H@std@@@std@@IAEPAHV?$_Vector_iterator@HV?$allocator@H@std@@@1@0PAH@Z 10023130 f i Rapport.obj
 0001:00022160       ??$unchecked_uninitialized_fill_n@PAHIHV?$allocator@H@std@@@stdext@@YAXPAHIABHAAV?$allocator@H@std@@@Z 10023160 f i Rapport.obj
 0001:00022190       ??$_Umove@PAH@?$vector@HV?$allocator@H@std@@@std@@IAEPAHPAH00@Z 10023190 f i Rapport.obj
 0001:000221c0       ??_GRapport@@UAEPAXI@Z     100231c0 f i Rapport.obj
 0001:000221c0       ??_ERapport@@UAEPAXI@Z     100231c0 f i Rapport.obj
 0001:000221e0       ?_Ufill@?$vector@HV?$allocator@H@std@@@std@@IAEPAHPAHIABH@Z 100231e0 f i Rapport.obj
 0001:00022210       ?_Xlen@?$vector@HV?$allocator@H@std@@@std@@KAXXZ 10023210 f i Rapport.obj
 0001:00022290       ?_Insert_n@?$vector@HV?$allocator@H@std@@@std@@IAEXV?$_Vector_iterator@HV?$allocator@H@std@@@2@IABH@Z 10023290 f i Rapport.obj
 0001:00022450       ?reserve@?$vector@HV?$allocator@H@std@@@std@@QAEXI@Z 10023450 f i Rapport.obj
 0001:00022500       ?insert@?$vector@HV?$allocator@H@std@@@std@@QAE?AV?$_Vector_iterator@HV?$allocator@H@std@@@2@V32@ABH@Z 10023500 f i Rapport.obj
 0001:00022590       ?_Buy@?$vector@HV?$allocator@H@std@@@std@@IAE_NI@Z 10023590 f i Rapport.obj
 0001:000225e0       ??0?$vector@HV?$allocator@H@std@@@std@@QAE@XZ 100235e0 f i Rapport.obj
 0001:000225f0       ?push_back@?$vector@HV?$allocator@H@std@@@std@@QAEXABH@Z 100235f0 f i Rapport.obj
 0001:00022660       ?trouveLignups@Rapport@@IAEXXZ 10023660 f   Rapport.obj
 0001:00022760       ??0Rapport@@QAE@PAVMatch@@@Z 10023760 f   Rapport.obj
 0001:00022980       ??0RapportXml@@QAE@PAVMatch@@@Z 10023980 f   RapportXml.obj
 0001:000229a0       ??6?$basic_ostream@DU?$char_traits@D@std@@@std@@QAEAAV01@P6AAAV01@AAV01@@Z@Z 100239a0 f i RapportXml.obj
 0001:000229b0       ?empty@?$vector@VEnregistrementTV@@V?$allocator@VEnregistrementTV@@@std@@@std@@QBE_NXZ 100239b0 f i RapportXml.obj
 0001:000229e0       ??A?$vector@VEnregistrementTV@@V?$allocator@VEnregistrementTV@@@std@@@std@@QBEABVEnregistrementTV@@I@Z 100239e0 f i RapportXml.obj
 0001:00022a10       ??D?$_Vector_const_iterator@HV?$allocator@H@std@@@std@@QBEABHXZ 10023a10 f i RapportXml.obj
 0001:00022a40       ??E?$_Vector_const_iterator@HV?$allocator@H@std@@@std@@QAEAAV01@XZ 10023a40 f i RapportXml.obj
 0001:00022a70       ??8?$_Vector_const_iterator@HV?$allocator@H@std@@@std@@QBE_NABV01@@Z 10023a70 f i RapportXml.obj
 0001:00022aa0       ?put@?$num_put@DV?$ostreambuf_iterator@DU?$char_traits@D@std@@@std@@@std@@QBE?AV?$ostreambuf_iterator@DU?$char_traits@D@std@@@2@V32@AAVios_base@2@DK@Z 10023aa0 f i RapportXml.obj
 0001:00022ae0       ??_ERapportXml@@UAEPAXI@Z  10023ae0 f i RapportXml.obj
 0001:00022ae0       ??_GRapportXml@@UAEPAXI@Z  10023ae0 f i RapportXml.obj
 0001:00022b00       ??E?$_Vector_const_iterator@HV?$allocator@H@std@@@std@@QAE?AV01@H@Z 10023b00 f i RapportXml.obj
 0001:00022b40       ??9?$_Vector_const_iterator@HV?$allocator@H@std@@@std@@QBE_NABV01@@Z 10023b40 f i RapportXml.obj
 0001:00022b70       ?begin@?$vector@HV?$allocator@H@std@@@std@@QBE?AV?$_Vector_const_iterator@HV?$allocator@H@std@@@2@XZ 10023b70 f i RapportXml.obj
 0001:00022ba0       ?end@?$vector@HV?$allocator@H@std@@@std@@QBE?AV?$_Vector_const_iterator@HV?$allocator@H@std@@@2@XZ 10023ba0 f i RapportXml.obj
 0001:00022bd0       ?valideXml@RapportXml@@ABE?AV?$basic_string@DU?$char_traits@D@std@@V?$allocator@D@2@@std@@ABV23@@Z 10023bd0 f   RapportXml.obj
 0001:00022d50       ??1?$basic_ofstream@DU?$char_traits@D@std@@@std@@UAE@XZ 10023d50 f i RapportXml.obj
 0001:00022dc0       ??_D?$basic_ofstream@DU?$char_traits@D@std@@@std@@QAEXXZ 10023dc0 f i RapportXml.obj
 0001:00022de0       ??_G?$basic_ofstream@DU?$char_traits@D@std@@@std@@UAEPAXI@Z 10023de0 f i RapportXml.obj
 0001:00022de0       ??_E?$basic_ofstream@DU?$char_traits@D@std@@@std@@UAEPAXI@Z 10023de0 f i RapportXml.obj
 0001:00022e20       ??6?$basic_ostream@DU?$char_traits@D@std@@@std@@QAEAAV01@I@Z 10023e20 f i RapportXml.obj
 0001:00022f70       ?put@?$basic_ostream@DU?$char_traits@D@std@@@std@@QAEAAV12@D@Z 10023f70 f i RapportXml.obj
 0001:00023090       ??0?$basic_ofstream@DU?$char_traits@D@std@@@std@@QAE@PBDHH@Z 10024090 f i RapportXml.obj
 0001:000231d0       ?endl@std@@YAAAV?$basic_ostream@DU?$char_traits@D@std@@@1@AAV21@@Z 100241d0 f i RapportXml.obj
 0001:000231f0       ?ecritEntete@RapportXml@@EBEXAAV?$basic_ofstream@DU?$char_traits@D@std@@@std@@@Z 100241f0 f   RapportXml.obj
 0001:00023260       ?ecritPied@RapportXml@@EBEXAAV?$basic_ofstream@DU?$char_traits@D@std@@@std@@@Z 10024260 f   RapportXml.obj
 0001:00023290       ?ecritPlugin@RapportXml@@ABEXAAV?$basic_ofstream@DU?$char_traits@D@std@@@std@@@Z 10024290 f   RapportXml.obj
 0001:00023360       ?ecritJoueur@RapportXml@@ABEXABV?$basic_string@DU?$char_traits@D@std@@V?$allocator@D@2@@std@@AAV?$basic_ofstream@DU?$char_traits@D@std@@@3@PAVJoueur@@PAVIPlayerInfo@@@Z 10024360 f   RapportXml.obj
 0001:000235b0       ?ecritSpectateurs@RapportXml@@ABEXAAV?$basic_ofstream@DU?$char_traits@D@std@@@std@@@Z 100245b0 f   RapportXml.obj
 0001:000237b0       ?ecritSourcetv@RapportXml@@ABEXAAV?$basic_ofstream@DU?$char_traits@D@std@@@std@@@Z 100247b0 f   RapportXml.obj
 0001:00023950       ?ecrit@RapportXml@@UAEXXZ  10024950 f   RapportXml.obj
 0001:00023b00       ?ecritJoueurs@RapportXml@@ABEXAAV?$basic_ofstream@DU?$char_traits@D@std@@@std@@ABV?$vector@HV?$allocator@H@std@@@3@@Z 10024b00 f   RapportXml.obj
 0001:00023ce0       ?ecritTeam@RapportXml@@ABEXAAV?$basic_ofstream@DU?$char_traits@D@std@@@std@@PAVTeam@@ABV?$vector@HV?$allocator@H@std@@@3@@Z 10024ce0 f   RapportXml.obj
 0001:00023ec0       ?ecritTeams@RapportXml@@ABEXAAV?$basic_ofstream@DU?$char_traits@D@std@@@std@@PAVTeam@@1@Z 10024ec0 f   RapportXml.obj
 0001:00023f70       ?ecritMatch@RapportXml@@ABEXAAV?$basic_ofstream@DU?$char_traits@D@std@@@std@@@Z 10024f70 f   RapportXml.obj
 0001:00024300       ?ecritCorps@RapportXml@@EBEXAAV?$basic_ofstream@DU?$char_traits@D@std@@@std@@@Z 10025300 f   RapportXml.obj
 0001:00024320       ?player_death@EventListener@@AAEXPAVIGameEvent@@@Z 10025320 f   EventListener.obj
 0001:000243e0       ?round_end@EventListener@@AAEXPAVIGameEvent@@@Z 100253e0 f   EventListener.obj
 0001:000244c0       ??1?$basic_istringstream@DU?$char_traits@D@std@@V?$allocator@D@2@@std@@UAE@XZ 100254c0 f i EventListener.obj
 0001:00024540       ??_D?$basic_istringstream@DU?$char_traits@D@std@@V?$allocator@D@2@@std@@QAEXXZ 10025540 f i EventListener.obj
 0001:00024560       ??_E?$basic_istringstream@DU?$char_traits@D@std@@V?$allocator@D@2@@std@@UAEPAXI@Z 10025560 f i EventListener.obj
 0001:00024560       ??_G?$basic_istringstream@DU?$char_traits@D@std@@V?$allocator@D@2@@std@@UAEPAXI@Z 10025560 f i EventListener.obj
 0001:000245a0       ??0?$basic_stringbuf@DU?$char_traits@D@std@@V?$allocator@D@2@@std@@QAE@ABV?$basic_string@DU?$char_traits@D@std@@V?$allocator@D@2@@1@H@Z 100255a0 f i EventListener.obj
 0001:00024630       ?str@?$basic_stringbuf@DU?$char_traits@D@std@@V?$allocator@D@2@@std@@QAEXABV?$basic_string@DU?$char_traits@D@std@@V?$allocator@D@2@@2@@Z 10025630 f i EventListener.obj
 0001:00024670       ?str@?$basic_ostringstream@DU?$char_traits@D@std@@V?$allocator@D@2@@std@@QAEXABV?$basic_string@DU?$char_traits@D@std@@V?$allocator@D@2@@2@@Z 10025670 f i EventListener.obj
 0001:000246b0       ??0CSSMatchPlayerPropException@@QAE@ABV?$basic_string@DU?$char_traits@D@std@@V?$allocator@D@2@@std@@@Z 100256b0 f i EventListener.obj
 0001:00024720       ?what@CSSMatchPlayerPropException@@UBEPBDXZ 10025720 f i EventListener.obj
 0001:00024730       ??1CSSMatchPlayerPropException@@UAE@XZ 10025730 f i EventListener.obj
 0001:00024770       ??_GCSSMatchPlayerPropException@@UAEPAXI@Z 10025770 f i EventListener.obj
 0001:00024770       ??_ECSSMatchPlayerPropException@@UAEPAXI@Z 10025770 f i EventListener.obj
 0001:000247c0       ?initialise@EventListener@@QAEXXZ 100257c0 f   EventListener.obj
 0001:00024950       ?item_pickup@EventListener@@AAEXPAVIGameEvent@@@Z 10025950 f   EventListener.obj
 0001:00024ae0       ?player_disconnect@EventListener@@AAEXPAVIGameEvent@@@Z 10025ae0 f   EventListener.obj
 0001:00024d40       ?player_team@EventListener@@AAEXPAVIGameEvent@@@Z 10025d40 f   EventListener.obj
 0001:00024fc0       ?bomb_beginplant@EventListener@@AAEXPAVIGameEvent@@@Z 10025fc0 f   EventListener.obj
 0001:00025210       ?player_changename@EventListener@@AAEXPAVIGameEvent@@@Z 10026210 f   EventListener.obj
 0001:00025420       ??$getPlayerProp@H@PlayerProp@@QAEAAHPAUedict_t@@@Z 10026420 f i EventListener.obj
 0001:00025580       ??0CSSMatchPlayerPropException@@QAE@ABV0@@Z 10026580 f i EventListener.obj
 0001:00025600       ?player_spawn@EventListener@@AAEXPAVIGameEvent@@@Z 10026600 f   EventListener.obj
 0001:000257f0       ??$?5DU?$char_traits@D@std@@V?$allocator@D@1@@std@@YAAAV?$basic_istream@DU?$char_traits@D@std@@@0@AAV10@AAV?$basic_string@DU?$char_traits@D@std@@V?$allocator@D@2@@0@@Z 100267f0 f i EventListener.obj
 0001:000259b0       ??0?$basic_istringstream@DU?$char_traits@D@std@@V?$allocator@D@2@@std@@QAE@ABV?$basic_string@DU?$char_traits@D@std@@V?$allocator@D@2@@1@H@Z 100269b0 f i EventListener.obj
 0001:00025a90       ?player_say@EventListener@@AAEXPAVIGameEvent@@@Z 10026a90 f   EventListener.obj
 0001:00025fa0       ?round_start@EventListener@@AAEXPAVIGameEvent@@@Z 10026fa0 f   EventListener.obj
 0001:000266e0       ?FireGameEvent@EventListener@@UAEXPAVIGameEvent@@@Z 100276e0 f   EventListener.obj
 0001:00026940       ??0SayHook@@QAE@XZ         10027940 f   SayHook.obj
 0001:00026970       ??Y?$_String_const_iterator@DU?$char_traits@D@std@@V?$allocator@D@2@@std@@QAEAAV01@H@Z 10027970 f i SayHook.obj
 0001:000269d0       ??G?$_String_const_iterator@DU?$char_traits@D@std@@V?$allocator@D@2@@std@@QBEHABV01@@Z 100279d0 f i SayHook.obj
 0001:00026a00       ??_ESayHook@@UAEPAXI@Z     10027a00 f i SayHook.obj
 0001:00026a00       ??_GSayHook@@UAEPAXI@Z     10027a00 f i SayHook.obj
 0001:00026a20       ?_Pdif@?$basic_string@DU?$char_traits@D@std@@V?$allocator@D@2@@std@@KAIV?$_String_const_iterator@DU?$char_traits@D@std@@V?$allocator@D@2@@2@0@Z 10027a20 f i SayHook.obj
 0001:00026a50       ??Y?$_String_iterator@DU?$char_traits@D@std@@V?$allocator@D@2@@std@@QAEAAV01@H@Z 10027a50 f i SayHook.obj
 0001:00026a70       ??H?$_String_iterator@DU?$char_traits@D@std@@V?$allocator@D@2@@std@@QBE?AV01@H@Z 10027a70 f i SayHook.obj
 0001:00026ab0       ?erase@?$basic_string@DU?$char_traits@D@std@@V?$allocator@D@2@@std@@QAE?AV?$_String_iterator@DU?$char_traits@D@std@@V?$allocator@D@2@@2@V32@0@Z 10027ab0 f i SayHook.obj
 0001:00026b80       ?Init@SayHook@@UAEXXZ      10027b80 f   SayHook.obj
 0001:00026d50       ?cmdCssmatch@SayHook@@SAXHAAV?$basic_istringstream@DU?$char_traits@D@std@@V?$allocator@D@2@@std@@@Z 10027d50 f   SayHook.obj
 0001:00026f00       ?cmdTeamt@SayHook@@SAXHAAV?$basic_istringstream@DU?$char_traits@D@std@@V?$allocator@D@2@@std@@@Z 10027f00 f   SayHook.obj
 0001:00027190       ?cmdTeamct@SayHook@@SAXHAAV?$basic_istringstream@DU?$char_traits@D@std@@V?$allocator@D@2@@std@@@Z 10028190 f   SayHook.obj
 0001:00027420       ?cmdTeam@SayHook@@SAXHAAV?$basic_istringstream@DU?$char_traits@D@std@@V?$allocator@D@2@@std@@W4CodeTeam@@@Z 10028420 f   SayHook.obj
 0001:00027740       ?Dispatch@SayHook@@UAEXXZ  10028740 f   SayHook.obj
 0001:000279c0       ??0SayTeamHook@@QAE@XZ     100289c0 f   SayTeamHook.obj
 0001:000279f0       ??_ESayTeamHook@@UAEPAXI@Z 100289f0 f i SayTeamHook.obj
 0001:000279f0       ??_GSayTeamHook@@UAEPAXI@Z 100289f0 f i SayTeamHook.obj
 0001:00027a10       ?Init@SayTeamHook@@UAEXXZ  10028a10 f   SayTeamHook.obj
 0001:00027be0       ?Dispatch@SayTeamHook@@UAEXXZ 10028be0 f   SayTeamHook.obj
 0001:00027e60       ?GetOffset@SendProp@@QBEHXZ 10028e60 f i PlayerProp.obj
 0001:00027e70       ?GetName@SendProp@@QBEPBDXZ 10028e70 f i PlayerProp.obj
 0001:00027e80       ?GetNumProps@SendTable@@QBEHXZ 10028e80 f i PlayerProp.obj
 0001:00027e90       ?GetProp@SendTable@@QAEPAVSendProp@@H@Z 10028e90 f i PlayerProp.obj
 0001:00027ea0       ?GetName@ServerClass@@QAEPBDXZ 10028ea0 f i PlayerProp.obj
 0001:00027eb0       ?getClasse@PlayerProp@@QBEABV?$basic_string@DU?$char_traits@D@std@@V?$allocator@D@2@@std@@XZ 10028eb0 f   PlayerProp.obj
 0001:00027ec0       ?getProp@PlayerProp@@QBEABV?$basic_string@DU?$char_traits@D@std@@V?$allocator@D@2@@std@@XZ 10028ec0 f   PlayerProp.obj
 0001:00027ed0       ??0PlayerProp@@QAE@XZ      10028ed0 f   PlayerProp.obj
 0001:00027ef0       ?getClasseOffet@PlayerProp@@AAEXXZ 10028ef0 f   PlayerProp.obj
 0001:00028150       ??0PlayerProp@@QAE@ABV?$basic_string@DU?$char_traits@D@std@@V?$allocator@D@2@@std@@0@Z 10029150 f   PlayerProp.obj
 0001:00028218       _GetModuleFileNameA@12     10029218 f   kernel32:KERNEL32.dll
 0001:0002821e       _VirtualQuery@12           1002921e f   kernel32:KERNEL32.dll
 0001:00028224       _HeapAlloc@12              10029224 f   kernel32:KERNEL32.dll
 0001:0002822a       _GetProcessHeap@0          1002922a f   kernel32:KERNEL32.dll
 0001:00028230       _fabsf                     10029230 f i mathlib:mathlib_base.obj
 0001:00028240       _acosf                     10029240 f i mathlib:mathlib_base.obj
 0001:00028260       _asinf                     10029260 f i mathlib:mathlib_base.obj
 0001:00028280       _atan2f                    10029280 f i mathlib:mathlib_base.obj
 0001:000282a0       _cosf                      100292a0 f i mathlib:mathlib_base.obj
 0001:000282c0       _fmodf                     100292c0 f i mathlib:mathlib_base.obj
 0001:000282e0       _logf                      100292e0 f i mathlib:mathlib_base.obj
 0001:00028300       _powf                      10029300 f i mathlib:mathlib_base.obj
 0001:00028320       _sinf                      10029320 f i mathlib:mathlib_base.obj
 0001:00028340       _sqrtf                     10029340 f i mathlib:mathlib_base.obj
 0001:00028360       ?acos@@YAMM@Z              10029360 f i mathlib:mathlib_base.obj
 0001:00028380       ?asin@@YAMM@Z              10029380 f i mathlib:mathlib_base.obj
 0001:000283a0       ?atan2@@YAMMM@Z            100293a0 f i mathlib:mathlib_base.obj
 0001:000283c0       ?fabs@@YAMM@Z              100293c0 f i mathlib:mathlib_base.obj
 0001:000283d0       ?log@@YAMM@Z               100293d0 f i mathlib:mathlib_base.obj
 0001:000283f0       ?pow@@YAMMM@Z              100293f0 f i mathlib:mathlib_base.obj
 0001:00028410       ?sin@@YAMM@Z               10029410 f i mathlib:mathlib_base.obj
 0001:00028430       ?sqrt@@YAMM@Z              10029430 f i mathlib:mathlib_base.obj
 0001:00028450       ?FloatBits@@YAAAKAAM@Z     10029450 f i mathlib:mathlib_base.obj
 0001:00028460       ?BitsToFloat@@YAMK@Z       10029460 f i mathlib:mathlib_base.obj
 0001:00028470       ?FloatMakePositive@@YAMM@Z 10029470 f i mathlib:mathlib_base.obj
 0001:00028490       ??0Vector2D@@QAE@XZ        10029490 f i mathlib:mathlib_base.obj
 0001:000284a0       ?Vector2DSubtract@@YAXABVVector2D@@0AAV1@@Z 100294a0 f i mathlib:mathlib_base.obj
 0001:000284c0       ?MulAdd@Vector2D@@QAEXABV1@0M@Z 100294c0 f i mathlib:mathlib_base.obj
 0001:000284f0       ?DotProduct2D@@YAMABVVector2D@@0@Z 100294f0 f i mathlib:mathlib_base.obj
 0001:00028510       ?Dot@Vector2D@@QBEMABV1@@Z 10029510 f i mathlib:mathlib_base.obj
 0001:00028530       ?Vector2DLength@@YAMABVVector2D@@@Z 10029530 f i mathlib:mathlib_base.obj
 0001:00028560       ?LengthSqr@Vector2D@@QBEMXZ 10029560 f i mathlib:mathlib_base.obj
 0001:00028580       ?Length@Vector2D@@QBEMXZ   10029580 f i mathlib:mathlib_base.obj
 0001:000285b0       ?DistTo@Vector2D@@QBEMABV1@@Z 100295b0 f i mathlib:mathlib_base.obj
 0001:00028600       ?DistToSqr@Vector2D@@QBEMABV1@@Z 10029600 f i mathlib:mathlib_base.obj
 0001:00028640       ?LengthSqr@Vector@@QBEMXZ  10029640 f i mathlib:mathlib_base.obj
 0001:00028670       ??0Vector@@QAE@XZ          10029670 f i mathlib:mathlib_base.obj
 0001:00028680       ??0Vector@@QAE@MMM@Z       10029680 f i mathlib:mathlib_base.obj
 0001:000286a0       ?Init@Vector@@QAEXMMM@Z    100296a0 f i mathlib:mathlib_base.obj
 0001:000286c0       ??4Vector@@QAEAAV0@ABV0@@Z 100296c0 f i mathlib:mathlib_base.obj
 0001:000286e0       ??AVector@@QAEAAMH@Z       100296e0 f i mathlib:mathlib_base.obj
 0001:000286f0       ??AVector@@QBEMH@Z         100296f0 f i mathlib:mathlib_base.obj
 0001:00028700       ?VectorCopy@@YAXABVVector@@AAV1@@Z 10029700 f i mathlib:mathlib_base.obj
 0001:00028720       ??XVector@@QAEAAV0@M@Z     10029720 f i mathlib:mathlib_base.obj
 0001:00028750       ?VectorAdd@@YAXABVVector@@0AAV1@@Z 10029750 f i mathlib:mathlib_base.obj
 0001:00028780       ?VectorSubtract@@YAXABVVector@@0AAV1@@Z 10029780 f i mathlib:mathlib_base.obj
 0001:000287b0       ?VectorMultiply@@YAXABVVector@@MAAV1@@Z 100297b0 f i mathlib:mathlib_base.obj
 0001:000287e0       ?VectorScale@@YAXABVVector@@MAAV1@@Z 100297e0 f i mathlib:mathlib_base.obj
 0001:00028810       ?MulAdd@Vector@@QAEXABV1@0M@Z 10029810 f i mathlib:mathlib_base.obj
 0001:00028850       ?VectorLerp@@YAXABVVector@@0MAAV1@@Z 10029850 f i mathlib:mathlib_base.obj
 0001:00028890       ?DotProduct@@YAMABVVector@@0@Z 10029890 f i mathlib:mathlib_base.obj
 0001:000288c0       ?Dot@Vector@@QBEMABV1@@Z   100298c0 f i mathlib:mathlib_base.obj
 0001:000288f0       ?CrossProduct@@YAXABVVector@@0AAV1@@Z 100298f0 f i mathlib:mathlib_base.obj
 0001:00028930       ?DotProductAbs@@YAMABVVector@@PBM@Z 10029930 f i mathlib:mathlib_base.obj
 0001:000289a0       ?VectorLength@@YAMABVVector@@@Z 100299a0 f i mathlib:mathlib_base.obj
 0001:000289e0       ?Length@Vector@@QBEMXZ     100299e0 f i mathlib:mathlib_base.obj
 0001:00028a10       ?DistTo@Vector@@QBEMABV1@@Z 10029a10 f i mathlib:mathlib_base.obj
 0001:00028a70       ??0Quaternion@@QAE@XZ      10029a70 f i mathlib:mathlib_base.obj
 0001:00028a80       ??AQuaternion@@QAEAAMH@Z   10029a80 f i mathlib:mathlib_base.obj
 0001:00028a90       ??AQuaternion@@QBEMH@Z     10029a90 f i mathlib:mathlib_base.obj
 0001:00028aa0       ??0RadianEuler@@QAE@XZ     10029aa0 f i mathlib:mathlib_base.obj
 0001:00028ab0       ?Init@RadianEuler@@QAEXMMM@Z 10029ab0 f i mathlib:mathlib_base.obj
 0001:00028ad0       ??0QAngle@@QAE@XZ          10029ad0 f i mathlib:mathlib_base.obj
 0001:00028ae0       ??0QAngle@@QAE@MMM@Z       10029ae0 f i mathlib:mathlib_base.obj
 0001:00028b00       ??4QAngle@@QAEAAV0@ABV0@@Z 10029b00 f i mathlib:mathlib_base.obj
 0001:00028b20       ??AQAngle@@QAEAAMH@Z       10029b20 f i mathlib:mathlib_base.obj
 0001:00028b30       ??AQAngle@@QBEMH@Z         10029b30 f i mathlib:mathlib_base.obj
 0001:00028b40       ?VectorNormalize@@YAMAAVVector@@@Z 10029b40 f i mathlib:mathlib_base.obj
 0001:00028b50       ?VectorNormalizeFast@@YAXAAVVector@@@Z 10029b50 f i mathlib:mathlib_base.obj
 0001:00028b60       ?GetPlane@Frustum_t@@QBEPBUcplane_t@@H@Z 10029b60 f i mathlib:mathlib_base.obj
 0001:00028b70       ??0matrix3x4_t@@QAE@XZ     10029b70 f i mathlib:mathlib_base.obj
 0001:00028b80       ??Amatrix3x4_t@@QAEPAMH@Z  10029b80 f i mathlib:mathlib_base.obj
 0001:00028b90       ??Amatrix3x4_t@@QBEPBMH@Z  10029b90 f i mathlib:mathlib_base.obj
 0001:00028ba0       ?Base@matrix3x4_t@@QAEPAMXZ 10029ba0 f i mathlib:mathlib_base.obj
 0001:00028bb0       ?Base@matrix3x4_t@@QBEPBMXZ 10029bb0 f i mathlib:mathlib_base.obj
 0001:00028bc0       ?DotProduct@@YAMPBM0@Z     10029bc0 f i mathlib:mathlib_base.obj
 0001:00028bf0       ?VectorScale@@YAXPBMMPAM@Z 10029bf0 f i mathlib:mathlib_base.obj
 0001:00028c20       ?SinCos@@YAXMPAM0@Z        10029c20 f i mathlib:mathlib_base.obj
 0001:00028c40       ?anglemod@@YAMM@Z          10029c40 f i mathlib:mathlib_base.obj
 0001:00028ca0       ?TexLightToLinear@@YAMHH@Z 10029ca0 f i mathlib:mathlib_base.obj
 0001:00028cc0       ?RoundFloatToInt@@YAHM@Z   10029cc0 f i mathlib:mathlib_base.obj
 0001:00028cd0       ?Floor2Int@@YAHM@Z         10029cd0 f i mathlib:mathlib_base.obj
 0001:00028d00       ?_sqrtf@@YAMM@Z            10029d00 f   mathlib:mathlib_base.obj
 0001:00028d20       ?_rsqrtf@@YAMM@Z           10029d20 f   mathlib:mathlib_base.obj
 0001:00028d40       ?_VectorNormalize@@YIMAAVVector@@@Z 10029d40 f   mathlib:mathlib_base.obj
 0001:00028db0       ?_VectorNormalizeFast@@YIXAAVVector@@@Z 10029db0 f   mathlib:mathlib_base.obj
 0001:00028e10       ?_InvRSquared@@YAMPBM@Z    10029e10 f   mathlib:mathlib_base.obj
 0001:00028e60       ?_3DNow_Sqrt@@YAMM@Z       10029e60 f   mathlib:mathlib_base.obj
 0001:00028e90       ?_3DNow_RSqrt@@YAMM@Z      10029e90 f   mathlib:mathlib_base.obj
 0001:00028eb0       ?_3DNow_VectorNormalize@@YIMAAVVector@@@Z 10029eb0 f   mathlib:mathlib_base.obj
 0001:00028f30       ?_3DNow_VectorNormalizeFast@@YIXAAVVector@@@Z 10029f30 f   mathlib:mathlib_base.obj
 0001:00028f40       ?_3DNow_InvRSquared@@YAMPBM@Z 10029f40 f   mathlib:mathlib_base.obj
 0001:00028f80       ?_SSE_Sqrt@@YAMM@Z         10029f80 f   mathlib:mathlib_base.obj
 0001:00028fa0       ?_SSE_RSqrtAccurate@@YAMM@Z 10029fa0 f i mathlib:mathlib_base.obj
 0001:00028ff0       ?_SSE_RSqrtFast@@YAMM@Z    10029ff0 f i mathlib:mathlib_base.obj
 0001:00029010       ?_SSE_VectorNormalize@@YIMAAVVector@@@Z 1002a010 f   mathlib:mathlib_base.obj
 0001:000290b0       ?_SSE_VectorNormalizeFast@@YIXAAVVector@@@Z 1002a0b0 f   mathlib:mathlib_base.obj
 0001:00029140       ?_SSE_InvRSquared@@YAMPBM@Z 1002a140 f   mathlib:mathlib_base.obj
 0001:00029180       ?_SSE_SinCos@@YAXMPAM0@Z   1002a180 f   mathlib:mathlib_base.obj
 0001:000292c0       ?_SSE_cos@@YAMM@Z          1002a2c0 f   mathlib:mathlib_base.obj
 0001:00029390       ?_SSE2_SinCos@@YAXMPAM0@Z  1002a390 f   mathlib:mathlib_base.obj
 0001:000294b0       ?_SSE2_cos@@YAMM@Z         1002a4b0 f   mathlib:mathlib_base.obj
 0001:00029580       ?InitSinCosTable@@YAXXZ    1002a580 f   mathlib:mathlib_base.obj
 0001:000295c0       ?VectorsEqual@@YAHPBM0@Z   1002a5c0 f   mathlib:mathlib_base.obj
 0001:00029600       ?LineSphereIntersection@@YAHABVVector@@M00PAM1@Z 1002a600 f   mathlib:mathlib_base.obj
 0001:00029720       ?MatrixAngles@@YAXABUmatrix3x4_t@@PAM@Z 1002a720 f   mathlib:mathlib_base.obj
 0001:00029850       ?VectorTransform@@YAXPBMABUmatrix3x4_t@@PAM@Z 1002a850 f   mathlib:mathlib_base.obj
 0001:000298d0       ?VectorTransformSSE@@YAXPBMABUmatrix3x4_t@@PAM@Z 1002a8d0 f   mathlib:mathlib_base.obj
 0001:00029970       ?VectorITransform@@YAXPBMABUmatrix3x4_t@@PAM@Z 1002a970 f   mathlib:mathlib_base.obj
 0001:00029a00       ?VectorRotate@@YAXPBMABUmatrix3x4_t@@PAM@Z 1002aa00 f   mathlib:mathlib_base.obj
 0001:00029a60       ?VectorRotateSSE@@YAXPBMABUmatrix3x4_t@@PAM@Z 1002aa60 f   mathlib:mathlib_base.obj
 0001:00029af0       ?TransformAndRotate@@YAXABVVector@@0ABUmatrix3x4_t@@AAV1@2@Z 1002aaf0 f   mathlib:mathlib_base.obj
 0001:00029c10       ?VectorIRotate@@YAXPBMABUmatrix3x4_t@@PAM@Z 1002ac10 f   mathlib:mathlib_base.obj
 0001:00029c70       ?MatrixCopy@@YAXABUmatrix3x4_t@@AAU1@@Z 1002ac70 f   mathlib:mathlib_base.obj
 0001:00029c90       ?MatrixGetColumn@@YAXABUmatrix3x4_t@@HAAVVector@@@Z 1002ac90 f   mathlib:mathlib_base.obj
 0001:00029cb0       ?MatrixSetColumn@@YAXABVVector@@HAAUmatrix3x4_t@@@Z 1002acb0 f   mathlib:mathlib_base.obj
 0001:00029cd0       ?VectorCompare@@YAHPBM0@Z  1002acd0 f   mathlib:mathlib_base.obj
 0001:00029d10       ?VectorMA@@YAXPBMM0PAM@Z   1002ad10 f   mathlib:mathlib_base.obj
 0001:00029d50       ?_SSE_VectorMA@@YAXPBMM0PAM@Z 1002ad50 f   mathlib:mathlib_base.obj
 0001:00029d80       ?CrossProduct@@YAXPBM0PAM@Z 1002ad80 f   mathlib:mathlib_base.obj
 0001:00029dc0       ?Q_log2@@YAHH@Z            1002adc0 f   mathlib:mathlib_base.obj
 0001:00029de0       ?VectorMatrix@@YAXABVVector@@AAUmatrix3x4_t@@@Z 1002ade0 f   mathlib:mathlib_base.obj
 0001:00029ef0       ?VectorVectors@@YAXABVVector@@AAV1@1@Z 1002aef0 f   mathlib:mathlib_base.obj
 0001:00029fb0       ?VectorAngles@@YAXPBMPAM@Z 1002afb0 f   mathlib:mathlib_base.obj
 0001:0002a0c0       ?ConcatRotations@@YAXQAY02$$CBM0QAY02M@Z 1002b0c0 f   mathlib:mathlib_base.obj
 0001:0002a1b0       ?ConcatTransforms@@YAXABUmatrix3x4_t@@0AAU1@@Z 1002b1b0 f   mathlib:mathlib_base.obj
 0001:0002a350       ?FloorDivMod@@YAXNNPAH0@Z  1002b350 f   mathlib:mathlib_base.obj
 0001:0002a460       ?GreatestCommonDivisor@@YAHHH@Z 1002b460 f   mathlib:mathlib_base.obj
 0001:0002a4a0       ?IsDenormal@@YA_NABM@Z     1002b4a0 f   mathlib:mathlib_base.obj
 0001:0002a4c0       ?SignbitsForPlane@@YAHPAUcplane_t@@@Z 1002b4c0 f   mathlib:mathlib_base.obj
 0001:0002a500       ?BoxOnPlaneSide@@YAHPBM0PBUcplane_t@@@Z 1002b500 f   mathlib:mathlib_base.obj
 0001:0002a760       ?VectorMA@@YAXABVVector@@M0AAV1@@Z 1002b760 f   mathlib:mathlib_base.obj
 0001:0002a7a0       ?AngleVectors@@YAXABVQAngle@@PAVVector@@@Z 1002b7a0 f   mathlib:mathlib_base.obj
 0001:0002a830       ?AngleVectors@@YAXABVQAngle@@PAVVector@@11@Z 1002b830 f   mathlib:mathlib_base.obj
 0001:0002a990       ?AngleVectorsTranspose@@YAXABVQAngle@@PAVVector@@11@Z 1002b990 f   mathlib:mathlib_base.obj
 0001:0002aae0       ?VectorAngles@@YAXABVVector@@AAVQAngle@@@Z 1002bae0 f   mathlib:mathlib_base.obj
 0001:0002ac10       ?VectorAngles@@YAXABVVector@@0AAVQAngle@@@Z 1002bc10 f   mathlib:mathlib_base.obj
 0001:0002ad60       ?SetIdentityMatrix@@YAXAAUmatrix3x4_t@@@Z 1002bd60 f   mathlib:mathlib_base.obj
 0001:0002ad80       ?AngleMatrix@@YAXABVQAngle@@AAUmatrix3x4_t@@@Z 1002bd80 f   mathlib:mathlib_base.obj
 0001:0002aec0       ?AngleIMatrix@@YAXABVQAngle@@AAUmatrix3x4_t@@@Z 1002bec0 f   mathlib:mathlib_base.obj
 0001:0002b000       ?SphereToAABBIntersection@@YA_NABVVector@@M00@Z 1002c000 f   mathlib:mathlib_base.obj
 0001:0002b0f0       ?ClearBounds@@YAXAAVVector@@0@Z 1002c0f0 f   mathlib:mathlib_base.obj
 0001:0002b120       ?AddPointToBounds@@YAXABVVector@@AAV1@1@Z 1002c120 f   mathlib:mathlib_base.obj
 0001:0002b1c0       ?GammaToLinearFullRange@@YAMM@Z 1002c1c0 f   mathlib:mathlib_base.obj
 0001:0002b1e0       ?LinearToGammaFullRange@@YAMM@Z 1002c1e0 f   mathlib:mathlib_base.obj
 0001:0002b200       ?GammaToLinear@@YAMM@Z     1002c200 f   mathlib:mathlib_base.obj
 0001:0002b250       ?LinearToGamma@@YAMM@Z     1002c250 f   mathlib:mathlib_base.obj
 0001:0002b2a0       ?TextureToLinear@@YAMH@Z   1002c2a0 f   mathlib:mathlib_base.obj
 0001:0002b2c0       ?LinearToTexture@@YAHM@Z   1002c2c0 f   mathlib:mathlib_base.obj
 0001:0002b300       ?LinearToScreenGamma@@YAHM@Z 1002c300 f   mathlib:mathlib_base.obj
 0001:0002b340       ?SolveQuadratic@@YA_NMMMAAM0@Z 1002c340 f   mathlib:mathlib_base.obj
 0001:0002b410       ?SolveInverseQuadratic@@YA_NMMMMMMAAM00@Z 1002c410 f   mathlib:mathlib_base.obj
 0001:0002b510       ?SolveInverseReciprocalQuadratic@@YA_NMMMMMMAAM00@Z 1002c510 f   mathlib:mathlib_base.obj
 0001:0002b640       ?VectorYawRotate@@YAXABVVector@@MAAV1@@Z 1002c640 f   mathlib:mathlib_base.obj
 0001:0002b6f0       ?Bias@@YAMMM@Z             1002c6f0 f   mathlib:mathlib_base.obj
 0001:0002b740       ?Gain@@YAMMM@Z             1002c740 f   mathlib:mathlib_base.obj
 0001:0002b7d0       ?SmoothCurve@@YAMM@Z       1002c7d0 f   mathlib:mathlib_base.obj
 0001:0002b800       ?MovePeak@@YAMMM@Z         1002c800 f i mathlib:mathlib_base.obj
 0001:0002b850       ?SmoothCurve_Tweak@@YAMMMM@Z 1002c850 f   mathlib:mathlib_base.obj
 0001:0002b8c0       ?QuaternionAlign@@YAXABVQuaternion@@0AAV1@@Z 1002c8c0 f   mathlib:mathlib_base.obj
 0001:0002b9b0       ?QuaternionSlerpNoAlign@@YAXABVQuaternion@@0MAAV1@@Z 1002c9b0 f   mathlib:mathlib_base.obj
 0001:0002bb70       ?QuaternionConjugate@@YAXABVQuaternion@@AAV1@@Z 1002cb70 f   mathlib:mathlib_base.obj
 0001:0002bba0       ?QuaternionNormalize@@YAMAAVQuaternion@@@Z 1002cba0 f   mathlib:mathlib_base.obj
 0001:0002bc20       ?QuaternionScale@@YAXABVQuaternion@@MAAV1@@Z 1002cc20 f   mathlib:mathlib_base.obj
 0001:0002bd20       ?QuaternionAdd@@YAXABVQuaternion@@0AAV1@@Z 1002cd20 f   mathlib:mathlib_base.obj
 0001:0002bd70       ?QuaternionDotProduct@@YAMABVQuaternion@@0@Z 1002cd70 f   mathlib:mathlib_base.obj
 0001:0002bda0       ?QuaternionMult@@YAXABVQuaternion@@0AAV1@@Z 1002cda0 f   mathlib:mathlib_base.obj
 0001:0002be90       ?QuaternionMatrix@@YAXABVQuaternion@@AAUmatrix3x4_t@@@Z 1002ce90 f   mathlib:mathlib_base.obj
 0001:0002bf60       ?QuaternionAxisAngle@@YAXABVQuaternion@@AAVVector@@AAM@Z 1002cf60 f   mathlib:mathlib_base.obj
 0001:0002bfd0       ?AxisAngleQuaternion@@YAXABVVector@@MAAVQuaternion@@@Z 1002cfd0 f   mathlib:mathlib_base.obj
 0001:0002c040       ?AngleQuaternion@@YAXABVRadianEuler@@AAVQuaternion@@@Z 1002d040 f   mathlib:mathlib_base.obj
 0001:0002c160       ?Spline_Normalize@@YAXABVVector@@000AAV1@1@Z 1002d160 f   mathlib:mathlib_base.obj
 0001:0002c260       ?Catmull_Rom_Spline@@YAXABVVector@@000MAAV1@@Z 1002d260 f   mathlib:mathlib_base.obj
 0001:0002c5c0       ?Catmull_Rom_Spline_Tangent@@YAXABVVector@@000MAAV1@@Z 1002d5c0 f   mathlib:mathlib_base.obj
 0001:0002c8f0       ?Catmull_Rom_Spline_Normalize@@YAXABVVector@@000MAAV1@@Z 1002d8f0 f   mathlib:mathlib_base.obj
 0001:0002c9c0       ?Catmull_Rom_Spline_NormalizeX@@YAXABVVector@@000MAAV1@@Z 1002d9c0 f   mathlib:mathlib_base.obj
 0001:0002ca20       ?Hermite_Spline@@YAXABVVector@@000MAAV1@@Z 1002da20 f   mathlib:mathlib_base.obj
 0001:0002caf0       ?Hermite_Spline@@YAMMMMMM@Z 1002daf0 f   mathlib:mathlib_base.obj
 0001:0002cba0       ?Hermite_SplineBasis@@YAXMQAM@Z 1002dba0 f   mathlib:mathlib_base.obj
 0001:0002cc00       ?Hermite_Spline@@YAXABVVector@@00MAAV1@@Z 1002dc00 f   mathlib:mathlib_base.obj
 0001:0002cca0       ?Hermite_Spline@@YAMMMMM@Z 1002dca0 f   mathlib:mathlib_base.obj
 0001:0002ccf0       ?Hermite_Spline@@YAXABVQuaternion@@00MAAV1@@Z 1002dcf0 f   mathlib:mathlib_base.obj
 0001:0002ce60       ?Kochanek_Bartels_Spline@@YAXMMMABVVector@@000MAAV1@@Z 1002de60 f   mathlib:mathlib_base.obj
 0001:0002d2e0       ?Kochanek_Bartels_Spline_NormalizeX@@YAXMMMABVVector@@000MAAV1@@Z 1002e2e0 f   mathlib:mathlib_base.obj
 0001:0002d350       ?Cubic_Spline@@YAXABVVector@@000MAAV1@@Z 1002e350 f   mathlib:mathlib_base.obj
 0001:0002d4e0       ?Cubic_Spline_NormalizeX@@YAXABVVector@@000MAAV1@@Z 1002e4e0 f   mathlib:mathlib_base.obj
 0001:0002d540       ?BSpline@@YAXABVVector@@000MAAV1@@Z 1002e540 f   mathlib:mathlib_base.obj
 0001:0002d900       ?BSpline_NormalizeX@@YAXABVVector@@000MAAV1@@Z 1002e900 f   mathlib:mathlib_base.obj
 0001:0002d960       ?Parabolic_Spline@@YAXABVVector@@000MAAV1@@Z 1002e960 f   mathlib:mathlib_base.obj
 0001:0002db80       ?Parabolic_Spline_NormalizeX@@YAXABVVector@@000MAAV1@@Z 1002eb80 f   mathlib:mathlib_base.obj
 0001:0002dbe0       ?RangeCompressor@@YAMMMMM@Z 1002ebe0 f   mathlib:mathlib_base.obj
 0001:0002dcf0       ?CalcSqrDistanceToAABB@@YAMABVVector@@00@Z 1002ecf0 f   mathlib:mathlib_base.obj
 0001:0002dde0       ?CalcClosestPointOnAABB@@YAXABVVector@@00AAV1@@Z 1002ede0 f   mathlib:mathlib_base.obj
 0001:0002de80       ?CalcClosestPointToLineT@@YAMABVVector@@00AAV1@@Z 1002ee80 f   mathlib:mathlib_base.obj
 0001:0002df30       ?CalcClosestPointOnLine@@YAXABVVector@@00AAV1@PAM@Z 1002ef30 f   mathlib:mathlib_base.obj
 0001:0002df90       ?CalcDistanceToLine@@YAMABVVector@@00PAM@Z 1002ef90 f   mathlib:mathlib_base.obj
 0001:0002dfd0       ?CalcClosestPointOnLineSegment@@YAXABVVector@@00AAV1@PAM@Z 1002efd0 f   mathlib:mathlib_base.obj
 0001:0002e060       ?CalcDistanceToLineSegment@@YAMABVVector@@00PAM@Z 1002f060 f   mathlib:mathlib_base.obj
 0001:0002e0a0       ?CalcClosestPointToLineT2D@@YAMABVVector2D@@00AAV1@@Z 1002f0a0 f   mathlib:mathlib_base.obj
 0001:0002e130       ?CalcClosestPointOnLine2D@@YAXABVVector2D@@00AAV1@PAM@Z 1002f130 f   mathlib:mathlib_base.obj
 0001:0002e180       ?CalcDistanceToLine2D@@YAMABVVector2D@@00PAM@Z 1002f180 f   mathlib:mathlib_base.obj
 0001:0002e210       ?CalcDistanceSqrToLine2D@@YAMABVVector2D@@00PAM@Z 1002f210 f   mathlib:mathlib_base.obj
 0001:0002e290       ?CalcClosestPointOnLineSegment2D@@YAXABVVector2D@@00AAV1@PAM@Z 1002f290 f   mathlib:mathlib_base.obj
 0001:0002e320       ?CalcDistanceToLineSegment2D@@YAMABVVector2D@@00PAM@Z 1002f320 f   mathlib:mathlib_base.obj
 0001:0002e390       ?CalcDistanceSqrToLineSegment2D@@YAMABVVector2D@@00PAM@Z 1002f390 f   mathlib:mathlib_base.obj
 0001:0002e3f0       ?CalcLineToLineIntersectionSegment@@YA_NABVVector@@000PAV1@1PAM2@Z 1002f3f0 f   mathlib:mathlib_base.obj
 0001:0002e670       ?MathLib_3DNowEnabled@@YA_NXZ 1002f670 f   mathlib:mathlib_base.obj
 0001:0002e680       ?MathLib_MMXEnabled@@YA_NXZ 1002f680 f   mathlib:mathlib_base.obj
 0001:0002e690       ?MathLib_SSEEnabled@@YA_NXZ 1002f690 f   mathlib:mathlib_base.obj
 0001:0002e6a0       ?MathLib_SSE2Enabled@@YA_NXZ 1002f6a0 f   mathlib:mathlib_base.obj
 0001:0002e6b0       ?Approach@@YAMMMM@Z        1002f6b0 f   mathlib:mathlib_base.obj
 0001:0002e710       ?ApproachAngle@@YAMMMM@Z   1002f710 f   mathlib:mathlib_base.obj
 0001:0002e810       ?AngleDiff@@YAMMM@Z        1002f810 f   mathlib:mathlib_base.obj
 0001:0002e890       ?AngleDistance@@YAMMM@Z    1002f890 f   mathlib:mathlib_base.obj
 0001:0002e8e0       ?AngleNormalize@@YAMM@Z    1002f8e0 f   mathlib:mathlib_base.obj
 0001:0002e940       ?AngleNormalizePositive@@YAMM@Z 1002f940 f   mathlib:mathlib_base.obj
 0001:0002e980       ?AnglesAreEqual@@YA_NMMM@Z 1002f980 f   mathlib:mathlib_base.obj
 0001:0002e9c0       ?ComputeTrianglePlane@@YAXABVVector@@00AAV1@AAM@Z 1002f9c0 f   mathlib:mathlib_base.obj
 0001:0002ea80       ?PolyFromPlane@@YAHPAVVector@@ABV1@MM@Z 1002fa80 f   mathlib:mathlib_base.obj
 0001:0002ed40       ?ClipPolyToPlane@@YAHPAVVector@@H0ABV1@MM@Z 1002fd40 f   mathlib:mathlib_base.obj
 0001:0002f070       ?ClipPolyToPlane_Precise@@YAHPANH0PBNNN@Z 10030070 f   mathlib:mathlib_base.obj
 0001:0002f2c0       ?ColorRGBExp32ToVector@@YAXABUColorRGBExp32@@AAVVector@@@Z 100302c0 f   mathlib:mathlib_base.obj
 0001:0002f3d0       ?CeilPow2@@YAHH@Z          100303d0 f   mathlib:mathlib_base.obj
 0001:0002f3f0       ?FloorPow2@@YAHH@Z         100303f0 f   mathlib:mathlib_base.obj
 0001:0002f410       ??$_Pow_int@M@@YAMMH@Z     10030410 f i mathlib:mathlib_base.obj
 0001:0002f460       ??$swap@M@@YAXAAM0@Z       10030460 f i mathlib:mathlib_base.obj
 0001:0002f480       ?pow@@YAMMH@Z              10030480 f i mathlib:mathlib_base.obj
 0001:0002f4a0       ?DistToSqr@Vector@@QBEMABV1@@Z 100304a0 f i mathlib:mathlib_base.obj
 0001:0002f4f0       ?VectorRotate@@YAXABVVector@@ABUmatrix3x4_t@@AAV1@@Z 100304f0 f i mathlib:mathlib_base.obj
 0001:0002f550       ?VectorIRotate@@YAXABVVector@@ABUmatrix3x4_t@@AAV1@@Z 10030550 f i mathlib:mathlib_base.obj
 0001:0002f5b0       ?MatrixAngles@@YAXABUmatrix3x4_t@@AAVQAngle@@@Z 100305b0 f i mathlib:mathlib_base.obj
 0001:0002f5c0       ?MatrixAngles@@YAXABUmatrix3x4_t@@AAVRadianEuler@@@Z 100305c0 f i mathlib:mathlib_base.obj
 0001:0002f610       ?VectorTransform@@YAXABVVector@@ABUmatrix3x4_t@@AAV1@@Z 10030610 f i mathlib:mathlib_base.obj
 0001:0002f620       ?VectorITransform@@YAXABVVector@@ABUmatrix3x4_t@@AAV1@@Z 10030620 f i mathlib:mathlib_base.obj
 0001:0002f630       ?BoxOnPlaneSide@@YAHABVVector@@0PBUcplane_t@@@Z 10030630 f i mathlib:mathlib_base.obj
 0001:0002f640       ?MatrixAngles@@YAXABUmatrix3x4_t@@AAVRadianEuler@@AAVVector@@@Z 10030640 f   mathlib:mathlib_base.obj
 0001:0002f6a0       ?MatrixAngles@@YAXABUmatrix3x4_t@@AAVQuaternion@@AAVVector@@@Z 100306a0 f   mathlib:mathlib_base.obj
 0001:0002f7d0       ?VectorRotate@@YAXABVVector@@ABVQAngle@@AAV1@@Z 100307d0 f   mathlib:mathlib_base.obj
 0001:0002f840       ?TransformAnglesToWorldSpace@@YA?AVQAngle@@ABV1@ABUmatrix3x4_t@@@Z 10030840 f   mathlib:mathlib_base.obj
 0001:0002f880       ?MatrixInitialize@@YAXAAUmatrix3x4_t@@ABVVector@@111@Z 10030880 f   mathlib:mathlib_base.obj
 0001:0002f8e0       ?MatrixInvert@@YAXABUmatrix3x4_t@@AAU1@@Z 100308e0 f   mathlib:mathlib_base.obj
 0001:0002f9f0       ?AngleMatrix@@YAXABVRadianEuler@@AAUmatrix3x4_t@@@Z 100309f0 f   mathlib:mathlib_base.obj
 0001:0002fa30       ?AngleMatrix@@YAXABVQAngle@@ABVVector@@AAUmatrix3x4_t@@@Z 10030a30 f   mathlib:mathlib_base.obj
 0001:0002fa60       ?AngleIMatrix@@YAXABVRadianEuler@@AAUmatrix3x4_t@@@Z 10030a60 f   mathlib:mathlib_base.obj
 0001:0002faa0       ?AngleIMatrix@@YAXABVQAngle@@ABVVector@@AAUmatrix3x4_t@@@Z 10030aa0 f   mathlib:mathlib_base.obj
 0001:0002fb50       ?BuildExponentTable@@YAXXZ 10030b50 f   mathlib:mathlib_base.obj
 0001:0002fb90       ?BuildGammaTable@@YAXMMMH@Z 10030b90 f   mathlib:mathlib_base.obj
 0001:0002ff50       ?SolveInverseQuadraticMonotonic@@YA_NMMMMMMAAM00@Z 10030f50 f   mathlib:mathlib_base.obj
 0001:00030180       ?QuaternionBlendNoAlign@@YAXABVQuaternion@@0MAAV1@@Z 10031180 f   mathlib:mathlib_base.obj
 0001:000301f0       ?QuaternionIdentityBlend@@YAXABVQuaternion@@MAAV1@@Z 100311f0 f   mathlib:mathlib_base.obj
 0001:00030260       ?QuaternionSlerp@@YAXABVQuaternion@@0MAAV1@@Z 10031260 f   mathlib:mathlib_base.obj
 0001:000302a0       ?QuaternionAngleDiff@@YAMABVQuaternion@@0@Z 100312a0 f   mathlib:mathlib_base.obj
 0001:00030340       ?QuaternionInvert@@YAXABVQuaternion@@AAV1@@Z 10031340 f   mathlib:mathlib_base.obj
 0001:000303d0       ?QuaternionMatrix@@YAXABVQuaternion@@ABVVector@@AAUmatrix3x4_t@@@Z 100313d0 f   mathlib:mathlib_base.obj
 0001:00030400       ?AngleQuaternion@@YAXABVQAngle@@AAVQuaternion@@@Z 10031400 f   mathlib:mathlib_base.obj
 0001:00030440       ?QuaternionAngles@@YAXABVQuaternion@@AAVQAngle@@@Z 10031440 f   mathlib:mathlib_base.obj
 0001:00030470       ?BasisToQuaternion@@YAXABVVector@@00AAVQuaternion@@@Z 10031470 f   mathlib:mathlib_base.obj
 0001:00030530       ?QuaternionAngles@@YAXABVQuaternion@@AAVRadianEuler@@@Z 10031530 f   mathlib:mathlib_base.obj
 0001:00030590       ?TransformAABB@@YAXABUmatrix3x4_t@@ABVVector@@1AAV2@2@Z 10031590 f   mathlib:mathlib_base.obj
 0001:000306a0       ?ITransformAABB@@YAXABUmatrix3x4_t@@ABVVector@@1AAV2@2@Z 100316a0 f   mathlib:mathlib_base.obj
 0001:00030880       ?RotateAABB@@YAXABUmatrix3x4_t@@ABVVector@@1AAV2@2@Z 10031880 f   mathlib:mathlib_base.obj
 0001:000309e0       ?IRotateAABB@@YAXABUmatrix3x4_t@@ABVVector@@1AAV2@2@Z 100319e0 f   mathlib:mathlib_base.obj
 0001:00030c10       ?CalcDistanceSqrToLine@@YAMABVVector@@00PAM@Z 10031c10 f   mathlib:mathlib_base.obj
 0001:00030c80       ?CalcDistanceSqrToLineSegment@@YAMABVVector@@00PAM@Z 10031c80 f   mathlib:mathlib_base.obj
 0001:00030cf0       ?MathLib_Init@@YAXMMMH_N000@Z 10031cf0 f   mathlib:mathlib_base.obj
 0001:00030e90       ?RotationDeltaAxisAngle@@YAXABVQAngle@@0AAVVector@@AAM@Z 10031e90 f   mathlib:mathlib_base.obj
 0001:00030f50       ?RotationDelta@@YAXABVQAngle@@0PAV1@@Z 10031f50 f   mathlib:mathlib_base.obj
 0001:00030fe0       ?VectorToColorRGBExp32@@YAXABVVector@@AAUColorRGBExp32@@@Z 10031fe0 f   mathlib:mathlib_base.obj
 0001:00031170       ?R_CullBox@@YA_NABVVector@@0ABVFrustum_t@@@Z 10032170 f   mathlib:mathlib_base.obj
 0001:00031200       ?R_CullBoxSkipNear@@YA_NABVVector@@0ABVFrustum_t@@@Z 10032200 f   mathlib:mathlib_base.obj
 0001:00031280       ?TransformAnglesToLocalSpace@@YA?AVQAngle@@ABV1@ABUmatrix3x4_t@@@Z 10032280 f   mathlib:mathlib_base.obj
 0001:000312e0       ?AngleMatrix@@YAXABVRadianEuler@@ABVVector@@AAUmatrix3x4_t@@@Z 100322e0 f   mathlib:mathlib_base.obj
 0001:00031340       ?QuaternionBlend@@YAXABVQuaternion@@0MAAV1@@Z 10032340 f   mathlib:mathlib_base.obj
 0001:00031376       _Warning                   10032376 f   tier0:tier0.dll
 0001:0003137c       _Msg                       1003237c f   tier0:tier0.dll
 0001:00031382       _GetCPUInformation         10032382 f   tier0:tier0.dll
 0001:00031390       ?V_strlen@@YAHPBD@Z        10032390 f i tier1:convar.obj
 0001:000313b0       ?OneTimeInit@ConCommandBaseMgr@@SAXPAVIConCommandBaseAccessor@@@Z 100323b0 f   tier1:convar.obj
 0001:000313e0       ??0ConCommandBase@@QAE@XZ  100323e0 f   tier1:convar.obj
 0001:00031400       ??1ConCommandBase@@UAE@XZ  10032400 f   tier1:convar.obj
 0001:00031410       ?IsCommand@ConCommandBase@@UBE_NXZ 10032410 f   tier1:convar.obj
 0001:00031420       ?Create@ConCommandBase@@MAEXPBD0H@Z 10032420 f   tier1:convar.obj
 0001:00031470       ?Init@ConCommandBase@@MAEXXZ 10032470 f   tier1:convar.obj
 0001:00031490       ?GetCommands@ConCommandBase@@SAPBV1@XZ 10032490 f   tier1:convar.obj
 0001:000314a0       ?AddToList@ConCommandBase@@SAXPAV1@@Z 100324a0 f   tier1:convar.obj
 0001:000314c0       ?GetName@ConCommandBase@@UBEPBDXZ 100324c0 f   tier1:convar.obj
 0001:000314d0       ?RemoveFlaggedCommands@ConCommandBase@@SAXH@Z 100324d0 f   tier1:convar.obj
 0001:00031510       ?IsBitSet@ConCommandBase@@UBE_NH@Z 10032510 f   tier1:convar.obj
 0001:00031520       ?AddFlags@ConCommandBase@@UAEXH@Z 10032520 f   tier1:convar.obj
 0001:00031530       ?GetNext@ConCommandBase@@QBEPBV1@XZ 10032530 f   tier1:convar.obj
 0001:00031540       ?SetNext@ConCommandBase@@QAEXPAV1@@Z 10032540 f   tier1:convar.obj
 0001:00031550       ?CopyString@ConCommandBase@@IAEPADPBD@Z 10032550 f   tier1:convar.obj
 0001:000315a0       ?GetHelpText@ConCommandBase@@UBEPBDXZ 100325a0 f   tier1:convar.obj
 0001:000315b0       ?IsRegistered@ConCommandBase@@UBE_NXZ 100325b0 f   tier1:convar.obj
 0001:000315c0       ??1ConCommand@@UAE@XZ      100325c0 f   tier1:convar.obj
 0001:000315d0       ?IsCommand@ConCommand@@UBE_NXZ 100325d0 f   tier1:convar.obj
 0001:000315e0       ?Dispatch@ConCommand@@UAEXXZ 100325e0 f   tier1:convar.obj
 0001:000315f0       ?DefaultCompletionFunc@@YAHPBDQAY0EA@D@Z 100325f0 f   tier1:convar.obj
 0001:00031600       ?Create@ConCommand@@EAEXPBDP6AXXZ0HP6AH0QAY0EA@D@Z@Z 10032600 f   tier1:convar.obj
 0001:00031680       ?AutoCompleteSuggest@ConCommand@@UAEHPBDQAY0EA@D@Z 10032680 f   tier1:convar.obj
 0001:000316a0       ?CanAutoComplete@ConCommand@@UAE_NXZ 100326a0 f   tier1:convar.obj
 0001:000316b0       ??1ConVar@@UAE@XZ          100326b0 f   tier1:convar.obj
 0001:00031720       ?InstallChangeCallback@ConVar@@QAEXP6AXPAV1@PBD@Z@Z 10032720 f   tier1:convar.obj
 0001:00031740       ?IsBitSet@ConVar@@UBE_NH@Z 10032740 f   tier1:convar.obj
 0001:00031750       ?GetHelpText@ConVar@@UBEPBDXZ 10032750 f   tier1:convar.obj
 0001:00031760       ?AddFlags@ConVar@@UAEXH@Z  10032760 f   tier1:convar.obj
 0001:00031770       ?IsRegistered@ConVar@@UBE_NXZ 10032770 f   tier1:convar.obj
 0001:00031780       ?GetName@ConVar@@UBEPBDXZ  10032780 f   tier1:convar.obj
 0001:00031790       ?IsCommand@ConVar@@UBE_NXZ 10032790 f   tier1:convar.obj
 0001:000317a0       ?Init@ConVar@@EAEXXZ       100327a0 f   tier1:convar.obj
 0001:000317c0       ?InternalSetValue@ConVar@@EAEXPBD@Z 100327c0 f   tier1:convar.obj
 0001:00031850       ?ChangeStringValue@ConVar@@EAEXPBD@Z 10032850 f   tier1:convar.obj
 0001:00031900       ?ClampValue@ConVar@@EAE_NAAM@Z 10032900 f   tier1:convar.obj
 0001:00031950       ?InternalSetFloatValue@ConVar@@EAEXM@Z 10032950 f   tier1:convar.obj
 0001:000319f0       ?InternalSetIntValue@ConVar@@EAEXH@Z 100329f0 f   tier1:convar.obj
 0001:00031a80       ?Create@ConVar@@EAEXPBD0H0_NM1MP6AXPAV1@0@Z@Z 10032a80 f   tier1:convar.obj
 0001:00031b60       ?SetValue@ConVar@@UAEXPBD@Z 10032b60 f   tier1:convar.obj
 0001:00031b70       ?SetValue@ConVar@@UAEXM@Z  10032b70 f   tier1:convar.obj
 0001:00031b90       ?SetValue@ConVar@@UAEXH@Z  10032b90 f   tier1:convar.obj
 0001:00031ba0       ?Revert@ConVar@@QAEXXZ     10032ba0 f   tier1:convar.obj
 0001:00031bb0       ?RevertAll@ConVar@@SAXXZ   10032bb0 f   tier1:convar.obj
 0001:00031bf0       ?GetMin@ConVar@@QBE_NAAM@Z 10032bf0 f   tier1:convar.obj
 0001:00031c10       ?GetMax@ConVar@@QBE_NAAM@Z 10032c10 f   tier1:convar.obj
 0001:00031c30       ?GetDefault@ConVar@@QBEPBDXZ 10032c30 f   tier1:convar.obj
 0001:00031c40       ??_GConCommandBase@@UAEPAXI@Z 10032c40 f i tier1:convar.obj
 0001:00031c40       ??_EConCommandBase@@UAEPAXI@Z 10032c40 f i tier1:convar.obj
 0001:00031c60       ??0ConCommandBase@@QAE@PBD0H@Z 10032c60 f   tier1:convar.obj
 0001:00031cc0       ?FindCommand@ConCommandBase@@SAPBV1@PBD@Z 10032cc0 f   tier1:convar.obj
 0001:00031d00       ?RevertFlaggedCvars@ConCommandBase@@SAXH@Z 10032d00 f   tier1:convar.obj
 0001:00031d80       ??0ConCommand@@QAE@PBDP6AXXZ0HP6AH0QAY0EA@D@Z@Z 10032d80 f   tier1:convar.obj
 0001:00031e00       ??_GConCommand@@UAEPAXI@Z  10032e00 f i tier1:convar.obj
 0001:00031e00       ??_EConCommand@@UAEPAXI@Z  10032e00 f i tier1:convar.obj
 0001:00031e20       ??0ConVar@@QAE@PBD0H@Z     10032e20 f   tier1:convar.obj
 0001:00031ea0       ??_EConVar@@UAEPAXI@Z      10032ea0 f i tier1:convar.obj
 0001:00031ea0       ??_GConVar@@UAEPAXI@Z      10032ea0 f i tier1:convar.obj
 0001:00031ec0       ??0ConVar@@QAE@PBD0H0@Z    10032ec0 f   tier1:convar.obj
 0001:00031f40       ??0ConVar@@QAE@PBD0H0_NM1M@Z 10032f40 f   tier1:convar.obj
 0001:00031fd0       ??0ConVar@@QAE@PBD0H0P6AXPAV0@0@Z@Z 10032fd0 f   tier1:convar.obj
 0001:00032060       ??0ConVar@@QAE@PBD0H0_NM1MP6AXPAV0@0@Z@Z 10033060 f   tier1:convar.obj
 0001:00032100       ??0InterfaceReg@@QAE@P6APAXXZPBD@Z 10033100 f   tier1:interface.obj
 0001:00032120       _CreateInterface           10033120 f   tier1:interface.obj
 0001:00032200       ?Sys_LoadLibrary@@YAPAUHINSTANCE__@@PBD@Z 10033200 f   tier1:interface.obj
 0001:00032290       ?Sys_LoadModule@@YAPAVCSysModule@@PBD@Z 10033290 f   tier1:interface.obj
 0001:000323a0       ?Sys_UnloadModule@@YAXPAVCSysModule@@@Z 100333a0 f   tier1:interface.obj
 0001:000323b0       ?Sys_GetFactory@@YAP6APAXPBDPAH@ZPAVCSysModule@@@Z 100333b0 f   tier1:interface.obj
 0001:000323d0       ?Sys_GetFactoryThis@@YAP6APAXPBDPAH@ZXZ 100333d0 f   tier1:interface.obj
 0001:000323e0       ?Sys_GetFactory@@YAP6APAXPBDPAH@Z0@Z 100333e0 f   tier1:interface.obj
 0001:00032400       ?Sys_LoadInterface@@YA_NPBD0PAPAVCSysModule@@PAPAX@Z 10033400 f   tier1:interface.obj
 0001:00032460       ?abs@@YAMM@Z               10033460 f i tier1:bitbuf.obj
 0001:00032470       ?IsOverflowed@bf_write@@QBE_NXZ 10033470 f i tier1:bitbuf.obj
 0001:00032480       ?SetOverflowFlag@bf_write@@QAEXXZ 10033480 f i tier1:bitbuf.obj
 0001:00032490       ?WriteOneBitNoCheck@bf_write@@QAEXH@Z 10033490 f i tier1:bitbuf.obj
 0001:000324d0       ?WriteUBitLong@bf_write@@QAEXIH_N@Z 100334d0 f i tier1:bitbuf.obj
 0001:00032580       ?IsOverflowed@bf_read@@QBE_NXZ 10033580 f i tier1:bitbuf.obj
 0001:00032590       ?SetOverflowFlag@bf_read@@QAEXXZ 10033590 f i tier1:bitbuf.obj
 0001:000325a0       ?CheckForOverflow@bf_read@@IAE_NH@Z 100335a0 f i tier1:bitbuf.obj
 0001:000325c0       ?ReadOneBitNoCheck@bf_read@@IAEHXZ 100335c0 f i tier1:bitbuf.obj
 0001:00032600       ?ReadOneBit@bf_read@@QAEHXZ 10033600 f i tier1:bitbuf.obj
 0001:00032650       ?ReadUBitLong@bf_read@@QAEIH@Z 10033650 f i tier1:bitbuf.obj
 0001:000326d0       ?Init@QAngle@@QAEXMMM@Z    100336d0 f i tier1:bitbuf.obj
 0001:000326f0       ?V_memcpy@@YAXPAXPBXH@Z    100336f0 f i tier1:bitbuf.obj
 0001:00032700       ?InternalBitBufErrorHandler@@YAXW4BitBufErrorType@@PBD@Z 10033700 f   tier1:bitbuf.obj
 0001:00032710       ?SetBitBufErrorHandler@@YAXP6AXW4BitBufErrorType@@PBD@Z@Z 10033710 f   tier1:bitbuf.obj
 0001:00032720       ??0CBitWriteMasksInit@@QAE@XZ 10033720 f i tier1:bitbuf.obj
 0001:000327f0       ??0bf_write@@QAE@XZ        100337f0 f   tier1:bitbuf.obj
 0001:00032810       ?StartWriting@bf_write@@QAEXPAXHHH@Z 10033810 f   tier1:bitbuf.obj
 0001:00032850       ?Reset@bf_write@@QAEXXZ    10033850 f   tier1:bitbuf.obj
 0001:00032860       ?SetAssertOnOverflow@bf_write@@QAEX_N@Z 10033860 f   tier1:bitbuf.obj
 0001:00032870       ?GetDebugName@bf_write@@QAEPBDXZ 10033870 f   tier1:bitbuf.obj
 0001:00032880       ?SetDebugName@bf_write@@QAEXPBD@Z 10033880 f   tier1:bitbuf.obj
 0001:00032890       ?SeekToBit@bf_write@@QAEXH@Z 10033890 f   tier1:bitbuf.obj
 0001:000328a0       ?WriteBits@bf_write@@QAE_NPBXH@Z 100338a0 f   tier1:bitbuf.obj
 0001:000329b0       ?WriteBitsFromBuffer@bf_write@@QAE_NPAVbf_read@@H@Z 100339b0 f   tier1:bitbuf.obj
 0001:00032a90       ?WriteBitAngle@bf_write@@QAEXMH@Z 10033a90 f   tier1:bitbuf.obj
 0001:00032b00       ?WriteBitFloat@bf_write@@QAEXM@Z 10033b00 f   tier1:bitbuf.obj
 0001:00032b20       ?WriteByte@bf_write@@QAEXH@Z 10033b20 f   tier1:bitbuf.obj
 0001:00032b40       ?WriteWord@bf_write@@QAEXH@Z 10033b40 f   tier1:bitbuf.obj
 0001:00032b60       ?WriteFloat@bf_write@@QAEXM@Z 10033b60 f   tier1:bitbuf.obj
 0001:00032b70       ?WriteBytes@bf_write@@QAE_NPBXH@Z 10033b70 f   tier1:bitbuf.obj
 0001:00032b90       ??0bf_read@@QAE@XZ         10033b90 f   tier1:bitbuf.obj
 0001:00032bb0       ?StartReading@bf_read@@QAEXPBXHHH@Z 10033bb0 f   tier1:bitbuf.obj
 0001:00032bf0       ?Reset@bf_read@@QAEXXZ     10033bf0 f   tier1:bitbuf.obj
 0001:00032c00       ?SetAssertOnOverflow@bf_read@@QAEX_N@Z 10033c00 f   tier1:bitbuf.obj
 0001:00032c10       ?GetDebugName@bf_read@@QAEPBDXZ 10033c10 f   tier1:bitbuf.obj
 0001:00032c20       ?SetDebugName@bf_read@@QAEXPBD@Z 10033c20 f   tier1:bitbuf.obj
 0001:00032c30       ?CheckReadUBitLong@bf_read@@IAEIH@Z 10033c30 f   tier1:bitbuf.obj
 0001:00032c90       ?ReadBits@bf_read@@QAE_NPAXH@Z 10033c90 f   tier1:bitbuf.obj
 0001:00032e70       ?ReadBitAngle@bf_read@@QAEMH@Z 10033e70 f   tier1:bitbuf.obj
 0001:00032eb0       ?PeekUBitLong@bf_read@@QAEIH@Z 10033eb0 f   tier1:bitbuf.obj
 0001:00032f80       ?ReadSBitLong@bf_read@@QAEHH@Z 10033f80 f   tier1:bitbuf.obj
 0001:00032fe0       ?ReadUBitVar@bf_read@@QAEIXZ 10033fe0 f   tier1:bitbuf.obj
 0001:00033060       ?ReadBitLong@bf_read@@QAEIH_N@Z 10034060 f   tier1:bitbuf.obj
 0001:00033090       ?ReadBitCoord@bf_read@@QAEMXZ 10034090 f   tier1:bitbuf.obj
 0001:000331c0       ?ReadBitVec3Coord@bf_read@@QAEXAAVVector@@@Z 100341c0 f   tier1:bitbuf.obj
 0001:000332d0       ?ReadBitNormal@bf_read@@QAEMXZ 100342d0 f   tier1:bitbuf.obj
 0001:00033350       ?ReadBitVec3Normal@bf_read@@QAEXAAVVector@@@Z 10034350 f   tier1:bitbuf.obj
 0001:00033490       ?ReadBitAngles@bf_read@@QAEXAAVQAngle@@@Z 10034490 f   tier1:bitbuf.obj
 0001:000334c0       ?ReadChar@bf_read@@QAEHXZ  100344c0 f   tier1:bitbuf.obj
 0001:000334d0       ?ReadByte@bf_read@@QAEHXZ  100344d0 f   tier1:bitbuf.obj
 0001:000334e0       ?ReadShort@bf_read@@QAEHXZ 100344e0 f   tier1:bitbuf.obj
 0001:000334f0       ?ReadWord@bf_read@@QAEHXZ  100344f0 f   tier1:bitbuf.obj
 0001:00033500       ?ReadLong@bf_read@@QAEJXZ  10034500 f   tier1:bitbuf.obj
 0001:00033510       ?ReadFloat@bf_read@@QAEMXZ 10034510 f   tier1:bitbuf.obj
 0001:00033530       ?ReadBytes@bf_read@@QAE_NPAXH@Z 10034530 f   tier1:bitbuf.obj
 0001:00033550       ?ReadString@bf_read@@QAE_NPADH_NPAH@Z 10034550 f   tier1:bitbuf.obj
 0001:00033610       ?ReadAndAllocateString@bf_read@@QAEPADPA_N@Z 10034610 f   tier1:bitbuf.obj
 0001:00033690       ?Seek@bf_read@@QAE_NH@Z    10034690 f   tier1:bitbuf.obj
 0001:000336c0       ?CheckForOverflow@bf_write@@QAE_NH@Z 100346c0 f i tier1:bitbuf.obj
 0001:000336e0       ?WriteOneBit@bf_write@@QAEXH@Z 100346e0 f i tier1:bitbuf.obj
 0001:00033730       ??0bf_write@@QAE@PBDPAXHH@Z 10034730 f   tier1:bitbuf.obj
 0001:00033780       ??0bf_write@@QAE@PAXHH@Z   10034780 f   tier1:bitbuf.obj
 0001:000337c0       ?WriteSBitLong@bf_write@@QAEXHH@Z 100347c0 f   tier1:bitbuf.obj
 0001:00033850       ?WriteUBitVar@bf_write@@QAEXI@Z 10034850 f   tier1:bitbuf.obj
 0001:000338d0       ?WriteBitLong@bf_write@@QAEXIH_N@Z 100348d0 f   tier1:bitbuf.obj
 0001:00033900       ?WriteBitCoord@bf_write@@QAEXM@Z 10034900 f   tier1:bitbuf.obj
 0001:00033a20       ?WriteBitVec3Coord@bf_write@@QAEXABVVector@@@Z 10034a20 f   tier1:bitbuf.obj
 0001:00033b90       ?WriteBitNormal@bf_write@@QAEXM@Z 10034b90 f   tier1:bitbuf.obj
 0001:00033c20       ?WriteBitVec3Normal@bf_write@@QAEXABVVector@@@Z 10034c20 f   tier1:bitbuf.obj
 0001:00033da0       ?WriteBitAngles@bf_write@@QAEXABVQAngle@@@Z 10034da0 f   tier1:bitbuf.obj
 0001:00033dd0       ?WriteChar@bf_write@@QAEXH@Z 10034dd0 f   tier1:bitbuf.obj
 0001:00033de0       ?WriteShort@bf_write@@QAEXH@Z 10034de0 f   tier1:bitbuf.obj
 0001:00033df0       ?WriteLong@bf_write@@QAEXJ@Z 10034df0 f   tier1:bitbuf.obj
 0001:00033e00       ?WriteString@bf_write@@QAE_NPBD@Z 10034e00 f   tier1:bitbuf.obj
 0001:00033e80       ??0bf_read@@QAE@PBXHH@Z    10034e80 f   tier1:bitbuf.obj
 0001:00033ec0       ??0bf_read@@QAE@PBDPBXHH@Z 10034ec0 f   tier1:bitbuf.obj
 0001:00033f10       ?ExciseBits@bf_read@@QAEXHH@Z 10034f10 f   tier1:bitbuf.obj
 0001:00034040       ?strchr@@YAPADPADH@Z       10035040 f i tier1:strtools.obj
 0001:00034050       ?strstr@@YAPADPADPBD@Z     10035050 f i tier1:strtools.obj
 0001:00034060       ?V_stricmp@@YAHPBD0@Z      10035060 f i tier1:strtools.obj
 0001:00034070       ?_V_strlen@@YAHPBDH0@Z     10035070 f   tier1:strtools.obj
 0001:000340a0       ?_V_wcslen@@YAHPBDHPB_W@Z  100350a0 f   tier1:strtools.obj
 0001:000340c0       ?_V_strrchr@@YAPADPBDH0D@Z 100350c0 f   tier1:strtools.obj
 0001:00034110       ?_V_strcmp@@YAHPBDH00@Z    10035110 f   tier1:strtools.obj
 0001:00034170       ?_V_wcscmp@@YAHPBDHPB_W1@Z 10035170 f   tier1:strtools.obj
 0001:000341a0       ?_V_stricmp@@YAHPBDH00@Z   100351a0 f   tier1:strtools.obj
 0001:000341d0       ?_V_strstr@@YAPADPBDH00@Z  100351d0 f   tier1:strtools.obj
 0001:00034200       ?_V_strupr@@YAPADPBDHPAD@Z 10035200 f   tier1:strtools.obj
 0001:00034220       ?_V_strlower@@YAPADPBDHPAD@Z 10035220 f   tier1:strtools.obj
 0001:00034240       ?V_strncmp@@YAHPBD0H@Z     10035240 f   tier1:strtools.obj
 0001:000342a0       ?V_strnlwr@@YAPADPADI@Z    100352a0 f   tier1:strtools.obj
 0001:000342e0       ?V_strncasecmp@@YAHPBD0H@Z 100352e0 f   tier1:strtools.obj
 0001:00034360       ?V_strcasecmp@@YAHPBD0@Z   10035360 f   tier1:strtools.obj
 0001:000343a0       ?V_strnicmp@@YAHPBD0H@Z    100353a0 f   tier1:strtools.obj
 0001:000343e0       ?V_atoi@@YAHPBD@Z          100353e0 f   tier1:strtools.obj
 0001:000344a0       ?V_atof@@YAMPBD@Z          100354a0 f   tier1:strtools.obj
 0001:00034630       ?V_normalizeFloatString@@YAXPAD@Z 10035630 f   tier1:strtools.obj
 0001:00034690       ?V_stristr@@YAPBDPBD0@Z    10035690 f   tier1:strtools.obj
 0001:00034760       ?V_stristr@@YAPADPADPBD@Z  10035760 f   tier1:strtools.obj
 0001:00034790       ?V_strnistr@@YAPBDPBD0H@Z  10035790 f   tier1:strtools.obj
 0001:00034890       ?V_strnchr@@YAPBDPBDDH@Z   10035890 f   tier1:strtools.obj
 0001:000348c0       ?V_strncat@@YAPADPADPBDIH@Z 100358c0 f   tier1:strtools.obj
 0001:00034980       ?V_hextobinary@@YAXPBDHPAEH@Z 10035980 f   tier1:strtools.obj
 0001:00034a60       ?V_StripTrailingSlash@@YAXPAD@Z 10035a60 f   tier1:strtools.obj
 0001:00034aa0       ?V_DefaultExtension@@YAXPADPBDH@Z 10035aa0 f   tier1:strtools.obj
 0001:00034b50       ?V_StripFilename@@YAXPAD@Z 10035b50 f   tier1:strtools.obj
 0001:00034b90       ?V_FixSlashes@@YAXPADD@Z   10035b90 f   tier1:strtools.obj
 0001:00034bc0       ?V_UnqualifiedFileName@@YAPBDPBD@Z 10035bc0 f   tier1:strtools.obj
 0001:00034c00       ?V_ExtractFilePath@@YA_NPBDPADH@Z 10035c00 f   tier1:strtools.obj
 0001:00034c70       ?V_GetFileExtension@@YAPBDPBD@Z 10035c70 f   tier1:strtools.obj
 0001:00034cc0       ?V_RemoveDotSlashes@@YA_NPAD@Z 10035cc0 f   tier1:strtools.obj
 0001:00034de0       ?V_AppendSlash@@YAXPADH@Z  10035de0 f   tier1:strtools.obj
 0001:00034e40       ?V_IsAbsolutePath@@YA_NPBD@Z 10035e40 f   tier1:strtools.obj
 0001:00034ec0       ?V_StrSlice@@YAXPBDHHPADH@Z 10035ec0 f   tier1:strtools.obj
 0001:00034f80       ?V_StrLeft@@YAXPBDHPADH@Z  10035f80 f   tier1:strtools.obj
 0001:00034fc0       ?V_strtowcs@@YAXPBDHPA_WH@Z 10035fc0 f   tier1:strtools.obj
 0001:00034ff0       ?V_wcstostr@@YAXPB_WHPADH@Z 10035ff0 f   tier1:strtools.obj
 0001:00035020       ??$AssertValidWritePtr@X@@YAXPAXH@Z 10036020 f i tier1:strtools.obj
 0001:00035030       ??$AssertValidReadPtr@$$CBX@@YAXPBXH@Z 10036030 f i tier1:strtools.obj
 0001:00035040       ??$AssertValidWritePtr@D@@YAXPADH@Z 10036040 f i tier1:strtools.obj
 0001:00035050       ??$AssertValidWritePtr@_W@@YAXPA_WH@Z 10036050 f i tier1:strtools.obj
 0001:00035060       ??$AssertValidReadPtr@$$CB_W@@YAXPB_WH@Z 10036060 f i tier1:strtools.obj
 0001:00035070       ?Base@?$CUtlMemory@PAD@@QAEPAPADXZ 10036070 f i tier1:strtools.obj
 0001:00035080       ??$CopyConstruct@PAD@@YAXPAPADABQAD@Z 10036080 f i tier1:strtools.obj
 0001:000350a0       ??$Destruct@PAD@@YAXPAPAD@Z 100360a0 f i tier1:strtools.obj
 0001:000350b0       ?IsExternallyAllocated@?$CUtlMemory@PAD@@QBE_NXZ 100360b0 f i tier1:strtools.obj
 0001:000350c0       ?NumAllocated@?$CUtlMemory@PAD@@QBEHXZ 100360c0 f i tier1:strtools.obj
 0001:000350d0       ?Grow@?$CUtlMemory@PAD@@QAEXH@Z 100360d0 f i tier1:strtools.obj
 0001:00035140       ?_V_memset@@YAXPBDHPAXHH@Z 10036140 f   tier1:strtools.obj
 0001:00035170       ?_V_memcpy@@YAXPBDHPAXPBXH@Z 10036170 f   tier1:strtools.obj
 0001:000351a0       ?_V_memmove@@YAXPBDHPAXPBXH@Z 100361a0 f   tier1:strtools.obj
 0001:000351d0       ?_V_memcmp@@YAHPBDHPBX1H@Z 100361d0 f   tier1:strtools.obj
 0001:00035280       ?_V_strcpy@@YAXPBDHPAD0@Z  10036280 f   tier1:strtools.obj
 0001:000352c0       ?V_strncpy@@YAXPADPBDH@Z   100362c0 f   tier1:strtools.obj
 0001:00035300       ?V_wcsncpy@@YAXPA_WPB_WH@Z 10036300 f   tier1:strtools.obj
 0001:00035340       ?V_snprintf@@YAHPADHPBDZZ  10036340 f   tier1:strtools.obj
 0001:00035390       ?V_vsnprintf@@YAHPADHPBD0@Z 10036390 f   tier1:strtools.obj
 0001:000353e0       ?V_pretifymem@@YAPADMH_N@Z 100363e0 f   tier1:strtools.obj
 0001:000355a0       ?V_pretifynum@@YAPAD_J@Z   100365a0 f   tier1:strtools.obj
 0001:00035850       ?V_UTF8ToUnicode@@YAHPBDPA_WH@Z 10036850 f   tier1:strtools.obj
 0001:000358a0       ?V_UnicodeToUTF8@@YAHPB_WPADH@Z 100368a0 f   tier1:strtools.obj
 0001:000358f0       ?V_binarytohex@@YAXPBEHPADH@Z 100368f0 f   tier1:strtools.obj
 0001:000359d0       ?V_FileBase@@YAXPBDPADH@Z  100369d0 f   tier1:strtools.obj
 0001:00035a90       ?V_StripExtension@@YAXPBDPADH@Z 10036a90 f   tier1:strtools.obj
 0001:00035b10       ?V_SetExtension@@YAXPADPBDH@Z 10036b10 f   tier1:strtools.obj
 0001:00035b40       ?V_StripLastDir@@YA_NPADH@Z 10036b40 f   tier1:strtools.obj
 0001:00035be0       ?V_ComposeFileName@@YAXPBD0PADH@Z 10036be0 f   tier1:strtools.obj
 0001:00035ca0       ?V_ExtractFileExtension@@YAXPBDPADH@Z 10036ca0 f   tier1:strtools.obj
 0001:00035cf0       ?V_MakeAbsolutePath@@YAXPADHPBD1@Z 10036cf0 f   tier1:strtools.obj
 0001:00035e10       ?V_StrSubst@@YA_NPBD00PADH_N@Z 10036e10 f   tier1:strtools.obj
 0001:00035f90       ?AllocString@@YAPADPBDH@Z  10036f90 f   tier1:strtools.obj
 0001:00036010       ?V_StrRight@@YAXPBDHPADH@Z 10037010 f   tier1:strtools.obj
 0001:000360a0       ?Base@?$CUtlVector@PADV?$CUtlMemory@PAD@@@@QAEPAPADXZ 100370a0 f i tier1:strtools.obj
 0001:000360b0       ?Purge@?$CUtlMemory@PAD@@QAEXXZ 100370b0 f i tier1:strtools.obj
 0001:000360e0       ?Element@?$CUtlVector@PADV?$CUtlMemory@PAD@@@@QAEAAPADH@Z 100370e0 f i tier1:strtools.obj
 0001:000360f0       ?ShiftElementsRight@?$CUtlVector@PADV?$CUtlMemory@PAD@@@@IAEXHH@Z 100370f0 f i tier1:strtools.obj
 0001:00036130       ?ResetDbgInfo@?$CUtlVector@PADV?$CUtlMemory@PAD@@@@IAEXXZ 10037130 f i tier1:strtools.obj
 0001:00036140       ?RemoveAll@?$CUtlVector@PADV?$CUtlMemory@PAD@@@@QAEXXZ 10037140 f i tier1:strtools.obj
 0001:00036150       ?GrowVector@?$CUtlVector@PADV?$CUtlMemory@PAD@@@@IAEXH@Z 10037150 f i tier1:strtools.obj
 0001:00036180       ?Purge@?$CUtlVector@PADV?$CUtlMemory@PAD@@@@QAEXXZ 10037180 f i tier1:strtools.obj
 0001:000361d0       ?InsertBefore@?$CUtlVector@PADV?$CUtlMemory@PAD@@@@QAEHHABQAD@Z 100371d0 f i tier1:strtools.obj
 0001:00036240       ?AddToTail@?$CUtlVector@PADV?$CUtlMemory@PAD@@@@QAEHABQAD@Z 10037240 f i tier1:strtools.obj
 0001:00036260       ?V_SplitString2@@YAXPBDPAPBDHAAV?$CUtlVector@PADV?$CUtlMemory@PAD@@@@@Z 10037260 f   tier1:strtools.obj
 0001:00036430       ?V_SplitString@@YAXPBD0AAV?$CUtlVector@PADV?$CUtlMemory@PAD@@@@@Z 10037430 f   tier1:strtools.obj
 0001:0003644a       _GetCVarIF                 1003744a f   vstdlib:vstdlib.dll
 0001:00036450       _strrchr                   10037450 f   LIBCMT:strrchr.obj
 0001:0003647d       ?_JumpToContinuation@@YGXPAXPAUEHRegistrationNode@@@Z 1003747d f   LIBCMT:trnsctrl.obj
 0001:000364ad       ?_CallMemberFunction0@@YGXPAX0@Z 100374ad f   LIBCMT:trnsctrl.obj
 0001:000364b4       ?_CallMemberFunction1@@YGXPAX00@Z 100374b4 f   LIBCMT:trnsctrl.obj
 0001:000364bb       ?_CallMemberFunction2@@YGXPAX00H@Z 100374bb f   LIBCMT:trnsctrl.obj
 0001:000364c2       ?_UnwindNestedFrames@@YGXPAUEHRegistrationNode@@PAUEHExceptionRecord@@@Z 100374c2 f   LIBCMT:trnsctrl.obj
 0001:00036514       ___CxxFrameHandler         10037514 f   LIBCMT:trnsctrl.obj
 0001:0003654a       ___CxxFrameHandler3        1003754a f   LIBCMT:trnsctrl.obj
 0001:00036580       ___CxxFrameHandler2        10037580 f   LIBCMT:trnsctrl.obj
 0001:000365b6       ___CxxLongjmpUnwind@4      100375b6 f   LIBCMT:trnsctrl.obj
 0001:00036600       ?_CallSETranslator@@YAHPAUEHExceptionRecord@@PAUEHRegistrationNode@@PAX2PBU_s_FuncInfo@@H1@Z 10037600 f   LIBCMT:trnsctrl.obj
 0001:00036772       ?_GetRangeOfTrysToCheck@@YAPBU_s_TryBlockMapEntry@@PBU_s_FuncInfo@@HHPAI1@Z 10037772 f   LIBCMT:trnsctrl.obj
 0001:000367e5       __CreateFrameInfo          100377e5 f   LIBCMT:trnsctrl.obj
 0001:0003680d       __IsExceptionObjectToBeDestroyed 1003780d f   LIBCMT:trnsctrl.obj
 0001:0003682e       __FindAndUnlinkFrame       1003782e f   LIBCMT:trnsctrl.obj
 0001:0003687a       ?_CallCatchBlock2@@YAPAXPAUEHRegistrationNode@@PBU_s_FuncInfo@@PAXHK@Z 1003787a f   LIBCMT:trnsctrl.obj
 0001:000368d8       @__security_check_cookie@4 100378d8 f   LIBCMT:secchk.obj
 0001:000368f0       _memset                    100378f0 f   LIBCMT:memset.obj
 0001:0003696a       __vsnprintf_l              1003796a f   LIBCMT:vsnprint.obj
 0001:00036a1b       __vsnprintf                10037a1b f   LIBCMT:vsnprint.obj
 0001:00036a36       ?name@type_info@@QBEPBDPAU__type_info_node@@@Z 10037a36 f   LIBCMT:typinfo.obj
 0001:00036a45       ??1type_info@@UAE@XZ       10037a45 f   LIBCMT:typinfo.obj
 0001:00036a53       ??_Etype_info@@UAEPAXI@Z   10037a53 f i LIBCMT:typinfo.obj
 0001:00036a53       ??_Gtype_info@@UAEPAXI@Z   10037a53 f i LIBCMT:typinfo.obj
 0001:00036a6f       ?_name_internal_method@type_info@@QBEPBDPAU__type_info_node@@@Z 10037a6f f   LIBCMT:typinfo.obj
 0001:00036a7e       ?_type_info_dtor_internal_method@type_info@@QAEXXZ 10037a7e f   LIBCMT:typinfo.obj
 0001:00036a86       ??8type_info@@QBE_NABV0@@Z 10037a86 f   LIBCMT:typinfo.obj
 0001:00036aa1       ??9type_info@@QBE_NABV0@@Z 10037aa1 f   LIBCMT:typinfo.obj
 0001:00036abd       ?before@type_info@@QBEHABV1@@Z 10037abd f   LIBCMT:typinfo.obj
 0001:00036adc       ?raw_name@type_info@@QBEPBDXZ 10037adc f   LIBCMT:typinfo.obj
 0001:00036ae0       ??0type_info@@AAE@ABV0@@Z  10037ae0 f   LIBCMT:typinfo.obj
 0001:00036aeb       ??4type_info@@AAEAAV0@ABV0@@Z 10037aeb f   LIBCMT:typinfo.obj
 0001:00036af0       __purecall                 10037af0 f   LIBCMT:purevirt.obj
 0001:00036b1a       __set_purecall_handler     10037b1a f   LIBCMT:purevirt.obj
 0001:00036b3c       __get_purecall_handler     10037b3c f   LIBCMT:purevirt.obj
 0001:00036b49       _memcpy_s                  10037b49 f   LIBCMT:memcpy_s.obj
 0001:00036bd0       _memchr                    10037bd0 f   LIBCMT:memchr.obj
 0001:00036c7d       _memmove_s                 10037c7d f   LIBCMT:memmove_s.obj
 0001:00036cd8       ??0exception@std@@QAE@XZ   10037cd8 f   LIBCMT:stdexcpt.obj
 0001:00036ce9       ??0exception@std@@QAE@ABQBD@Z 10037ce9 f   LIBCMT:stdexcpt.obj
 0001:00036d37       ??0exception@std@@QAE@ABQBDH@Z 10037d37 f   LIBCMT:stdexcpt.obj
 0001:00036d4f       ??0exception@std@@QAE@ABV01@@Z 10037d4f f   LIBCMT:stdexcpt.obj
 0001:00036da7       ??4exception@std@@QAEAAV01@ABV01@@Z 10037da7 f   LIBCMT:stdexcpt.obj
 0001:00036dfd       ??1exception@std@@UAE@XZ   10037dfd f   LIBCMT:stdexcpt.obj
 0001:00036e13       ?what@exception@std@@UBEPBDXZ 10037e13 f   LIBCMT:stdexcpt.obj
 0001:00036e20       ??0bad_cast@std@@QAE@PBD@Z 10037e20 f   LIBCMT:stdexcpt.obj
 0001:00036e39       ??0bad_cast@std@@QAE@ABV01@@Z 10037e39 f   LIBCMT:stdexcpt.obj
 0001:00036e51       ??1bad_cast@std@@UAE@XZ    10037e51 f   LIBCMT:stdexcpt.obj
 0001:00036e5c       ??0bad_typeid@std@@QAE@PBD@Z 10037e5c f   LIBCMT:stdexcpt.obj
 0001:00036e75       ??0bad_typeid@std@@QAE@ABV01@@Z 10037e75 f   LIBCMT:stdexcpt.obj
 0001:00036e8d       ??1bad_typeid@std@@UAE@XZ  10037e8d f   LIBCMT:stdexcpt.obj
 0001:00036e98       ??0__non_rtti_object@std@@QAE@PBD@Z 10037e98 f   LIBCMT:stdexcpt.obj
 0001:00036eb0       ??0__non_rtti_object@std@@QAE@ABV01@@Z 10037eb0 f   LIBCMT:stdexcpt.obj
 0001:00036ec8       ??1__non_rtti_object@std@@UAE@XZ 10037ec8 f   LIBCMT:stdexcpt.obj
 0001:00036ed3       ??_Gexception@std@@UAEPAXI@Z 10037ed3 f i LIBCMT:stdexcpt.obj
 0001:00036ed3       ??_Eexception@std@@UAEPAXI@Z 10037ed3 f i LIBCMT:stdexcpt.obj
 0001:00036eef       ??_Ebad_cast@std@@UAEPAXI@Z 10037eef f i LIBCMT:stdexcpt.obj
 0001:00036eef       ??_Gbad_cast@std@@UAEPAXI@Z 10037eef f i LIBCMT:stdexcpt.obj
 0001:00036f11       ??_Ebad_typeid@std@@UAEPAXI@Z 10037f11 f i LIBCMT:stdexcpt.obj
 0001:00036f11       ??_Gbad_typeid@std@@UAEPAXI@Z 10037f11 f i LIBCMT:stdexcpt.obj
 0001:00036f33       ??_E__non_rtti_object@std@@UAEPAXI@Z 10037f33 f i LIBCMT:stdexcpt.obj
 0001:00036f33       ??_G__non_rtti_object@std@@UAEPAXI@Z 10037f33 f i LIBCMT:stdexcpt.obj
 0001:00036f55       __fpclear                  10037f55 f   LIBCMT:fpinit.obj
 0001:00036f56       __cfltcvt_init             10037f56 f   LIBCMT:fpinit.obj
 0001:00036fb6       ___setfflag                10037fb6 f   LIBCMT:fpinit.obj
 0001:00036fc6       __fpmath                   10037fc6 f   LIBCMT:fpinit.obj
 0001:00036fe4       __initp_misc_invarg        10037fe4 f   LIBCMT:invarg.obj
 0001:00036fee       __invoke_watson            10037fee f   LIBCMT:invarg.obj
 0001:000370ea       __set_invalid_parameter_handler 100380ea f   LIBCMT:invarg.obj
 0001:0003710c       __get_invalid_parameter_handler 1003810c f   LIBCMT:invarg.obj
 0001:00037119       ?_invoke_watson@@YAXPBG00II@Z 10038119 f   LIBCMT:invarg.obj
 0001:00037122       __invalid_parameter        10038122 f   LIBCMT:invarg.obj
 0001:00037146       __invalid_parameter_noinfo 10038146 f   LIBCMT:invarg.obj
 0001:00037156       ?_invalid_parameter@@YAXPBG00II@Z 10038156 f   LIBCMT:invarg.obj
 0001:0003715f       __CxxThrowException@8      1003815f f   LIBCMT:throw.obj
 0001:000371a9       _localeconv                100381a9 f   LIBCMT:lconv.obj
 0001:000371d0       _strcspn                   100381d0 f   LIBCMT:strcspn.obj
 0001:00037216       _sprintf                   10038216 f   LIBCMT:sprintf.obj
 0001:00037291       __sprintf_l                10038291 f   LIBCMT:sprintf.obj
 0001:000372ab       _sprintf_s                 100382ab f   LIBCMT:sprintf.obj
 0001:000372c7       __sprintf_s_l              100382c7 f   LIBCMT:sprintf.obj
 0001:000372e4       __snprintf_s               100382e4 f   LIBCMT:sprintf.obj
 0001:00037303       __snprintf_s_l             10038303 f   LIBCMT:sprintf.obj
 0001:00037323       __sprintf_p                10038323 f   LIBCMT:sprintf.obj
 0001:0003733f       __sprintf_p_l              1003833f f   LIBCMT:sprintf.obj
 0001:0003735c       __scprintf                 1003835c f   LIBCMT:sprintf.obj
 0001:0003736d       __scprintf_p               1003836d f   LIBCMT:sprintf.obj
 0001:0003737e       __scprintf_l               1003837e f   LIBCMT:sprintf.obj
 0001:00037394       __scprintf_p_l             10038394 f   LIBCMT:sprintf.obj
 0001:000373b0       _memmove                   100383b0 f   LIBCMT:memmove.obj
 0001:00037715       __gmtime64_s               10038715 f   LIBCMT:gmtime64.obj
 0001:00037951       __gmtime64                 10038951 f   LIBCMT:gmtime64.obj
 0001:00037975       __invoke_watson_if_error   10038975 f i LIBCMT:loctim64.obj
 0001:00037997       __localtime64_s            10038997 f   LIBCMT:loctim64.obj
 0001:00037c3f       __localtime64              10038c3f f   LIBCMT:loctim64.obj
 0001:00037c63       __time64                   10038c63 f   LIBCMT:time64.obj
 0001:00037c9f       ??0_LocaleUpdate@@QAE@PAUlocaleinfo_struct@@@Z 10038c9f f i LIBCMT:strftime.obj
 0001:00037d21       ??1_LocaleUpdate@@QAE@XZ   10038d21 f i LIBCMT:strftime.obj
 0001:00037d2f       ?GetLocaleT@_LocaleUpdate@@QAEPAUlocaleinfo_struct@@XZ 10038d2f f i LIBCMT:strftime.obj
 0001:00037d32       __MarkAllocaS              10038d32 f i LIBCMT:strftime.obj
 0001:00037d44       __freea                    10038d44 f i LIBCMT:strftime.obj
 0001:00037d5f       __Getdays_l                10038d5f f   LIBCMT:strftime.obj
 0001:00037e5d       __Getdays                  10038e5d f   LIBCMT:strftime.obj
 0001:00037e66       __Getmonths_l              10038e66 f   LIBCMT:strftime.obj
 0001:00037f64       __Getmonths                10038f64 f   LIBCMT:strftime.obj
 0001:00037f6d       __Gettnames_l              10038f6d f   LIBCMT:strftime.obj
 0001:000382c2       __Gettnames                100392c2 f   LIBCMT:strftime.obj
 0001:00038c92       __Strftime_l               10039c92 f   LIBCMT:strftime.obj
 0001:00038e41       __strftime_l               10039e41 f   LIBCMT:strftime.obj
 0001:00038e5f       _strftime                  10039e5f f   LIBCMT:strftime.obj
 0001:00038e7c       __Strftime                 10039e7c f   LIBCMT:strftime.obj
 0001:00038ea0       __ftol2_sse                10039ea0 f   LIBCMT:ftol2.obj
 0001:00038ea9       __ftol2_pentium4           10039ea9 f   LIBCMT:ftol2.obj
 0001:00038ebc       __ftol2_sse_excpt          10039ebc f   LIBCMT:ftol2.obj
 0001:00038ed6       __ftol2                    10039ed6 f   LIBCMT:ftol2.obj
 0001:00038f4b       _atol                      10039f4b f   LIBCMT:atox.obj
 0001:00038f5c       __atol_l                   10039f5c f   LIBCMT:atox.obj
 0001:00038f71       _atoi                      10039f71 f   LIBCMT:atox.obj
 0001:00038f76       __atoi_l                   10039f76 f   LIBCMT:atox.obj
 0001:00038f7b       __atoi64                   10039f7b f   LIBCMT:atox.obj
 0001:00038f8c       __atoi64_l                 10039f8c f   LIBCMT:atox.obj
 0001:0003904e       ___onexitinit              1003a04e f   LIBCMT:onexit.obj
 0001:0003907d       __onexit                   1003a07d f   LIBCMT:onexit.obj
 0001:000390b9       _atexit                    1003a0b9 f   LIBCMT:onexit.obj
 0001:000390cb       _fgetc                     1003a0cb f   LIBCMT:fgetc.obj
 0001:00039202       _getc                      1003a202 f   LIBCMT:fgetc.obj
 0001:00039339       __getc_nolock              1003a339 f   LIBCMT:fgetc.obj
 0001:00039353       _fputc                     1003a353 f   LIBCMT:fputc.obj
 0001:00039492       _putc                      1003a492 f   LIBCMT:fputc.obj
 0001:000395d1       __ungetc_nolock            1003a5d1 f   LIBCMT:ungetc.obj
 0001:000396ef       _ungetc                    1003a6ef f   LIBCMT:ungetc.obj
 0001:00039761       __flush                    1003a761 f   LIBCMT:fflush.obj
 0001:000397c3       __fflush_nolock            1003a7c3 f   LIBCMT:fflush.obj
 0001:000398df       _fflush                    1003a8df f   LIBCMT:fflush.obj
 0001:00039932       __flushall                 1003a932 f   LIBCMT:fflush.obj
 0001:0003993b       _setvbuf                   1003a93b f   LIBCMT:setvbuf.obj
 0001:00039a39       __fwrite_nolock            1003aa39 f   LIBCMT:fwrite.obj
 0001:00039b53       _fwrite                    1003ab53 f   LIBCMT:fwrite.obj
 0001:00039be0       _fgetpos                   1003abe0 f   LIBCMT:fgetpos.obj
 0001:00039c4b       __fseek_nolock             1003ac4b f   LIBCMT:fseek.obj
 0001:00039cd2       _fseek                     1003acd2 f   LIBCMT:fseek.obj
 0001:00039d57       _fsetpos                   1003ad57 f   LIBCMT:fsetpos.obj
 0001:00039d99       __fclose_nolock            1003ad99 f   LIBCMT:fclose.obj
 0001:00039e0c       _fclose                    1003ae0c f   LIBCMT:fclose.obj
 0001:00039e88       ??_L@YGXPAXIHP6EX0@Z1@Z    1003ae88 f   LIBCMT:ehvecctr.obj
 0001:00039eff       ?__ArrayUnwind@@YGXPAXIHP6EX0@Z@Z 1003aeff f   LIBCMT:ehvecdtr.obj
 0001:00039f5d       ??_M@YGXPAXIHP6EX0@Z@Z     1003af5d f   LIBCMT:ehvecdtr.obj
 0001:00039fc0       __set_osplatform           1003afc0 f i LIBCMT:dllcrt0.obj
 0001:00039fca       __set_osver                1003afca f i LIBCMT:dllcrt0.obj
 0001:00039fd4       __set_winver               1003afd4 f i LIBCMT:dllcrt0.obj
 0001:00039fde       __set_winmajor             1003afde f i LIBCMT:dllcrt0.obj
 0001:00039fe8       __set_winminor             1003afe8 f i LIBCMT:dllcrt0.obj
 0001:00039ff2       __CRT_INIT@12              1003aff2 f   LIBCMT:dllcrt0.obj
 0001:0003a2c1       __DllMainCRTStartup@12     1003b2c1 f   LIBCMT:dllcrt0.obj
 0001:0003a2f0       _acos                      1003b2f0 f   LIBCMT:acos.obj
 0001:0003a330       __CIacos                   1003b330 f   LIBCMT:acos.obj
 0001:0003a36b       __CIacos_default           1003b36b f   LIBCMT:acos.obj
 0001:0003a37f       __acos_default             1003b37f     LIBCMT:acos.obj
 0001:0003a440       _asin                      1003b440 f   LIBCMT:asin.obj
 0001:0003a480       __CIasin                   1003b480 f   LIBCMT:asin.obj
 0001:0003a4bb       __CIasin_default           1003b4bb f   LIBCMT:asin.obj
 0001:0003a4cf       __asin_default             1003b4cf     LIBCMT:asin.obj
 0001:0003a590       _atan2                     1003b590 f   LIBCMT:87ctriga.obj
 0001:0003a59a       __CIatan2                  1003b59a f   LIBCMT:87ctriga.obj
 0001:0003a5b0       _cos                       1003b5b0 f   LIBCMT:cos.obj
 0001:0003a5f0       __CIcos                    1003b5f0 f   LIBCMT:cos.obj
 0001:0003a62b       __CIcos_default            1003b62b f   LIBCMT:cos.obj
 0001:0003a63f       __cos_default              1003b63f     LIBCMT:cos.obj
 0001:0003a6e0       _fmod                      1003b6e0 f   LIBCMT:87fmod.obj
 0001:0003a6ea       __CIfmod                   1003b6ea f   LIBCMT:87fmod.obj
 0001:0003a720       _log                       1003b720 f   LIBCMT:log.obj
 0001:0003a760       __CIlog                    1003b760 f   LIBCMT:log.obj
 0001:0003a79b       __CIlog_default            1003b79b f   LIBCMT:log.obj
 0001:0003a7af       __log_default              1003b7af     LIBCMT:log.obj
 0001:0003a870       _pow                       1003b870 f   LIBCMT:pow.obj
 0001:0003a8b0       __CIpow                    1003b8b0 f   LIBCMT:pow.obj
 0001:0003a8eb       __CIpow_default            1003b8eb f   LIBCMT:pow.obj
 0001:0003a904       __pow_default              1003b904     LIBCMT:pow.obj
 0001:0003ab00       _sin                       1003bb00 f   LIBCMT:sin.obj
 0001:0003ab40       __CIsin                    1003bb40 f   LIBCMT:sin.obj
 0001:0003ab7b       __CIsin_default            1003bb7b f   LIBCMT:sin.obj
 0001:0003ab8f       __sin_default              1003bb8f     LIBCMT:sin.obj
 0001:0003ac30       __CIsqrt                   1003bc30 f   LIBCMT:sqrt.obj
 0001:0003ac44       _sqrt                      1003bc44     LIBCMT:sqrt.obj
 0001:0003acf0       _floor                     1003bcf0 f   LIBCMT:floor_pentium4.obj
 0001:0003ad30       __floor_pentium4           1003bd30 f   LIBCMT:floor_pentium4.obj
 0001:0003ae20       __alloca_probe_16          1003be20 f   LIBCMT:alloca16.obj
 0001:0003ae36       __alloca_probe_8           1003be36     LIBCMT:alloca16.obj
 0001:0003ae4c       __atof_l                   1003be4c f   LIBCMT:atof.obj
 0001:0003aef5       _atof                      1003bef5 f   LIBCMT:atof.obj
 0001:0003af03       ___strgtold12              1003bf03 f   LIBCMT:atof.obj
 0001:0003af43       ___STRINGTOLD              1003bf43 f   LIBCMT:atof.obj
 0001:0003af80       _memcpy                    1003bf80 f   LIBCMT:memcpy.obj
 0001:0003b2e5       __validdrive               1003c2e5 f   LIBCMT:getcwd.obj
 0001:0003b31c       __getdcwd_nolock           1003c31c f   LIBCMT:getcwd.obj
 0001:0003b451       __getcwd                   1003c451 f   LIBCMT:getcwd.obj
 0001:0003b49a       __getdcwd                  1003c49a f   LIBCMT:getcwd.obj
 0001:0003b500       _strchr                    1003c500 f   LIBCMT:strchr.obj
 0001:0003b506       ___from_strstr_to_strchr   1003c506     LIBCMT:strchr.obj
 0001:0003b5c0       _strstr                    1003c5c0 f   LIBCMT:strstr.obj
 0001:0003b646       __tolower                  1003c646 f   LIBCMT:tolower.obj
 0001:0003b64e       __tolower_l                1003c64e f   LIBCMT:tolower.obj
 0001:0003b765       _tolower                   1003c765 f   LIBCMT:tolower.obj
 0001:0003b790       _strncat                   1003c790 f   LIBCMT:strncat.obj
 0001:0003b8d0       _strncpy                   1003c8d0 f   LIBCMT:strncpy.obj
 0001:0003b9f4       _wcsncpy                   1003c9f4 f   LIBCMT:wcsncpy.obj
 0001:0003ba40       __allrem                   1003ca40 f   LIBCMT:llrem.obj
 0001:0003bb00       __alldiv                   1003cb00 f   LIBCMT:lldiv.obj
 0001:0003bbaa       ??0bad_exception@std@@QAE@PBD@Z 1003cbaa f i LIBCMT:frame.obj
 0001:0003bbc3       ??1bad_exception@std@@UAE@XZ 1003cbc3 f i LIBCMT:frame.obj
 0001:0003bbce       ??_Ebad_exception@std@@UAEPAXI@Z 1003cbce f i LIBCMT:frame.obj
 0001:0003bbce       ??_Gbad_exception@std@@UAEPAXI@Z 1003cbce f i LIBCMT:frame.obj
 0001:0003bbf0       ___TypeMatch               1003cbf0 f   LIBCMT:frame.obj
 0001:0003bc4c       ___FrameUnwindFilter       1003cc4c f   LIBCMT:frame.obj
 0001:0003bc90       ___FrameUnwindToState      1003cc90 f   LIBCMT:frame.obj
 0001:0003bdb6       ___DestructExceptionObject 1003cdb6 f   LIBCMT:frame.obj
 0001:0003be0a       ___AdjustPointer           1003ce0a f   LIBCMT:frame.obj
 0001:0003be2f       ?__uncaught_exception@@YA_NXZ 1003ce2f f   LIBCMT:frame.obj
 0001:0003be42       ___CxxRegisterExceptionObject 1003ce42 f   LIBCMT:frame.obj
 0001:0003bef5       ___CxxDetectRethrow        1003cef5 f   LIBCMT:frame.obj
 0001:0003bf41       ___CxxUnregisterExceptionObject 1003cf41 f   LIBCMT:frame.obj
 0001:0003c07c       ___CxxQueryExceptionSize   1003d07c f   LIBCMT:frame.obj
 0001:0003c080       ___CxxCallUnwindDtor       1003d080 f   LIBCMT:frame.obj
 0001:0003c0b2       ___CxxCallUnwindDelDtor    1003d0b2 f   LIBCMT:frame.obj
 0001:0003c0e5       ___CxxCallUnwindStdDelDtor 1003d0e5 f   LIBCMT:frame.obj
 0001:0003c117       ___CxxCallUnwindVecDtor    1003d117 f   LIBCMT:frame.obj
 0001:0003c244       ?_is_exception_typeof@@YAHABVtype_info@@PAU_EXCEPTION_POINTERS@@@Z 1003d244 f   LIBCMT:frame.obj
 0001:0003c462       ___BuildCatchObjectHelper  1003d462 f   LIBCMT:frame.obj
 0001:0003c5e1       ___BuildCatchObject        1003d5e1 f   LIBCMT:frame.obj
 0001:0003c672       ___CxxExceptionFilter      1003d672 f   LIBCMT:frame.obj
 0001:0003cc69       ??0bad_exception@std@@QAE@ABV01@@Z 1003dc69 f i LIBCMT:frame.obj
 0001:0003cc81       ___InternalCxxFrameHandler 1003dc81 f   LIBCMT:frame.obj
 0001:0003cd65       __encode_pointer           1003dd65 f   LIBCMT:tidtable.obj
 0001:0003cdc8       __encoded_null             1003ddc8 f   LIBCMT:tidtable.obj
 0001:0003cdd1       __decode_pointer           1003ddd1 f   LIBCMT:tidtable.obj
 0001:0003ce34       ___crtTlsAlloc@4           1003de34 f   LIBCMT:tidtable.obj
 0001:0003ce3d       ___fls_getvalue@4          1003de3d f   LIBCMT:tidtable.obj
 0001:0003ce52       ___get_flsindex            1003de52 f   LIBCMT:tidtable.obj
 0001:0003ce58       ___set_flsgetvalue         1003de58 f   LIBCMT:tidtable.obj
 0001:0003ce82       ___fls_setvalue@8          1003de82 f   LIBCMT:tidtable.obj
 0001:0003ce9b       __mtterm                   1003de9b f   LIBCMT:tidtable.obj
 0001:0003ced8       __initptd                  1003ded8 f   LIBCMT:tidtable.obj
 0001:0003cf8c       __getptd_noexit            1003df8c f   LIBCMT:tidtable.obj
 0001:0003d00f       __getptd                   1003e00f f   LIBCMT:tidtable.obj
 0001:0003d027       __freefls@4                1003e027 f   LIBCMT:tidtable.obj
 0001:0003d148       __freeptd                  1003e148 f   LIBCMT:tidtable.obj
 0001:0003d1b1       ___threadid                1003e1b1 f   LIBCMT:tidtable.obj
 0001:0003d1b7       ___threadhandle            1003e1b7 f   LIBCMT:tidtable.obj
 0001:0003d1bd       __mtinit                   1003e1bd f   LIBCMT:tidtable.obj
 0001:0003d341       ?terminate@@YAXXZ          1003e341 f   LIBCMT:hooks.obj
 0001:0003d37a       ?unexpected@@YAXXZ         1003e37a f   LIBCMT:hooks.obj
 0001:0003d38d       ?_inconsistency@@YAXXZ     1003e38d f   LIBCMT:hooks.obj
 0001:0003d3c4       __initp_eh_hooks           1003e3c4 f   LIBCMT:hooks.obj
 0001:0003d3e0       __CallSettingFrame@12      1003e3e0 f   LIBCMT:lowhelpr.obj
 0001:0003d407       __NLG_Return               1003e407     LIBCMT:lowhelpr.obj
 0001:0003d42c       ___report_gsfailure        1003e42c f   LIBCMT:gs_report.obj
 0001:0003d587       __VEC_memzero              1003e587 f   LIBCMT:p4_memset.obj
 0001:0003d616       __sse2_mathfcns_init       1003e616 f   LIBCMT:mathfcns.obj
 0001:0003d62a       __set_SSE2_enable          1003e62a f   LIBCMT:mathfcns.obj
 0001:0003d63e       __flsbuf                   1003e63e f   LIBCMT:_flsbuf.obj
 0001:0003d83f       _get_int_arg               1003e83f f i LIBCMT:output.obj
 0001:0003d84c       _get_int64_arg             1003e84c f i LIBCMT:output.obj
 0001:0003d85c       _get_short_arg             1003e85c f i LIBCMT:output.obj
 0001:0003d86a       __output_l                 1003e86a f   LIBCMT:output.obj
 0001:0003e202       __get_errno_from_oserr     1003f202 f   LIBCMT:dosmap.obj
 0001:0003e23d       __errno                    1003f23d f   LIBCMT:dosmap.obj
 0001:0003e250       ___doserrno                1003f250 f   LIBCMT:dosmap.obj
 0001:0003e263       __dosmaperr                1003f263 f   LIBCMT:dosmap.obj
 0001:0003e281       __set_errno                1003f281 f   LIBCMT:dosmap.obj
 0001:0003e29c       __get_errno                1003f29c f   LIBCMT:dosmap.obj
 0001:0003e2c6       __set_doserrno             1003f2c6 f   LIBCMT:dosmap.obj
 0001:0003e2e1       __get_doserrno             1003f2e1 f   LIBCMT:dosmap.obj
 0001:0003e30b       ?_Type_info_dtor@type_info@@CAXPAV1@@Z 1003f30b f   LIBCMT:typname.obj
 0001:0003e37b       ?_Name_base@type_info@@CAPBDPBV1@PAU__type_info_node@@@Z 1003f37b f   LIBCMT:typname.obj
 0001:0003e470       ?_Type_info_dtor_internal@type_info@@CAXPAV1@@Z 1003f470 f   LIBCMT:typname.obj
 0001:0003e4e0       ___unDNameHelper           1003f4e0 f   LIBCMT:typname.obj
 0001:0003e511       ?_Name_base_internal@type_info@@CAPBDPBV1@PAU__type_info_node@@@Z 1003f511 f   LIBCMT:typname.obj
 0001:0003e5fc       ___clean_type_info_names_internal 1003f5fc f   LIBCMT:typname.obj
 0001:0003e650       _strcmp                    1003f650 f   LIBCMT:strcmp.obj
 0001:0003e6d8       _abort                     1003f6d8 f   LIBCMT:abort.obj
 0001:0003e7cb       __set_abort_behavior       1003f7cb f   LIBCMT:abort.obj
 0001:0003e7e9       __NMSG_WRITE               1003f7e9 f   LIBCMT:crt0msg.obj
 0001:0003e989       __GET_RTERRMSG             1003f989 f   LIBCMT:crt0msg.obj
 0001:0003e9a9       __FF_MSGBANNER             1003f9a9 f   LIBCMT:crt0msg.obj
 0001:0003e9e2       ___getlocaleinfo           1003f9e2 f   LIBCMT:inithelp.obj
 0001:0003eb3c       __initp_misc_purevirt      1003fb3c f   LIBCMT:inithelp.obj
 0001:0003eb46       _strcpy_s                  1003fb46 f   LIBCMT:strcpy_s.obj
 0001:0003ebb0       _strlen                    1003fbb0 f   LIBCMT:strlen.obj
 0001:0003ec3b       __forcdecpt_l              1003fc3b f   LIBCMT:cvt.obj
 0001:0003ecac       __cropzeros_l              1003fcac f   LIBCMT:cvt.obj
 0001:0003ed2c       __positive                 1003fd2c f   LIBCMT:cvt.obj
 0001:0003ed42       __fassign_l                1003fd42 f   LIBCMT:cvt.obj
 0001:0003ed82       __fassign                  1003fd82 f   LIBCMT:cvt.obj
 0001:0003edb6       __forcdecpt                1003fdb6 f   LIBCMT:cvt.obj
 0001:0003edc4       __cropzeros                1003fdc4 f   LIBCMT:cvt.obj
 0001:0003ef3f       __cftoe_l                  1003ff3f f   LIBCMT:cvt.obj
 0001:0003f00d       __cftoe                    1004000d f   LIBCMT:cvt.obj
 0001:0003f02b       __cftoa_l                  1004002b f   LIBCMT:cvt.obj
 0001:0003f39c       __cftoa                    1004039c f   LIBCMT:cvt.obj
 0001:0003f4af       __cftof_l                  100404af f   LIBCMT:cvt.obj
 0001:0003f568       __cftof                    10040568 f   LIBCMT:cvt.obj
 0001:0003f583       __cftog_l                  10040583 f   LIBCMT:cvt.obj
 0001:0003f67b       __cftog                    1004067b f   LIBCMT:cvt.obj
 0001:0003f699       __cfltcvt_l                10040699 f   LIBCMT:cvt.obj
 0001:0003f71f       __cfltcvt                  1004071f f   LIBCMT:cvt.obj
 0001:0003f740       __initp_misc_cfltcvt_tab   10040740 f   LIBCMT:cmiscdat.obj
 0001:0003f75f       __setdefaultprecision      1004075f f   LIBCMT:fp8.obj
 0001:0003f788       __ms_p5_test_fdiv          10040788 f   LIBCMT:testfdiv.obj
 0001:0003f7c4       __ms_p5_mp_test_fdiv       100407c4 f   LIBCMT:testfdiv.obj
 0001:0003f7ed       __crt_debugger_hook        100407ed f   LIBCMT:dbghook.obj
 0001:0003f7f5       ?__CxxUnhandledExceptionFilter@@YGJPAU_EXCEPTION_POINTERS@@@Z 100407f5 f   LIBCMT:unhandld.obj
 0001:0003f861       ?__CxxSetUnhandledExceptionFilter@@YAHXZ 10040861 f   LIBCMT:unhandld.obj
 0001:0003f882       ?__CxxRestoreUnhandledExceptionFilter@@YAXXZ 10040882 f   LIBCMT:unhandld.obj
 0001:0003f8a6       ____setlc_active_func      100408a6 f   LIBCMT:setlocal.obj
 0001:0003f8ac       ____unguarded_readlc_active_add_func 100408ac f   LIBCMT:setlocal.obj
 0001:0003f8b2       ___freetlocinfo            100408b2 f   LIBCMT:setlocal.obj
 0001:0003f9f2       ___addlocaleref            100409f2 f   LIBCMT:setlocal.obj
 0001:0003fa78       ___removelocaleref         10040a78 f   LIBCMT:setlocal.obj
 0001:0003fb66       ___updatetlocinfo          10040b66 f   LIBCMT:setlocal.obj
 0001:0003fbdc       __configthreadlocale       10040bdc f   LIBCMT:setlocal.obj
 0001:0003fc95       __free_locale              10040c95 f   LIBCMT:setlocal.obj
 0001:0003fd2b       ___free_locale             10040d2b f   LIBCMT:setlocal.obj
 0001:0003fd30       __get_current_locale       10040d30 f   LIBCMT:setlocal.obj
 0001:0003fdb8       ___get_current_locale      10040db8 f   LIBCMT:setlocal.obj
 0001:0003fdbd       ___init_dummy              10040dbd f   LIBCMT:setlocal.obj
 0001:0003fdc0       __strcats                  10040dc0 f   LIBCMT:setlocal.obj
 0001:0003fdfe       ___lc_strtolc              10040dfe f   LIBCMT:setlocal.obj
 0001:0003ff27       ___lc_lctostr              10040f27 f   LIBCMT:setlocal.obj
 0001:00040103       __expandlocale             10041103 f   LIBCMT:setlocal.obj
 0001:0004079b       __create_locale            1004179b f   LIBCMT:setlocal.obj
 0001:0004088e       ___create_locale           1004188e f   LIBCMT:setlocal.obj
 0001:00040893       _setlocale                 10041893 f   LIBCMT:setlocal.obj
 0001:00040a03       __vsprintf_l               10041a03 f   LIBCMT:vsprintf.obj
 0001:00040a7f       _vsprintf                  10041a7f f   LIBCMT:vsprintf.obj
 0001:00040a96       __vscprintf_helper         10041a96 f   LIBCMT:vsprintf.obj
 0001:00040aeb       __vscprintf                10041aeb f   LIBCMT:vsprintf.obj
 0001:00040b03       __vscprintf_l              10041b03 f   LIBCMT:vsprintf.obj
 0001:00040b1d       __vscprintf_p              10041b1d f   LIBCMT:vsprintf.obj
 0001:00040b35       __vscprintf_p_l            10041b35 f   LIBCMT:vsprintf.obj
 0001:00040b4f       __vsnprintf_helper         10041b4f f   LIBCMT:vsnprnc.obj
 0001:00040c19       __vsnprintf_c              10041c19 f   LIBCMT:vsnprnc.obj
 0001:00040c40       __vsnprintf_c_l            10041c40 f   LIBCMT:vsnprnc.obj
 0001:00040c68       __vsprintf_s_l             10041c68 f   LIBCMT:vsnprnc.obj
 0001:00040cee       _vsprintf_s                10041cee f   LIBCMT:vsnprnc.obj
 0001:00040d09       __vsnprintf_s_l            10041d09 f   LIBCMT:vsnprnc.obj
 0001:00040e0e       __vsnprintf_s              10041e0e f   LIBCMT:vsnprnc.obj
 0001:00040e2c       __vsprintf_p               10041e2c f   LIBCMT:vsnprnc.obj
 0001:00040e53       __vsprintf_p_l             10041e53 f   LIBCMT:vsnprnc.obj
 0001:00040f02       __VEC_memcpy               10041f02 f   LIBCMT:p4_memcpy.obj
 0001:00040ff0       __allmul                   10041ff0 f   LIBCMT:llmul.obj
 0001:00041024       __gmtime32_s               10042024 f   LIBCMT:gmtime.obj
 0001:00041151       ___getgmtimebuf            10042151 f   LIBCMT:gmtime.obj
 0001:00041199       __gmtime32                 10042199 f   LIBCMT:gmtime.obj
 0001:000411bd       __set_daylight             100421bd f i LIBCMT:tzset.obj
 0001:000411c9       __set_dstbias              100421c9 f i LIBCMT:tzset.obj
 0001:000411d5       __set_timezone             100421d5 f i LIBCMT:tzset.obj
 0001:000418c3       ___tzset                   100428c3 f   LIBCMT:tzset.obj
 0001:00041912       __tzset                    10042912 f   LIBCMT:tzset.obj
 0001:0004194a       __isindst                  1004294a f   LIBCMT:tzset.obj
 0001:0004198b       __get_daylight             1004298b f   LIBCMT:timeset.obj
 0001:000419bf       __get_dstbias              100429bf f   LIBCMT:timeset.obj
 0001:000419f3       __get_timezone             100429f3 f   LIBCMT:timeset.obj
 0001:00041a27       __get_tzname               10042a27 f   LIBCMT:timeset.obj
 0001:00041ac9       ___daylight                10042ac9 f   LIBCMT:timeset.obj
 0001:00041acf       ___dstbias                 10042acf f   LIBCMT:timeset.obj
 0001:00041ad5       ___timezone                10042ad5 f   LIBCMT:timeset.obj
 0001:00041adb       ___tzname                  10042adb f   LIBCMT:timeset.obj
 0001:00041af0       __aulldiv                  10042af0 f   LIBCMT:ulldiv.obj
 0001:00041d66       ___updatetmbcinfo          10042d66 f   LIBCMT:mbctype.obj
 0001:00041e84       __setmbcp_nolock           10042e84 f   LIBCMT:mbctype.obj
 0001:0004202f       __getmbcp                  1004302f f   LIBCMT:mbctype.obj
 0001:0004206b       __setmbcp                  1004306b f   LIBCMT:mbctype.obj
 0001:00042205       ___initmbctable            10043205 f   LIBCMT:mbctype.obj
 0001:00042223       ___ascii_stricmp           10043223 f   LIBCMT:stricmp.obj
 0001:00042258       __stricmp_l                10043258 f   LIBCMT:stricmp.obj
 0001:0004232b       __stricmp                  1004332b f   LIBCMT:stricmp.obj
 0001:0004232b       _stricmp                   1004332b f   LIBCMT:stricmp.obj
 0001:0004237b       __isleadbyte_l             1004337b f i LIBCMT:_wctype.obj
 0001:000423b1       _isleadbyte                100433b1 f i LIBCMT:_wctype.obj
 0001:000423bf       __iswalpha_l               100433bf f i LIBCMT:_wctype.obj
 0001:000423d5       _iswalpha                  100433d5 f i LIBCMT:_wctype.obj
 0001:000423e6       __iswupper_l               100433e6 f i LIBCMT:_wctype.obj
 0001:000423f9       _iswupper                  100433f9 f i LIBCMT:_wctype.obj
 0001:00042407       __iswlower_l               10043407 f i LIBCMT:_wctype.obj
 0001:0004241a       _iswlower                  1004341a f i LIBCMT:_wctype.obj
 0001:00042428       __iswdigit_l               10043428 f i LIBCMT:_wctype.obj
 0001:0004243b       _iswdigit                  1004343b f i LIBCMT:_wctype.obj
 0001:00042449       __iswxdigit_l              10043449 f i LIBCMT:_wctype.obj
 0001:0004245f       _iswxdigit                 1004345f f i LIBCMT:_wctype.obj
 0001:00042470       __iswspace_l               10043470 f i LIBCMT:_wctype.obj
 0001:00042483       _iswspace                  10043483 f i LIBCMT:_wctype.obj
 0001:00042491       __iswpunct_l               10043491 f i LIBCMT:_wctype.obj
 0001:000424a4       _iswpunct                  100434a4 f i LIBCMT:_wctype.obj
 0001:000424b2       __iswalnum_l               100434b2 f i LIBCMT:_wctype.obj
 0001:000424c8       _iswalnum                  100434c8 f i LIBCMT:_wctype.obj
 0001:000424d9       __iswprint_l               100434d9 f i LIBCMT:_wctype.obj
 0001:000424ef       _iswprint                  100434ef f i LIBCMT:_wctype.obj
 0001:00042500       __iswgraph_l               10043500 f i LIBCMT:_wctype.obj
 0001:00042516       _iswgraph                  10043516 f i LIBCMT:_wctype.obj
 0001:00042527       __iswcntrl_l               10043527 f i LIBCMT:_wctype.obj
 0001:0004253a       _iswcntrl                  1004353a f i LIBCMT:_wctype.obj
 0001:00042548       _iswascii                  10043548 f i LIBCMT:_wctype.obj
 0001:00042554       __iswcsym_l                10043554 f i LIBCMT:_wctype.obj
 0001:0004257a       ___iswcsym                 1004357a f i LIBCMT:_wctype.obj
 0001:0004259b       __iswcsymf_l               1004359b f i LIBCMT:_wctype.obj
 0001:000425c1       ___iswcsymf                100435c1 f i LIBCMT:_wctype.obj
 0001:0004280d       _strtol                    1004380d f   LIBCMT:strtol.obj
 0001:00042836       __strtol_l                 10043836 f   LIBCMT:strtol.obj
 0001:00042851       _strtoul                   10043851 f   LIBCMT:strtol.obj
 0001:0004287b       __strtoul_l                1004387b f   LIBCMT:strtol.obj
 0001:00042b2a       __strtoi64                 10043b2a f   LIBCMT:strtoq.obj
 0001:00042b53       __strtoi64_l               10043b53 f   LIBCMT:strtoq.obj
 0001:00042b6e       __strtoui64                10043b6e f   LIBCMT:strtoq.obj
 0001:00042b98       __strtoui64_l              10043b98 f   LIBCMT:strtoq.obj
 0001:00042bb3       __amsg_exit                10043bb3 f   LIBCMT:crt0dat.obj
 0001:00042bd7       ___crtCorExitProcess       10043bd7 f   LIBCMT:crt0dat.obj
 0001:00042bfd       ___crtExitProcess          10043bfd f   LIBCMT:crt0dat.obj
 0001:00042c12       __lockexit                 10043c12 f   LIBCMT:crt0dat.obj
 0001:00042c1b       __unlockexit               10043c1b f   LIBCMT:crt0dat.obj
 0001:00042c3c       __initterm_e               10043c3c f   LIBCMT:crt0dat.obj
 0001:00042c5c       __get_osplatform           10043c5c f   LIBCMT:crt0dat.obj
 0001:00042c93       __get_osver                10043c93 f   LIBCMT:crt0dat.obj
 0001:00042ccf       __get_winver               10043ccf f   LIBCMT:crt0dat.obj
 0001:00042d0b       __get_winmajor             10043d0b f   LIBCMT:crt0dat.obj
 0001:00042d47       __get_winminor             10043d47 f   LIBCMT:crt0dat.obj
 0001:00042d83       __get_wpgmptr              10043d83 f   LIBCMT:crt0dat.obj
 0001:00042dba       __get_pgmptr               10043dba f   LIBCMT:crt0dat.obj
 0001:00042df1       __cinit                    10043df1 f   LIBCMT:crt0dat.obj
 0001:00042f51       _exit                      10043f51 f   LIBCMT:crt0dat.obj
 0001:00042f62       __exit                     10043f62 f   LIBCMT:crt0dat.obj
 0001:00042f73       __cexit                    10043f73 f   LIBCMT:crt0dat.obj
 0001:00042f82       __c_exit                   10043f82 f   LIBCMT:crt0dat.obj
 0001:00042f91       __init_pointers            10043f91 f   LIBCMT:crt0dat.obj
 0001:00042fe0       __SEH_prolog4              10043fe0 f   LIBCMT:sehprolg4.obj
 0001:00043025       __SEH_epilog4              10044025 f   LIBCMT:sehprolg4.obj
 0001:00043070       __except_handler4          10044070 f   LIBCMT:chandler4.obj
 0001:00043206       ___iob_func                10044206 f   LIBCMT:_file.obj
 0001:0004320c       ___initstdio               1004420c f   LIBCMT:_file.obj
 0001:000432bd       ___endstdio                100442bd f   LIBCMT:_file.obj
 0001:000432dd       __lock_file                100442dd f   LIBCMT:_file.obj
 0001:0004330c       __lock_file2               1004430c f   LIBCMT:_file.obj
 0001:0004332f       __unlock_file              1004432f f   LIBCMT:_file.obj
 0001:0004335e       __unlock_file2             1004435e f   LIBCMT:_file.obj
 0001:00043381       __filbuf                   10044381 f   LIBCMT:_filbuf.obj
 0001:000434a1       __ioinit                   100444a1 f   LIBCMT:ioinit.obj
 0001:000436e1       __ioterm                   100446e1 f   LIBCMT:ioinit.obj
 0001:0004372d       __fileno                   1004472d f   LIBCMT:fileno.obj
 0001:0004375a       __getbuf                   1004475a f   LIBCMT:_getbuf.obj
 0001:0004379e       __write_nolock             1004479e f   LIBCMT:write.obj
 0001:00043d64       __write                    10044d64 f   LIBCMT:write.obj
 0001:00043e40       __commit                   10044e40 f   LIBCMT:commit.obj
 0001:00043f21       __mtinitlocks              10044f21 f   LIBCMT:mlock.obj
 0001:00043f6a       __mtdeletelocks            10044f6a f   LIBCMT:mlock.obj
 0001:00043fbf       __unlock                   10044fbf f   LIBCMT:mlock.obj
 0001:00043fd4       __lockerr_exit             10044fd4 f   LIBCMT:mlock.obj
 0001:00043fec       __mtinitlocknum            10044fec f   LIBCMT:mlock.obj
 0001:000440af       __lock                     100450af f   LIBCMT:mlock.obj
 0001:000440e0       __freebuf                  100450e0 f   LIBCMT:_freebuf.obj
 0001:0004410c       __ftelli64_nolock          1004510c f   LIBCMT:ftelli64.obj
 0001:000442c0       __ftelli64                 100452c0 f   LIBCMT:ftelli64.obj
 0001:0004430a       __lseek_nolock             1004530a f   LIBCMT:lseek.obj
 0001:0004437c       __lseek                    1004537c f   LIBCMT:lseek.obj
 0001:00044458       __ftell_nolock             10045458 f   LIBCMT:ftell.obj
 0001:000445f0       _ftell                     100455f0 f   LIBCMT:ftell.obj
 0001:0004465e       __fseeki64_nolock          1004565e f   LIBCMT:fseeki64.obj
 0001:000446f7       __fseeki64                 100456f7 f   LIBCMT:fseeki64.obj
 0001:00044746       __close_nolock             10045746 f   LIBCMT:close.obj
 0001:000447da       __close                    100457da f   LIBCMT:close.obj
 0001:000448a7       __setenvp                  100458a7 f   LIBCMT:stdenvp.obj
 0001:00044982       __set_pgmptr               10045982 f i LIBCMT:stdargv.obj
 0001:00044b24       __setargv                  10045b24 f   LIBCMT:stdargv.obj
 0001:00044bdd       ___crtGetEnvironmentStringsA 10045bdd f   LIBCMT:a_env.obj
 0001:00044d12       __RTC_Initialize           10045d12 f   LIBCMT:initsect.obj
 0001:00044d36       __RTC_Terminate            10045d36 f   LIBCMT:initsect.obj
 0001:00044d5a       __initp_misc_winxfltr      10045d5a f   LIBCMT:winxfltr.obj
 0001:00044d8d       __XcptFilter               10045d8d f   LIBCMT:winxfltr.obj
 0001:00044efc       ___CppXcptFilter           10045efc f   LIBCMT:winxfltr.obj
 0001:00044f17       _DllMain@12                10045f17 f   LIBCMT:dllmain.obj
 0001:00044f1d       ___security_init_cookie    10045f1d f   LIBCMT:gs_support.obj
 0001:00044fc0       __CIacos_pentium4          10045fc0 f   LIBCMT:acos_pentium4.obj
 0001:00044fd8       __acos_pentium4            10045fd8     LIBCMT:acos_pentium4.obj
 0001:00045520       __trandisp1                10046520 f   LIBCMT:87disp.obj
 0001:00045587       __trandisp2                10046587 f   LIBCMT:87disp.obj
 0001:00045613       __rttospopde               10046613     LIBCMT:87disp.obj
 0001:00045618       __rttospop                 10046618     LIBCMT:87disp.obj
 0001:0004561a       __rtnospop                 1004661a     LIBCMT:87disp.obj
 0001:0004561c       __rttosnpop                1004661c     LIBCMT:87disp.obj
 0001:0004561d       __rtnospopde               1004661d     LIBCMT:87disp.obj
 0001:00045624       __rtzeropop                10046624     LIBCMT:87disp.obj
 0001:00045626       __rtzeronpop               10046626     LIBCMT:87disp.obj
 0001:0004562b       __rtonepop                 1004662b     LIBCMT:87disp.obj
 0001:0004562d       __rtonenpop                1004662d     LIBCMT:87disp.obj
 0001:00045632       __tosnan1                  10046632     LIBCMT:87disp.obj
 0001:0004565d       __nosnan2                  1004665d     LIBCMT:87disp.obj
 0001:0004565f       __tosnan2                  1004665f     LIBCMT:87disp.obj
 0001:00045687       __nan2                     10046687     LIBCMT:87disp.obj
 0001:000456c6       __rtindfpop                100466c6     LIBCMT:87disp.obj
 0001:000456c8       __rtindfnpop               100466c8     LIBCMT:87disp.obj
 0001:000456d9       __rttosnpopde              100466d9     LIBCMT:87disp.obj
 0001:000456e3       __rtchsifneg               100466e3     LIBCMT:87disp.obj
 0001:000456f0       __startTwoArgErrorHandling 100466f0 f   LIBCMT:genexcep.obj
 0001:00045707       __startOneArgErrorHandling 10046707 f   LIBCMT:genexcep.obj
 0001:00045750       __twoToTOS                 10046750 f   LIBCMT:common.obj
 0001:00045765       __load_CW                  10046765 f   LIBCMT:common.obj
 0001:0004577c       __convertTOStoQNaN         1004677c f   LIBCMT:common.obj
 0001:00045795       __fload_withFB             10046795 f   LIBCMT:common.obj
 0001:000457d8       __checkTOS_withFB          100467d8 f   LIBCMT:common.obj
 0001:000457ee       __fast_exit                100467ee f   LIBCMT:common.obj
 0001:000457fb       __math_exit                100467fb f   LIBCMT:common.obj
 0001:00045825       __check_overflow_exit      10046825 f   LIBCMT:common.obj
 0001:00045839       __check_range_exit         10046839 f   LIBCMT:common.obj
 0001:000458e0       __CIasin_pentium4          100468e0 f   LIBCMT:asin_pentium4.obj
 0001:000458f8       __asin_pentium4            100468f8     LIBCMT:asin_pentium4.obj
 0001:00045e7c       __fFATN2                   10046e7c     LIBCMT:87triga.obj
 0001:00045ecc       __rtpiby2                  10046ecc     LIBCMT:87triga.obj
 0001:00045f10       __cintrindisp2             10046f10 f   LIBCMT:87cdisp.obj
 0001:00045f4e       __cintrindisp1             10046f4e f   LIBCMT:87cdisp.obj
 0001:00045f8b       __ctrandisp2               10046f8b f   LIBCMT:87cdisp.obj
 0001:00046121       __ctrandisp1               10047121 f   LIBCMT:87cdisp.obj
 0001:00046154       __fload                    10047154 f   LIBCMT:87cdisp.obj
 0001:00046190       __CIcos_pentium4           10047190 f   LIBCMT:cos_pentium4.obj
 0001:000461a8       __cos_pentium4             100471a8     LIBCMT:cos_pentium4.obj
 0001:00046340       _fdiv_main_routine         10047340 f   LIBCMT:adj_fdiv.obj
 0001:00046457       __adj_fdiv_r               10047457 f   LIBCMT:adj_fdiv.obj
 0001:000468f6       __fdivp_sti_st             100478f6 f   LIBCMT:adj_fdiv.obj
 0001:00046909       __fdivrp_sti_st            10047909 f   LIBCMT:adj_fdiv.obj
 0001:0004691c       __adj_fdiv_m32             1004791c f   LIBCMT:adj_fdiv.obj
 0001:00046968       __adj_fdiv_m64             10047968 f   LIBCMT:adj_fdiv.obj
 0001:000469b4       __adj_fdiv_m16i            100479b4 f   LIBCMT:adj_fdiv.obj
 0001:000469e8       __adj_fdiv_m32i            100479e8 f   LIBCMT:adj_fdiv.obj
 0001:00046a1c       __adj_fdivr_m32            10047a1c f   LIBCMT:adj_fdiv.obj
 0001:00046a68       __adj_fdivr_m64            10047a68 f   LIBCMT:adj_fdiv.obj
 0001:00046ab4       __adj_fdivr_m16i           10047ab4 f   LIBCMT:adj_fdiv.obj
 0001:00046ae8       __adj_fdivr_m32i           10047ae8 f   LIBCMT:adj_fdiv.obj
 0001:00046b1c       __safe_fdiv                10047b1c f   LIBCMT:adj_fdiv.obj
 0001:00046b31       __safe_fdivr               10047b31 f   LIBCMT:adj_fdiv.obj
 0001:00046b46       __fprem_common             10047b46 f   LIBCMT:adj_fdiv.obj
 0001:00046d4c       __adj_fprem                10047d4c f   LIBCMT:adj_fdiv.obj
 0001:00046dfe       __fprem1_common            10047dfe f   LIBCMT:adj_fdiv.obj
 0001:00047004       __adj_fprem1               10048004 f   LIBCMT:adj_fdiv.obj
 0001:000470b9       __safe_fprem               100480b9 f   LIBCMT:adj_fdiv.obj
 0001:000470bf       __safe_fprem1              100480bf f   LIBCMT:adj_fdiv.obj
 0001:000470c5       __adj_fpatan               100480c5 f   LIBCMT:adj_fdiv.obj
 0001:000470c8       __adj_fptan                100480c8 f   LIBCMT:adj_fdiv.obj
 0001:000470d0       __CIlog_pentium4           100480d0 f   LIBCMT:log_pentium4.obj
 0001:000470e8       __log_pentium4             100480e8     LIBCMT:log_pentium4.obj
 0001:00047351       __fFEXP                    10048351     LIBCMT:87tran.obj
 0001:000473b8       __rtinfpopse               100483b8     LIBCMT:87tran.obj
 0001:000473ba       __rtinfnpopse              100483ba     LIBCMT:87tran.obj
 0001:000473ca       __fFLN                     100483ca     LIBCMT:87tran.obj
 0001:0004747f       __rtinfpop                 1004847f     LIBCMT:87tran.obj
 0001:00047481       __rtinfnpop                10048481     LIBCMT:87tran.obj
 0001:0004749e       __ffexpm1                  1004849e     LIBCMT:87tran.obj
 0001:00047550       __CIpow_pentium4           10048550 f   LIBCMT:pow_pentium4.obj
 0001:00047569       __pow_pentium4             10048569     LIBCMT:pow_pentium4.obj
 0001:000480b0       __d_inttype                100490b0 f   LIBCMT:powhlp.obj
 0001:00048114       __powhlp                   10049114 f   LIBCMT:powhlp.obj
 0001:00048260       __CIsin_pentium4           10049260 f   LIBCMT:sin_pentium4.obj
 0001:00048278       __sin_pentium4             10049278     LIBCMT:sin_pentium4.obj
 0001:00048428       ___libm_setusermatherr     10049428 f   LIBCMT:libm_error.obj
 0001:00048451       ___libm_error_support      10049451 f   LIBCMT:libm_error.obj
 0001:00048701       __floor_default            10049701 f   LIBCMT:floor.obj
 0001:000487e0       __alloca_probe             100497e0     LIBCMT:chkstk.obj
 0001:000487e0       __chkstk                   100497e0 f   LIBCMT:chkstk.obj
 0001:0004880b       __fltin2                   1004980b f   LIBCMT:cfin.obj
 0001:000488b0       __isctype_l                100498b0 f   LIBCMT:isctype.obj
 0001:00048966       __isctype                  10049966 f   LIBCMT:isctype.obj
 0001:00048995       ___addl                    10049995 f i LIBCMT:strgtold.obj
 0001:000489b6       ___shl_12                  100499b6 f i LIBCMT:strgtold.obj
 0001:000489e4       ___shr_12                  100499e4 f i LIBCMT:strgtold.obj
 0001:00048a11       ___ld12mul                 10049a11 f i LIBCMT:strgtold.obj
 0001:00048c85       ___multtenpow12            10049c85 f i LIBCMT:strgtold.obj
 0001:00048f8f       ___strgtold12_l            10049f8f f   LIBCMT:strgtold.obj
 0001:00049653       ___STRINGTOLD_L            1004a653 f   LIBCMT:strgtold.obj
 0001:000496ac       __getdrive                 1004a6ac f   LIBCMT:drive.obj
 0001:00049772       __chdrive                  1004a772 f   LIBCMT:drive.obj
 0001:00049bcf       ___crtLCMapStringA         1004abcf f   LIBCMT:a_map.obj
 0001:00049c12       __EH_prolog3               1004ac12 f   LIBCMT:ehprolg3.obj
 0001:00049c45       __EH_prolog3_catch         1004ac45 f   LIBCMT:ehprolg3.obj
 0001:00049c7b       __EH_prolog3_GS            1004ac7b f   LIBCMT:ehprolg3.obj
 0001:00049cb1       __EH_prolog3_catch_GS      1004acb1 f   LIBCMT:ehprolg3.obj
 0001:00049cea       __EH_epilog3               1004acea f   LIBCMT:ehprolg3.obj
 0001:00049cfe       __EH_epilog3_GS            1004acfe f   LIBCMT:ehprolg3.obj
 0001:00049d0d       __EH_epilog3_catch_GS      1004ad0d f   LIBCMT:ehprolg3.obj
 0001:00049d1c       ?_ValidateRead@@YAHPBXI@Z  1004ad1c f   LIBCMT:validate.obj
 0001:00049d29       ?_ValidateWrite@@YAHPAXI@Z 1004ad29 f   LIBCMT:validate.obj
 0001:00049d36       ?_ValidateExecute@@YAHP6GHXZ@Z 1004ad36 f   LIBCMT:validate.obj
 0001:00049d44       __global_unwind2           1004ad44 f   LIBCMT:exsup.obj
 0001:00049da9       __local_unwind2            1004ada9 f   LIBCMT:exsup.obj
 0001:00049e2d       __abnormal_termination     1004ae2d f   LIBCMT:exsup.obj
 0001:00049e50       __NLG_Notify1              1004ae50 f   LIBCMT:exsup.obj
 0001:00049e59       __NLG_Notify               1004ae59 f   LIBCMT:exsup.obj
 0001:00049e70       __NLG_Dispatch             1004ae70     LIBCMT:exsup.obj
 0001:00049e70       __NLG_Dispatch2            1004ae70     LIBCMT:exsup.obj
 0001:00049e78       __NLG_Call                 1004ae78 f   LIBCMT:exsup.obj
 0001:00049e7a       __NLG_Return2              1004ae7a     LIBCMT:exsup.obj
 0001:00049ecb       __get_sse2_info            1004aecb f   LIBCMT:cpu_disp.obj
 0001:00049f2b       ___sse2_available_init     1004af2b f   LIBCMT:cpu_disp.obj
 0001:00049f38       __lseeki64_nolock          1004af38 f   LIBCMT:lseeki64.obj
 0001:00049fbb       __lseeki64                 1004afbb f   LIBCMT:lseeki64.obj
 0001:0004a0d4       __isatty                   1004b0d4 f   LIBCMT:isatty.obj
 0001:0004a132       _printf                    1004b132 f   LIBCMT:printf.obj
 0001:0004a1e1       __printf_l                 1004b1e1 f   LIBCMT:printf.obj
 0001:0004a1f7       __printf_s_l               1004b1f7 f   LIBCMT:printf.obj
 0001:0004a20d       _printf_s                  1004b20d f   LIBCMT:printf.obj
 0001:0004a221       __printf_p_l               1004b221 f   LIBCMT:printf.obj
 0001:0004a237       __printf_p                 1004b237 f   LIBCMT:printf.obj
 0001:0004a24b       __set_printf_count_output  1004b24b f   LIBCMT:printf.obj
 0001:0004a270       __get_printf_count_output  1004b270 f   LIBCMT:printf.obj
 0001:0004a286       __wctomb_s_l               1004b286 f   LIBCMT:wctomb.obj
 0001:0004a3e5       _wctomb_s                  1004b3e5 f   LIBCMT:wctomb.obj
 0001:0004a400       __wctomb_l                 1004b400 f   LIBCMT:wctomb.obj
 0001:0004a44f       _wctomb                    1004b44f f   LIBCMT:wctomb.obj
 0001:0004a480       __aulldvrm                 1004b480 f   LIBCMT:ulldvrm.obj
 0001:0004a515       ??0Block@HeapManager@@QAE@XZ 1004b515 f i LIBCMT:undname.obj
 0001:0004a51b       ?Constructor@HeapManager@@QAEXP6APAXI@ZP6AXPAX@Z@Z 1004b51b f i LIBCMT:undname.obj
 0001:0004a536       ?Destructor@HeapManager@@QAEXXZ 1004b536 f i LIBCMT:undname.obj
 0001:0004a55c       ?getNumberOfDimensions@UnDecorator@@CAHXZ 1004b55c f   LIBCMT:undname.obj
 0001:0004a5bf       ?getTypeEncoding@UnDecorator@@CAHXZ 1004b5bf f i LIBCMT:undname.obj
 0001:0004aa33       ?doUnderScore@UnDecorator@@SAHXZ 1004ba33 f i LIBCMT:undname.obj
 0001:0004aa3e       ?doMSKeywords@UnDecorator@@SAHXZ 1004ba3e f i LIBCMT:undname.obj
 0001:0004aa4b       ?doPtr64@UnDecorator@@SAHXZ 1004ba4b f i LIBCMT:undname.obj
 0001:0004aa59       ?doFunctionReturns@UnDecorator@@SAHXZ 1004ba59 f i LIBCMT:undname.obj
 0001:0004aa67       ?doAllocationModel@UnDecorator@@SAHXZ 1004ba67 f i LIBCMT:undname.obj
 0001:0004aa75       ?doAllocationLanguage@UnDecorator@@SAHXZ 1004ba75 f i LIBCMT:undname.obj
 0001:0004aa83       ?doThisTypes@UnDecorator@@SAHXZ 1004ba83 f i LIBCMT:undname.obj
 0001:0004aa95       ?doAccessSpecifiers@UnDecorator@@SAHXZ 1004ba95 f i LIBCMT:undname.obj
 0001:0004aaa3       ?doThrowTypes@UnDecorator@@SAHXZ 1004baa3 f i LIBCMT:undname.obj
 0001:0004aab1       ?doMemberTypes@UnDecorator@@SAHXZ 1004bab1 f i LIBCMT:undname.obj
 0001:0004aabf       ?doNameOnly@UnDecorator@@SAHXZ 1004babf f i LIBCMT:undname.obj
 0001:0004aaca       ?doTypeOnly@UnDecorator@@SAHXZ 1004baca f i LIBCMT:undname.obj
 0001:0004aad5       ?haveTemplateParameters@UnDecorator@@SAHXZ 1004bad5 f i LIBCMT:undname.obj
 0001:0004aae0       ?doEcsu@UnDecorator@@SAHXZ 1004bae0 f i LIBCMT:undname.obj
 0001:0004aaee       ?doNoIdentCharCheck@UnDecorator@@SAHXZ 1004baee f i LIBCMT:undname.obj
 0001:0004aaf9       ?doEllipsis@UnDecorator@@SAHXZ 1004baf9 f i LIBCMT:undname.obj
 0001:0004ab07       ?UScore@UnDecorator@@SAPBDW4Tokens@@@Z 1004bb07 f   LIBCMT:undname.obj
 0001:0004ab20       ?getMemory@HeapManager@@QAEPAXIH@Z 1004bb20 f   LIBCMT:undname.obj
 0001:0004aba4       ??0DName@@QAE@XZ           1004bba4 f i LIBCMT:undname.obj
 0001:0004abb1       ??0DName@@QAE@PAVDNameNode@@@Z 1004bbb1 f i LIBCMT:undname.obj
 0001:0004abc3       ??0DName@@QAE@ABV0@@Z      1004bbc3 f i LIBCMT:undname.obj
 0001:0004ac5f       ?status@DName@@QBE?AW4DNameStatus@@XZ 1004bc5f f i LIBCMT:undname.obj
 0001:0004ac69       ?clearStatus@DName@@QAEXXZ 1004bc69 f i LIBCMT:undname.obj
 0001:0004ac6e       ?setPtrRef@DName@@QAEAAV1@XZ 1004bc6e f i LIBCMT:undname.obj
 0001:0004ac75       ?isPtrRef@DName@@QBEHXZ    1004bc75 f i LIBCMT:undname.obj
 0001:0004ac7f       ?setIsArray@DName@@QAEXXZ  1004bc7f f i LIBCMT:undname.obj
 0001:0004ac87       ?isArray@DName@@QBEHXZ     1004bc87 f i LIBCMT:undname.obj
 0001:0004ac91       ?isNoTE@DName@@QBEHXZ      1004bc91 f i LIBCMT:undname.obj
 0001:0004ac9b       ?setIsNoTE@DName@@QAEXXZ   1004bc9b f i LIBCMT:undname.obj
 0001:0004aca3       ?isPinPtr@DName@@QBEHXZ    1004bca3 f i LIBCMT:undname.obj
 0001:0004acad       ?setIsPinPtr@DName@@QAEXXZ 1004bcad f i LIBCMT:undname.obj
 0001:0004acb5       ?isComArray@DName@@QBEHXZ  1004bcb5 f i LIBCMT:undname.obj
 0001:0004acbf       ?setIsComArray@DName@@QAEXXZ 1004bcbf f i LIBCMT:undname.obj
 0001:0004acc7       ?isVCallThunk@DName@@QBEHXZ 1004bcc7 f i LIBCMT:undname.obj
 0001:0004acd1       ?setIsVCallThunk@DName@@QAEXXZ 1004bcd1 f i LIBCMT:undname.obj
 0001:0004acd9       ??4DName@@QAEAAV0@ABV0@@Z  1004bcd9 f   LIBCMT:undname.obj
 0001:0004ad54       ?isFull@Replicator@@QBEHXZ 1004bd54 f i LIBCMT:undname.obj
 0001:0004ad5d       ??AReplicator@@QBEABVDName@@H@Z 1004bd5d f   LIBCMT:undname.obj
 0001:0004ad82       ??0DNameNode@@IAE@XZ       1004bd82 f   LIBCMT:undname.obj
 0001:0004ad8f       ?nextNode@DNameNode@@QBEPAV1@XZ 1004bd8f f i LIBCMT:undname.obj
 0001:0004ad93       ??YDNameNode@@QAEAAV0@PAV0@@Z 1004bd93 f   LIBCMT:undname.obj
 0001:0004adbc       ??0charNode@@QAE@D@Z       1004bdbc f   LIBCMT:undname.obj
 0001:0004add2       ?length@charNode@@UBEHXZ   1004bdd2 f i LIBCMT:undname.obj
 0001:0004add6       ?getLastChar@charNode@@UBEDXZ 1004bdd6 f i LIBCMT:undname.obj
 0001:0004adda       ?getString@charNode@@UBEPADPADH@Z 1004bdda f   LIBCMT:undname.obj
 0001:0004adf5       ?length@pcharNode@@UBEHXZ  1004bdf5 f i LIBCMT:undname.obj
 0001:0004adf9       ??0pDNameNode@@QAE@PAVDName@@@Z 1004bdf9 f   LIBCMT:undname.obj
 0001:0004ae28       ??0DNameStatusNode@@QAE@W4DNameStatus@@@Z 1004be28 f   LIBCMT:undname.obj
 0001:0004ae4d       ?length@DNameStatusNode@@UBEHXZ 1004be4d f i LIBCMT:undname.obj
 0001:0004ae51       ?getLastChar@DNameStatusNode@@UBEDXZ 1004be51 f i LIBCMT:undname.obj
 0001:0004aeb1       ?getDataIndirectType@UnDecorator@@CA?AVDName@@XZ 1004beb1 f i LIBCMT:undname.obj
 0001:0004aee4       ?getThisType@UnDecorator@@CA?AVDName@@XZ 1004bee4 f i LIBCMT:undname.obj
 0001:0004af18       ??2@YAPAXIAAVHeapManager@@H@Z 1004bf18 f i LIBCMT:undname.obj
 0001:0004af2b       ??0DName@@QAE@PAV0@@Z      1004bf2b f   LIBCMT:undname.obj
 0001:0004af81       ??0DName@@QAE@W4DNameStatus@@@Z 1004bf81 f   LIBCMT:undname.obj
 0001:0004afe2       ?isValid@DName@@QBEHXZ     1004bfe2 f   LIBCMT:undname.obj
 0001:0004aff9       ?isEmpty@DName@@QBEHXZ     1004bff9 f   LIBCMT:undname.obj
 0001:0004b00e       ?isUDC@DName@@QBEHXZ       1004c00e f i LIBCMT:undname.obj
 0001:0004b022       ?setIsUDC@DName@@QAEXXZ    1004c022 f i LIBCMT:undname.obj
 0001:0004b030       ?isUDTThunk@DName@@QBEHXZ  1004c030 f i LIBCMT:undname.obj
 0001:0004b044       ?length@DName@@QBEHXZ      1004c044 f   LIBCMT:undname.obj
 0001:0004b069       ?getLastChar@DName@@QBEDXZ 1004c069 f   LIBCMT:undname.obj
 0001:0004b0a1       ?getString@DName@@QBEPADPADH@Z 1004c0a1 f   LIBCMT:undname.obj
 0001:0004b132       ??_5DName@@QAEAAV0@ABV0@@Z 1004c132 f   LIBCMT:undname.obj
 0001:0004b167       ??4DName@@QAEAAV0@W4DNameStatus@@@Z 1004c167 f   LIBCMT:undname.obj
 0001:0004b1e8       ??0Replicator@@QAE@XZ      1004c1e8 f i LIBCMT:undname.obj
 0001:0004b206       ??YReplicator@@QAEAAV0@ABVDName@@@Z 1004c206 f   LIBCMT:undname.obj
 0001:0004b24d       ?clone@DNameNode@@QAEPAV1@XZ 1004c24d f   LIBCMT:undname.obj
 0001:0004b294       ??0pcharNode@@QAE@PBDH@Z   1004c294 f   LIBCMT:undname.obj
 0001:0004b2f9       ?getLastChar@pcharNode@@UBEDXZ 1004c2f9 f i LIBCMT:undname.obj
 0001:0004b30b       ?getString@pcharNode@@UBEPADPADH@Z 1004c30b f   LIBCMT:undname.obj
 0001:0004b33c       ?length@pDNameNode@@UBEHXZ 1004c33c f i LIBCMT:undname.obj
 0001:0004b34b       ?getLastChar@pDNameNode@@UBEDXZ 1004c34b f i LIBCMT:undname.obj
 0001:0004b35a       ?getString@pDNameNode@@UBEPADPADH@Z 1004c35a f   LIBCMT:undname.obj
 0001:0004b377       ?getString@DNameStatusNode@@UBEPADPADH@Z 1004c377 f   LIBCMT:undname.obj
 0001:0004b3aa       ??0UnDecorator@@QAE@PADPBDHP6APADJ@ZK@Z 1004c3aa f i LIBCMT:undname.obj
 0001:0004b41d       ?getReturnType@UnDecorator@@CA?AVDName@@PAV2@@Z 1004c41d f   LIBCMT:undname.obj
 0001:0004b44c       ?getStorageConvention@UnDecorator@@CA?AVDName@@XZ 1004c44c f i LIBCMT:undname.obj
 0001:0004b45b       ??YDName@@QAEAAV0@W4DNameStatus@@@Z 1004c45b f   LIBCMT:undname.obj
 0001:0004b4d4       ??4DName@@QAEAAV0@PAV0@@Z  1004c4d4 f   LIBCMT:undname.obj
 0001:0004b53c       ?doPchar@DName@@AAEXPBDH@Z 1004c53c f   LIBCMT:undname.obj
 0001:0004b5e2       ??0DName@@QAE@D@Z          1004c5e2 f   LIBCMT:undname.obj
 0001:0004b608       ??0DName@@QAE@PBD@Z        1004c608 f   LIBCMT:undname.obj
 0001:0004b639       ??0DName@@QAE@AAPBDD@Z     1004c639 f   LIBCMT:undname.obj
 0001:0004b709       ??0DName@@QAE@_K@Z         1004c709 f   LIBCMT:undname.obj
 0001:0004b772       ??0DName@@QAE@_J@Z         1004c772 f   LIBCMT:undname.obj
 0001:0004b809       ??HDName@@QBE?AV0@W4DNameStatus@@@Z 1004c809 f   LIBCMT:undname.obj
 0001:0004b837       ??YDName@@QAEAAV0@ABV0@@Z  1004c837 f   LIBCMT:undname.obj
 0001:0004b899       ??YDName@@QAEAAV0@PAV0@@Z  1004c899 f   LIBCMT:undname.obj
 0001:0004b924       ??4DName@@QAEAAV0@D@Z      1004c924 f   LIBCMT:undname.obj
 0001:0004b940       ??4DName@@QAEAAV0@PBD@Z    1004c940 f   LIBCMT:undname.obj
 0001:0004b96a       ?getCallingConvention@UnDecorator@@CA?AVDName@@XZ 1004c96a f   LIBCMT:undname.obj
 0001:0004ba10       ?getVCallThunkType@UnDecorator@@CA?AVDName@@XZ 1004ca10 f i LIBCMT:undname.obj
 0001:0004ba47       ??HDName@@QBE?AV0@ABV0@@Z  1004ca47 f   LIBCMT:undname.obj
 0001:0004ba98       ??HDName@@QBE?AV0@PAV0@@Z  1004ca98 f   LIBCMT:undname.obj
 0001:0004bac6       ??YDName@@QAEAAV0@D@Z      1004cac6 f   LIBCMT:undname.obj
 0001:0004bb30       ??YDName@@QAEAAV0@PBD@Z    1004cb30 f   LIBCMT:undname.obj
 0001:0004bb9c       ?getArgumentList@UnDecorator@@CA?AVDName@@XZ 1004cb9c f   LIBCMT:undname.obj
 0001:0004bc7c       ?getVdispMapType@UnDecorator@@CA?AVDName@@ABV2@@Z 1004cc7c f i LIBCMT:undname.obj
 0001:0004bccb       ??H@YA?AVDName@@DABV0@@Z   1004cccb f i LIBCMT:undname.obj
 0001:0004bced       ??H@YA?AVDName@@W4DNameStatus@@ABV0@@Z 1004cced f i LIBCMT:undname.obj
 0001:0004bd0f       ??H@YA?AVDName@@PBDABV0@@Z 1004cd0f f i LIBCMT:undname.obj
 0001:0004bd31       ??HDName@@QBE?AV0@D@Z      1004cd31 f   LIBCMT:undname.obj
 0001:0004bd5f       ??HDName@@QBE?AV0@PBD@Z    1004cd5f f   LIBCMT:undname.obj
 0001:0004bd8d       ?getDimension@UnDecorator@@CA?AVDName@@_N@Z 1004cd8d f   LIBCMT:undname.obj
 0001:0004bece       ?getEnumType@UnDecorator@@CA?AVDName@@XZ 1004cece f i LIBCMT:undname.obj
 0001:0004bfa2       ?getArgumentTypes@UnDecorator@@CA?AVDName@@XZ 1004cfa2 f   LIBCMT:undname.obj
 0001:0004c066       ?getThrowTypes@UnDecorator@@CA?AVDName@@XZ 1004d066 f   LIBCMT:undname.obj
 0001:0004c0e4       ?getExtendedDataIndirectType@UnDecorator@@CA?AVDName@@AADAA_NH@Z 1004d0e4 f   LIBCMT:undname.obj
 0001:0004c209       ?getArrayType@UnDecorator@@CA?AVDName@@ABV2@@Z 1004d209 f i LIBCMT:undname.obj
 0001:0004c368       ?getLexicalFrame@UnDecorator@@CA?AVDName@@XZ 1004d368 f i LIBCMT:undname.obj
 0001:0004c399       ?getDisplacement@UnDecorator@@CA?AVDName@@XZ 1004d399 f i LIBCMT:undname.obj
 0001:0004c3ab       ?getCallIndex@UnDecorator@@CA?AVDName@@XZ 1004d3ab f i LIBCMT:undname.obj
 0001:0004c3bd       ?getGuardNumber@UnDecorator@@CA?AVDName@@XZ 1004d3bd f i LIBCMT:undname.obj
 0001:0004c3cf       ?getVfTableType@UnDecorator@@CA?AVDName@@ABV2@@Z 1004d3cf f i LIBCMT:undname.obj
 0001:0004c51f       ?getStringEncoding@UnDecorator@@CA?AVDName@@PADH@Z 1004d51f f   LIBCMT:undname.obj
 0001:0004c5bf       ?getSignedDimension@UnDecorator@@CA?AVDName@@XZ 1004d5bf f   LIBCMT:undname.obj
 0001:0004c60f       ?getTemplateConstant@UnDecorator@@CA?AVDName@@XZ 1004d60f f   LIBCMT:undname.obj
 0001:0004c8ca       ?getPtrRefDataType@UnDecorator@@CA?AVDName@@ABV2@H@Z 1004d8ca f i LIBCMT:undname.obj
 0001:0004c9a3       ?getVbTableType@UnDecorator@@CA?AVDName@@ABV2@@Z 1004d9a3 f i LIBCMT:undname.obj
 0001:0004c9b7       ?getTemplateArgumentList@UnDecorator@@CA?AVDName@@XZ 1004d9b7 f   LIBCMT:undname.obj
 0001:0004cb6f       ?getOperatorName@UnDecorator@@CA?AVDName@@_NPA_N@Z 1004db6f f i LIBCMT:undname.obj
 0001:0004d0de       ?getTemplateName@UnDecorator@@CA?AVDName@@_N@Z 1004e0de f   LIBCMT:undname.obj
 0001:0004d231       ?getZName@UnDecorator@@CA?AVDName@@_N@Z 1004e231 f   LIBCMT:undname.obj
 0001:0004d41b       ?getScopedName@UnDecorator@@CA?AVDName@@XZ 1004e41b f   LIBCMT:undname.obj
 0001:0004d4ff       ?getECSUName@UnDecorator@@CA?AVDName@@XZ 1004e4ff f i LIBCMT:undname.obj
 0001:0004d50e       ?getECSUDataType@UnDecorator@@CA?AVDName@@XZ 1004e50e f   LIBCMT:undname.obj
 0001:0004d60e       ?getSymbolName@UnDecorator@@CA?AVDName@@XZ 1004e60e f i LIBCMT:undname.obj
 0001:0004d654       ?getBasedType@UnDecorator@@CA?AVDName@@XZ 1004e654 f   LIBCMT:undname.obj
 0001:0004d6e6       ?composeDeclaration@UnDecorator@@CA?AVDName@@ABV2@@Z 1004e6e6 f i LIBCMT:undname.obj
 0001:0004e228       ?getDecoratedName@UnDecorator@@CA?AVDName@@XZ 1004f228 f   LIBCMT:undname.obj
 0001:0004e439       ?getScope@UnDecorator@@CA?AVDName@@XZ 1004f439 f   LIBCMT:undname.obj
 0001:0004e6c4       ?getFunctionIndirectType@UnDecorator@@CA?AVDName@@ABV2@@Z 1004f6c4 f   LIBCMT:undname.obj
 0001:0004ea05       ?getDataIndirectType@UnDecorator@@CA?AVDName@@ABV2@D0H@Z 1004fa05 f   LIBCMT:undname.obj
 0001:0004eee9       ??BUnDecorator@@QAEPADXZ   1004fee9 f i LIBCMT:undname.obj
 0001:0004f035       ?getPtrRefType@UnDecorator@@CA?AVDName@@ABV2@0D@Z 10050035 f   LIBCMT:undname.obj
 0001:0004f14b       ?getPointerType@UnDecorator@@CA?AVDName@@ABV2@0@Z 1005014b f i LIBCMT:undname.obj
 0001:0004f166       ?getPointerTypeArray@UnDecorator@@CA?AVDName@@ABV2@0@Z 10050166 f i LIBCMT:undname.obj
 0001:0004f181       ?getReferenceType@UnDecorator@@CA?AVDName@@ABV2@0@Z 10050181 f i LIBCMT:undname.obj
 0001:0004f19c       ___unDName                 1005019c f   LIBCMT:undname.obj
 0001:0004f23f       ___unDNameEx               1005023f f   LIBCMT:undname.obj
 0001:0004f2e2       ?getBasicDataType@UnDecorator@@CA?AVDName@@ABV2@@Z 100502e2 f   LIBCMT:undname.obj
 0001:0004f656       ?getPrimaryDataType@UnDecorator@@CA?AVDName@@ABV2@@Z 10050656 f   LIBCMT:undname.obj
 0001:0004f794       ?getDataType@UnDecorator@@CA?AVDName@@PAV2@@Z 10050794 f   LIBCMT:undname.obj
 0001:0004f845       ?getExternalDataType@UnDecorator@@CA?AVDName@@ABV2@@Z 10050845 f i LIBCMT:undname.obj
 0001:0004f8a9       __initp_misc_winsig        100508a9 f   LIBCMT:winsig.obj
 0001:0004f991       ___get_sigabrt             10050991 f   LIBCMT:winsig.obj
 0001:0004f99e       ___fpecode                 1005099e f   LIBCMT:winsig.obj
 0001:0004f9a7       ___pxcptinfoptrs           100509a7 f   LIBCMT:winsig.obj
 0001:0004f9b0       _signal                    100509b0 f   LIBCMT:winsig.obj
 0001:0004fbed       _raise                     10050bed f   LIBCMT:winsig.obj
 0001:0004fd9d       ___crtMessageBoxA          10050d9d f   LIBCMT:crtmbox.obj
 0001:0004ff3b       _strcat_s                  10050f3b f   LIBCMT:strcat_s.obj
 0001:0004ffac       _strncpy_s                 10050fac f   LIBCMT:strncpy_s.obj
 0001:0005005f       __set_error_mode           1005105f f   LIBCMT:errmode.obj
 0001:000500a5       ___set_app_type            100510a5 f   LIBCMT:errmode.obj
 0001:000500af       ___get_app_type            100510af f   LIBCMT:errmode.obj
 0001:000500b5       __isalpha_l                100510b5 f i LIBCMT:_ctype.obj
 0001:00050109       _isalpha                   10051109 f i LIBCMT:_ctype.obj
 0001:00050134       __isupper_l                10051134 f i LIBCMT:_ctype.obj
 0001:00050183       _isupper                   10051183 f i LIBCMT:_ctype.obj
 0001:000501ac       __islower_l                100511ac f i LIBCMT:_ctype.obj
 0001:000501fb       _islower                   100511fb f i LIBCMT:_ctype.obj
 0001:00050224       __isdigit_l                10051224 f i LIBCMT:_ctype.obj
 0001:00050273       _isdigit                   10051273 f i LIBCMT:_ctype.obj
 0001:0005029c       __isxdigit_l               1005129c f i LIBCMT:_ctype.obj
 0001:000502f0       _isxdigit                  100512f0 f i LIBCMT:_ctype.obj
 0001:0005031b       __isspace_l                1005131b f i LIBCMT:_ctype.obj
 0001:0005036a       _isspace                   1005136a f i LIBCMT:_ctype.obj
 0001:00050393       __ispunct_l                10051393 f i LIBCMT:_ctype.obj
 0001:000503e2       _ispunct                   100513e2 f i LIBCMT:_ctype.obj
 0001:0005040b       __isalnum_l                1005140b f i LIBCMT:_ctype.obj
 0001:0005045f       _isalnum                   1005145f f i LIBCMT:_ctype.obj
 0001:0005048a       __isprint_l                1005148a f i LIBCMT:_ctype.obj
 0001:000504de       _isprint                   100514de f i LIBCMT:_ctype.obj
 0001:00050509       __isgraph_l                10051509 f i LIBCMT:_ctype.obj
 0001:0005055d       _isgraph                   1005155d f i LIBCMT:_ctype.obj
 0001:00050588       __iscntrl_l                10051588 f i LIBCMT:_ctype.obj
 0001:000505d7       _iscntrl                   100515d7 f i LIBCMT:_ctype.obj
 0001:00050600       ___isascii                 10051600 f i LIBCMT:_ctype.obj
 0001:0005060d       ___toascii                 1005160d f i LIBCMT:_ctype.obj
 0001:00050615       __iscsymf_l                10051615 f i LIBCMT:_ctype.obj
 0001:00050634       ___iscsymf                 10051634 f i LIBCMT:_ctype.obj
 0001:0005064e       __iscsym_l                 1005164e f i LIBCMT:_ctype.obj
 0001:0005066d       ___iscsym                  1005166d f i LIBCMT:_ctype.obj
 0001:000507c4       ___crtGetLocaleInfoW       100517c4 f   LIBCMT:w_loc.obj
 0001:0005093c       ___crtGetLocaleInfoA       1005193c f   LIBCMT:a_loc.obj
 0001:00050977       __atodbl_l                 10051977 f   LIBCMT:atodbl.obj
 0001:00050a1d       __atodbl                   10051a1d f   LIBCMT:atodbl.obj
 0001:00050a30       __atoldbl_l                10051a30 f   LIBCMT:atodbl.obj
 0001:00050ad7       __atoldbl                  10051ad7 f   LIBCMT:atodbl.obj
 0001:00050aea       __atoflt_l                 10051aea f   LIBCMT:atodbl.obj
 0001:00050b90       __atoflt                   10051b90 f   LIBCMT:atodbl.obj
 0001:00050ba3       __set_output_format        10051ba3 f   LIBCMT:outputformat.obj
 0001:00050bda       __get_output_format        10051bda f   LIBCMT:outputformat.obj
 0001:00050be0       __fptostr                  10051be0 f   LIBCMT:_fptostr.obj
 0001:00050c9d       ___dtold                   10051c9d f   LIBCMT:cfout.obj
 0001:00050d58       __fltout2                  10051d58 f   LIBCMT:cfout.obj
 0001:00050df0       __alldvrm                  10051df0 f   LIBCMT:lldvrm.obj
 0001:00050ed0       __aullshr                  10051ed0 f   LIBCMT:ullshr.obj
 0001:00050eef       __fptrap                   10051eef f   LIBCMT:crt0fp.obj
 0001:00050ef8       __controlfp_s              10051ef8 f   LIBCMT:contrlfp.obj
 0001:00050f62       ___pwctype_func            10051f62 f   LIBCMT:ctype.obj
 0001:00050f68       ___pctype_func             10051f68 f   LIBCMT:ctype.obj
 0001:000513aa       ___free_lc_time            100523aa f   LIBCMT:inittime.obj
 0001:0005153a       ___init_time               1005253a f   LIBCMT:inittime.obj
 0001:000515e0       ___free_lconv_num          100525e0 f   LIBCMT:initnum.obj
 0001:00051620       ___init_numeric            10052620 f   LIBCMT:initnum.obj
 0001:0005181b       ___free_lconv_mon          1005281b f   LIBCMT:initmon.obj
 0001:000518a4       ___init_monetary           100528a4 f   LIBCMT:initmon.obj
 0001:00051b68       ___init_ctype              10052b68 f   LIBCMT:initctyp.obj
 0001:00051efd       ____mb_cur_max_func        10052efd f   LIBCMT:initctyp.obj
 0001:00051f26       ____mb_cur_max_l_func      10052f26 f   LIBCMT:initctyp.obj
 0001:00051f3c       ____lc_codepage_func       10052f3c f   LIBCMT:initctyp.obj
 0001:00051f62       ____lc_collate_cp_func     10052f62 f   LIBCMT:initctyp.obj
 0001:00051f88       ____lc_handle_func         10052f88 f   LIBCMT:initctyp.obj
 0001:00051fae       ___init_collate            10052fae f   LIBCMT:initcoll.obj
 0001:0005256b       ___get_qualified_locale    1005356b f   LIBCMT:getqloc.obj
 0001:00053cc0       _memcmp                    10054cc0 f   LIBCMT:memcmp.obj
 0001:000554f8       ___crtGetStringTypeA       100564f8 f   LIBCMT:a_str.obj
 0001:00055538       _strncmp                   10056538 f   LIBCMT:strncmp.obj
 0001:00055600       _strpbrk                   10056600 f   LIBCMT:strpbrk.obj
 0001:00055640       __validate_param_reuseA    10056640 f   LIBCMT:outputp.obj
 0001:0005580a       _get_crtdouble_arg         1005680a f i LIBCMT:outputp.obj
 0001:0005581a       __output_p_l               1005681a f   LIBCMT:outputp.obj
 0001:00056847       __output_s_l               10057847 f   LIBCMT:outputs.obj
 0001:000571f7       __getenv_helper_nolock     100581f7 f   LIBCMT:getenv.obj
 0001:000573ad       _getenv                    100583ad f   LIBCMT:getenv.obj
 0001:00057430       _getenv_s                  10058430 f   LIBCMT:getenv.obj
 0001:00057508       __dupenv_s                 10058508 f   LIBCMT:getenv.obj
 0001:000575ee       __iswctype_l               100585ee f   LIBCMT:iswctype.obj
 0001:00057670       _iswctype                  10058670 f   LIBCMT:iswctype.obj
 0001:000576de       _is_wctype                 100586de f   LIBCMT:iswctype.obj
 0001:000576f0       __ValidateImageBase        100586f0 f   LIBCMT:pesect.obj
 0001:00057720       __FindPESection            10058720 f   LIBCMT:pesect.obj
 0001:00057762       __IsNonwritableInCurrentImage 10058762 f   LIBCMT:pesect.obj
 0001:000577ce       __initp_misc_rand_s        100587ce f   LIBCMT:rand_s.obj
 0001:000577d8       _rand_s                    100587d8 f   LIBCMT:rand_s.obj
 0001:000578dc       __initp_misc_initcrit      100588dc f   LIBCMT:initcrit.obj
 0001:000578f6       ___crtInitCritSecAndSpinCount 100588f6 f   LIBCMT:initcrit.obj
 0001:000579bb       __initp_heap_handler       100589bb f   LIBCMT:handler.obj
 0001:000579c5       ?_set_new_handler@@YAP6AHI@ZP6AHI@Z@Z 100589c5 f   LIBCMT:handler.obj
 0001:000579f6       ?_set_new_handler@@YAP6AHI@ZH@Z 100589f6 f   LIBCMT:handler.obj
 0001:000579ff       ?_query_new_handler@@YAP6AHI@ZXZ 100589ff f   LIBCMT:handler.obj
 0001:00057a0c       __callnewh                 10058a0c f   LIBCMT:handler.obj
 0001:00057a30       __local_unwind4            10058a30 f   LIBCMT:exsup4.obj
 0001:00057b06       __seh_longjmp_unwind4@4    10058b06 f   LIBCMT:exsup4.obj
 0001:00057b22       @_EH4_CallFilterFunc@8     10058b22 f   LIBCMT:exsup4.obj
 0001:00057b39       @_EH4_TransferToHandler@8  10058b39 f   LIBCMT:exsup4.obj
 0001:00057b52       @_EH4_GlobalUnwind@4       10058b52 f   LIBCMT:exsup4.obj
 0001:00057b6c       @_EH4_LocalUnwind@16       10058b6c f   LIBCMT:exsup4.obj
 0001:00057b83       __fcloseall                10058b83 f   LIBCMT:closeall.obj
 0001:00057c22       __read_nolock              10058c22 f   LIBCMT:read.obj
 0001:000581c4       __read                     100591c4 f   LIBCMT:read.obj
 0001:000582a0       __putwch_nolock            100592a0 f   LIBCMT:putwch.obj
 0001:00058362       __cputws                   10059362 f   LIBCMT:putwch.obj
 0001:000583fd       __putwch                   100593fd f   LIBCMT:putwch.obj
 0001:00058443       __mbtowc_l                 10059443 f   LIBCMT:mbtowc.obj
 0001:00058556       _mbtowc                    10059556 f   LIBCMT:mbtowc.obj
 0001:0005856d       __set_osfhnd               1005956d f   LIBCMT:osfinfo.obj
 0001:000585ea       __free_osfhnd              100595ea f   LIBCMT:osfinfo.obj
 0001:0005866b       __get_osfhandle            1005966b f   LIBCMT:osfinfo.obj
 0001:000586dc       ___lock_fhandle            100596dc f   LIBCMT:osfinfo.obj
 0001:0005877c       __unlock_fhandle           1005977c f   LIBCMT:osfinfo.obj
 0001:0005879e       __alloc_osfhnd             1005979e f   LIBCMT:osfinfo.obj
 0001:0005893d       __open_osfhandle           1005993d f   LIBCMT:osfinfo.obj
 0001:00058aa3       __ismbbkalnum_l            10059aa3 f   LIBCMT:ismbbyte.obj
 0001:00058ab8       __ismbbkalnum              10059ab8 f   LIBCMT:ismbbyte.obj
 0001:00058acb       __ismbbkprint_l            10059acb f   LIBCMT:ismbbyte.obj
 0001:00058ae0       __ismbbkprint              10059ae0 f   LIBCMT:ismbbyte.obj
 0001:00058af3       __ismbbkpunct_l            10059af3 f   LIBCMT:ismbbyte.obj
 0001:00058b08       __ismbbkpunct              10059b08 f   LIBCMT:ismbbyte.obj
 0001:00058b1b       __ismbbalnum_l             10059b1b f   LIBCMT:ismbbyte.obj
 0001:00058b33       __ismbbalnum               10059b33 f   LIBCMT:ismbbyte.obj
 0001:00058b49       __ismbbalpha_l             10059b49 f   LIBCMT:ismbbyte.obj
 0001:00058b61       __ismbbalpha               10059b61 f   LIBCMT:ismbbyte.obj
 0001:00058b77       __ismbbgraph_l             10059b77 f   LIBCMT:ismbbyte.obj
 0001:00058b8f       __ismbbgraph               10059b8f f   LIBCMT:ismbbyte.obj
 0001:00058ba5       __ismbbprint_l             10059ba5 f   LIBCMT:ismbbyte.obj
 0001:00058bbd       __ismbbprint               10059bbd f   LIBCMT:ismbbyte.obj
 0001:00058bd3       __ismbbpunct_l             10059bd3 f   LIBCMT:ismbbyte.obj
 0001:00058be8       __ismbbpunct               10059be8 f   LIBCMT:ismbbyte.obj
 0001:00058bfb       __ismbblead_l              10059bfb f   LIBCMT:ismbbyte.obj
 0001:00058c10       __ismbblead                10059c10 f   LIBCMT:ismbbyte.obj
 0001:00058c23       __ismbbtrail_l             10059c23 f   LIBCMT:ismbbyte.obj
 0001:00058c38       __ismbbtrail               10059c38 f   LIBCMT:ismbbyte.obj
 0001:00058c4b       __ismbbkana_l              10059c4b f   LIBCMT:ismbbyte.obj
 0001:00058c9e       __ismbbkana                10059c9e f   LIBCMT:ismbbyte.obj
 0001:00058cac       __87except                 10059cac f   LIBCMT:87except.obj
 0001:00058da8       __frnd                     10059da8 f   LIBCMT:frnd.obj
 0001:00058db9       __copysign                 10059db9 f   LIBCMT:ieeemisc.obj
 0001:00058ddf       __chgsign                  10059ddf f   LIBCMT:ieeemisc.obj
 0001:00058e0a       __scalb                    10059e0a f   LIBCMT:ieeemisc.obj
 0001:00058e20       __logb                     10059e20 f   LIBCMT:ieeemisc.obj
 0001:00058f03       __nextafter                10059f03 f   LIBCMT:ieeemisc.obj
 0001:00059198       __finite                   1005a198 f   LIBCMT:ieeemisc.obj
 0001:000591ad       __isnan                    1005a1ad f   LIBCMT:ieeemisc.obj
 0001:000591db       __fpclass                  1005a1db f   LIBCMT:ieeemisc.obj
 0001:0005926f       __set_exp                  1005a26f f   LIBCMT:util.obj
 0001:00059299       __get_exp                  1005a299 f   LIBCMT:util.obj
 0001:000592ae       __add_exp                  1005a2ae f   LIBCMT:util.obj
 0001:000592d8       __set_bexp                 1005a2d8 f   LIBCMT:util.obj
 0001:000592fd       __sptype                   1005a2fd f   LIBCMT:util.obj
 0001:00059358       __decomp                   1005a358 f   LIBCMT:util.obj
 0001:00059407       __matherr                  1005a407 f   LIBCMT:matherr.obj
 0001:0005940a       __raise_exc_ex             1005a40a f   LIBCMT:fpexcept.obj
 0001:000596e4       __raise_exc                1005a6e4 f   LIBCMT:fpexcept.obj
 0001:00059705       __raise_excf               1005a705 f   LIBCMT:fpexcept.obj
 0001:00059726       __handle_exc               1005a726 f   LIBCMT:fpexcept.obj
 0001:00059907       __set_errno_from_matherr   1005a907 f   LIBCMT:fpexcept.obj
 0001:0005994f       __errcode                  1005a94f f   LIBCMT:fpexcept.obj
 0001:0005997c       __umatherr                 1005a97c f   LIBCMT:fpexcept.obj
 0001:00059a1a       __handle_qnan1             1005aa1a f   LIBCMT:fpexcept.obj
 0001:00059a6d       __handle_qnan2             1005aa6d f   LIBCMT:fpexcept.obj
 0001:00059acc       __except1                  1005aacc f   LIBCMT:fpexcept.obj
 0001:00059b86       __except2                  1005ab86 f   LIBCMT:fpexcept.obj
 0001:00059c52       __statfp                   1005ac52 f   LIBCMT:fpctrl.obj
 0001:00059c5d       __clrfp                    1005ac5d f   LIBCMT:fpctrl.obj
 0001:00059c69       __ctrlfp                   1005ac69 f   LIBCMT:fpctrl.obj
 0001:00059c90       __set_statfp               1005ac90 f   LIBCMT:fpctrl.obj
 0001:00059ce6       ___get_fpsr_sse2           1005ace6 f   LIBCMT:fpctrl.obj
 0001:00059d02       ___set_fpsr_sse2           1005ad02 f   LIBCMT:fpctrl.obj
 0001:00059d74       ___fclrf_sse2              1005ad74 f   LIBCMT:fpctrl.obj
 0001:00059d8c       ___statfp_sse2             1005ad8c f   LIBCMT:fpctrl.obj
 0001:00059d9f       ___clrfp_sse2              1005ad9f f   LIBCMT:fpctrl.obj
 0001:00059db7       ___ctrlfp_sse2             1005adb7 f   LIBCMT:fpctrl.obj
 0001:00059deb       ___set_statfp_sse2         1005adeb f   LIBCMT:fpctrl.obj
 0001:00059e01       __ZeroTail                 1005ae01 f i LIBCMT:intrncvt.obj
 0001:00059e46       __IncMan                   1005ae46 f i LIBCMT:intrncvt.obj
 0001:00059eb0       __RoundMan                 1005aeb0 f i LIBCMT:intrncvt.obj
 0001:00059f9e       __CopyMan                  1005af9e f i LIBCMT:intrncvt.obj
 0001:00059fb9       __FillZeroMan              1005afb9 f i LIBCMT:intrncvt.obj
 0001:00059fc5       __IsZeroMan                1005afc5 f i LIBCMT:intrncvt.obj
 0001:00059fde       __ShrMan                   1005afde f i LIBCMT:intrncvt.obj
 0001:0005a076       __ld12cvt                  1005b076 f i LIBCMT:intrncvt.obj
 0001:0005a59f       __ld12tod                  1005b59f f   LIBCMT:intrncvt.obj
 0001:0005aae1       __ld12tof                  1005bae1 f   LIBCMT:intrncvt.obj
 0001:0005b023       __ld12told                 1005c023 f   LIBCMT:intrncvt.obj
 0001:0005b0e5       ___add_12                  1005c0e5 f i LIBCMT:mantold.obj
 0001:0005b152       ___mtold12                 1005c152 f   LIBCMT:mantold.obj
 0001:0005b31e       __toupper                  1005c31e f   LIBCMT:toupper.obj
 0001:0005b326       __toupper_l                1005c326 f   LIBCMT:toupper.obj
 0001:0005b43e       _toupper                   1005c43e f   LIBCMT:toupper.obj
 0001:0005b465       ___ansicp                  1005c465 f   LIBCMT:convrtcp.obj
 0001:0005b4ac       ___convertcp               1005c4ac f   LIBCMT:convrtcp.obj
 0001:0005b65e       __stbuf                    1005c65e f   LIBCMT:_sftbuf.obj
 0001:0005b6f4       __ftbuf                    1005c6f4 f   LIBCMT:_sftbuf.obj
 0001:0005b723       _vprintf_helper            1005c723 f   LIBCMT:vprintf.obj
 0001:0005b7b3       __vprintf_l                1005c7b3 f   LIBCMT:vprintf.obj
 0001:0005b7cd       __vprintf_s_l              1005c7cd f   LIBCMT:vprintf.obj
 0001:0005b7e7       __vprintf_p_l              1005c7e7 f   LIBCMT:vprintf.obj
 0001:0005b801       _vprintf                   1005c801 f   LIBCMT:vprintf.obj
 0001:0005b819       _vprintf_s                 1005c819 f   LIBCMT:vprintf.obj
 0001:0005b831       __vprintf_p                1005c831 f   LIBCMT:vprintf.obj
 0001:0005b849       _$I10_OUTPUT               1005c849 f   LIBCMT:x10fout.obj
 0001:0005c111       __set_controlfp            1005d111 f   LIBCMT:ieee87.obj
 0001:0005c467       __statusfp                 1005d467 f   LIBCMT:ieee87.obj
 0001:0005c4f7       __fpreset                  1005d4f7 f   LIBCMT:ieee87.obj
 0001:0005c727       __statusfp2                1005d727 f   LIBCMT:ieee87.obj
 0001:0005c77f       __clearfp                  1005d77f f   LIBCMT:ieee87.obj
 0001:0005c856       ___control87_2             1005d856 f   LIBCMT:ieee87.obj
 0001:0005cb60       __control87                1005db60 f i LIBCMT:ieee87.obj
 0001:0005ce63       __controlfp                1005de63 f   LIBCMT:ieee87.obj
 0001:0005d16c       __strnicmp_l               1005e16c f   LIBCMT:strnicmp.obj
 0001:0005d25c       __strnicmp                 1005e25c f   LIBCMT:strnicmp.obj
 0001:0005d393       __itoa_s                   1005e393 f   LIBCMT:xtoas.obj
 0001:0005d3bb       __ltoa_s                   1005e3bb f   LIBCMT:xtoas.obj
 0001:0005d3e0       __ultoa_s                  1005e3e0 f   LIBCMT:xtoas.obj
 0001:0005d4ee       __i64toa_s                 1005e4ee f   LIBCMT:xtoas.obj
 0001:0005d521       __ui64toa_s                1005e521 f   LIBCMT:xtoas.obj
 0001:0005d53e       __mbsnbicoll_l             1005e53e f   LIBCMT:mbsnbico.obj
 0001:0005d62a       __mbsnbicoll               1005e62a f   LIBCMT:mbsnbico.obj
 0001:0005d641       ___wtomb_environ           1005e641 f   LIBCMT:wtombenv.obj
 0001:0005d6d6       _strnlen                   1005e6d6 f   LIBCMT:strlen_s.obj
 0001:0005d914       ___crtGetStringTypeW       1005e914 f   LIBCMT:w_str.obj
 0001:0005d952       ___initconin               1005e952 f   LIBCMT:initcon.obj
 0001:0005d971       ___initconout              1005e971 f   LIBCMT:initcon.obj
 0001:0005d990       ___termcon                 1005e990 f   LIBCMT:initcon.obj
 0001:0005d9bd       _wcslen                    1005e9bd f   LIBCMT:wcslen.obj
 0001:0005d9d3       _ldexp                     1005e9d3 f   LIBCMT:ldexp.obj
 0001:0005db90       ___ascii_strnicmp          1005eb90 f   LIBCMT:_strnicm.obj
 0001:0005df94       ___crtCompareStringA       1005ef94 f   LIBCMT:a_cmp.obj
 0001:0005dfd4       __strnicoll_l              1005efd4 f   LIBCMT:strnicol.obj
 0001:0005e0cc       __strnicoll                1005f0cc f   LIBCMT:strnicol.obj
 0001:0005e19d       ___crtsetenv               1005f19d f   LIBCMT:setenv.obj
 0001:0005e3e4       __mbschr_l                 1005f3e4 f   LIBCMT:mbschr.obj
 0001:0005e49e       __mbschr                   1005f49e f   LIBCMT:mbschr.obj
 0001:0005e4b1       __Tolower                  1005f4b1 f   libcpmt:_tolower.obj
 0001:0005e5c0       __Getctype                 1005f5c0 f   libcpmt:_tolower.obj
 0001:0005e61b       __Wcrtomb                  1005f61b f   libcpmt:xwctomb.obj
 0001:0005e69c       __Getcvt                   1005f69c f   libcpmt:xwctomb.obj
 0001:0005e6b0       ___Wcrtomb_lk              1005f6b0 f   libcpmt:xwctomb.obj
 0001:0005e6b5       ??0_Init_locks@std@@QAE@XZ 1005f6b5 f   libcpmt:xlock.obj
 0001:0005e6e4       ??1_Init_locks@std@@QAE@XZ 1005f6e4 f   libcpmt:xlock.obj
 0001:0005e70d       ?_Init_locks_ctor@_Init_locks@std@@CAXPAV12@@Z 1005f70d f   libcpmt:xlock.obj
 0001:0005e736       ?_Init_locks_dtor@_Init_locks@std@@CAXPAV12@@Z 1005f736 f   libcpmt:xlock.obj
 0001:0005e75f       ??0_Lockit@std@@QAE@XZ     1005f75f f   libcpmt:xlock.obj
 0001:0005e774       ??0_Lockit@std@@QAE@H@Z    1005f774 f   libcpmt:xlock.obj
 0001:0005e795       ??1_Lockit@std@@QAE@XZ     1005f795 f   libcpmt:xlock.obj
 0001:0005e7a7       ?_Lockit_ctor@_Lockit@std@@CAXPAV12@@Z 1005f7a7 f   libcpmt:xlock.obj
 0001:0005e7b3       ?_Lockit_ctor@_Lockit@std@@CAXPAV12@H@Z 1005f7b3 f   libcpmt:xlock.obj
 0001:0005e7d0       ?_Lockit_dtor@_Lockit@std@@CAXPAV12@@Z 1005f7d0 f   libcpmt:xlock.obj
 0001:0005e7e6       ?_Lockit_ctor@_Lockit@std@@SAXH@Z 1005f7e6 f   libcpmt:xlock.obj
 0001:0005e7fd       ?_Lockit_dtor@_Lockit@std@@SAXH@Z 1005f7fd f   libcpmt:xlock.obj
 0001:0005e814       ??0locale@std@@QAE@W4_Uninitialized@1@@Z 1005f814 f i libcpmt:locale0.obj
 0001:0005e819       ??0locale@std@@AAE@PAV_Locimp@01@@Z 1005f819 f i libcpmt:locale0.obj
 0001:0005e824       ??0_Fac_node@std@@QAE@PAU01@PAVfacet@locale@1@@Z 1005f824 f i libcpmt:locale0.obj
 0001:0005e836       ??1_Fac_node@std@@QAE@XZ   1005f836 f i libcpmt:locale0.obj
 0001:0005e84b       ??_G_Fac_node@std@@QAEPAXI@Z 1005f84b f i libcpmt:locale0.obj
 0001:0005e867       __Deletegloballocale       1005f867 f   libcpmt:locale0.obj
 0001:0005e8ad       ?_Getgloballocale@locale@std@@CAPAV_Locimp@12@XZ 1005f8ad f   libcpmt:locale0.obj
 0001:0005e8b3       ?_Setgloballocale@locale@std@@CAXPAX@Z 1005f8b3 f   libcpmt:locale0.obj
 0001:0005e8d8       ?_Clocptr_func@_Locimp@locale@std@@CAAAPAV123@XZ 1005f8d8 f   libcpmt:locale0.obj
 0001:0005e8de       ?_Id_cnt_func@id@locale@std@@CAAAHXZ 1005f8de f   libcpmt:locale0.obj
 0001:0005e8e4       ?_Id_func@?$ctype@D@std@@SAAAVid@locale@2@XZ 1005f8e4 f   libcpmt:locale0.obj
 0001:0005e8ea       ?_Id_func@?$ctype@_W@std@@SAAAVid@locale@2@XZ 1005f8ea f   libcpmt:locale0.obj
 0001:0005e8f0       ?_Id_func@?$codecvt@_WDH@std@@SAAAVid@locale@2@XZ 1005f8f0 f   libcpmt:locale0.obj
 0001:0005e8f6       ?_Id_func@?$ctype@G@std@@SAAAVid@locale@2@XZ 1005f8f6 f   libcpmt:locale0.obj
 0001:0005e8fc       ?_Id_func@?$codecvt@GDH@std@@SAAAVid@locale@2@XZ 1005f8fc f   libcpmt:locale0.obj
 0001:0005e902       ?_Locimp_dtor@_Locimp@locale@std@@CAXPAV123@@Z 1005f902 f   libcpmt:locale0.obj
 0001:0005e962       __Fac_tidy                 1005f962 f   libcpmt:locale0.obj
 0001:0005e9a5       ?facet_Register@facet@locale@std@@CAXPAV123@@Z 1005f9a5 f   libcpmt:locale0.obj
 0001:0005e9de       ?_Locinfo_dtor@_Locinfo@std@@SAXPAV12@@Z 1005f9de f   libcpmt:locale0.obj
 0001:0005ea01       ??0_Locimp@locale@std@@AAE@_N@Z 1005fa01 f i libcpmt:locale0.obj
 0001:0005ea4a       ??1_Locimp@locale@std@@MAE@XZ 1005fa4a f i libcpmt:locale0.obj
 0001:0005ea87       ??_G_Locimp@locale@std@@MAEPAXI@Z 1005fa87 f i libcpmt:locale0.obj
 0001:0005ea87       ??_E_Locimp@locale@std@@MAEPAXI@Z 1005fa87 f i libcpmt:locale0.obj
 0001:0005eaa3       ?_Init@locale@std@@CAPAV_Locimp@12@XZ 1005faa3 f   libcpmt:locale0.obj
 0001:0005eb3d       ?_Locinfo_ctor@_Locinfo@std@@SAXPAV12@PBD@Z 1005fb3d f   libcpmt:locale0.obj
 0001:0005eb87       ?classic@locale@std@@SAABV12@XZ 1005fb87 f   libcpmt:locale0.obj
 0001:0005eb92       ?empty@locale@std@@SA?AV12@XZ 1005fb92 f   libcpmt:locale0.obj
 0001:0005ebd4       ?_Callfns@ios_base@std@@AAEXW4event@12@@Z 1005fbd4 f i libcpmt:ios.obj
 0001:0005ebf6       ?_Tidy@ios_base@std@@AAAXXZ 1005fbf6 f i libcpmt:ios.obj
 0001:0005ec3c       ?_Fpz_func@std@@YAAA_JXZ   1005fc3c f   libcpmt:ios.obj
 0001:0005ec42       ?_BADOFF_func@std@@YAABJXZ 1005fc42 f   libcpmt:ios.obj
 0001:0005ec48       ?_Index_func@ios_base@std@@CAAAHXZ 1005fc48 f   libcpmt:ios.obj
 0001:0005ec4e       ?_Sync_func@ios_base@std@@CAAA_NXZ 1005fc4e f   libcpmt:ios.obj
 0001:0005ec54       ?_Addstd@ios_base@std@@SAXPAV12@@Z 1005fc54 f   libcpmt:ios.obj
 0001:0005eca4       ?_Ios_base_dtor@ios_base@std@@CAXPAV12@@Z 1005fca4 f   libcpmt:ios.obj
 0001:0005ece2       ??0_Mutex@std@@QAE@XZ      1005fce2 f   libcpmt:xmutex.obj
 0001:0005ecfa       ??1_Mutex@std@@QAE@XZ      1005fcfa f   libcpmt:xmutex.obj
 0001:0005ed0f       ?_Lock@_Mutex@std@@QAEXXZ  1005fd0f f   libcpmt:xmutex.obj
 0001:0005ed18       ?_Unlock@_Mutex@std@@QAEXXZ 1005fd18 f   libcpmt:xmutex.obj
 0001:0005ed21       ?_Mutex_ctor@_Mutex@std@@CAXPAV12@@Z 1005fd21 f   libcpmt:xmutex.obj
 0001:0005ed37       ?_Mutex_dtor@_Mutex@std@@CAXPAV12@@Z 1005fd37 f   libcpmt:xmutex.obj
 0001:0005ed4e       ?_Mutex_Lock@_Mutex@std@@CAXPAV12@@Z 1005fd4e f   libcpmt:xmutex.obj
 0001:0005ed5b       ?_Mutex_Unlock@_Mutex@std@@CAXPAV12@@Z 1005fd5b f   libcpmt:xmutex.obj
 0001:0005ed68       ??0invalid_argument@std@@QAE@ABV?$basic_string@DU?$char_traits@D@std@@V?$allocator@D@2@@1@@Z 1005fd68 f i libcpmt:string.obj
 0001:0005ed80       ??1invalid_argument@std@@UAE@XZ 1005fd80 f i libcpmt:string.obj
 0001:0005ed8b       ??_Einvalid_argument@std@@UAEPAXI@Z 1005fd8b f i libcpmt:string.obj
 0001:0005ed8b       ??_Ginvalid_argument@std@@UAEPAXI@Z 1005fd8b f i libcpmt:string.obj
 0001:0005edad       ??0out_of_range@std@@QAE@ABV?$basic_string@DU?$char_traits@D@std@@V?$allocator@D@2@@1@@Z 1005fdad f i libcpmt:string.obj
 0001:0005edc5       ??1out_of_range@std@@UAE@XZ 1005fdc5 f i libcpmt:string.obj
 0001:0005edd0       ??_Eout_of_range@std@@UAEPAXI@Z 1005fdd0 f i libcpmt:string.obj
 0001:0005edd0       ??_Gout_of_range@std@@UAEPAXI@Z 1005fdd0 f i libcpmt:string.obj
 0001:0005edf2       ?_Xlen@_String_base@std@@SAXXZ 1005fdf2 f   libcpmt:string.obj
 0001:0005ee31       ?_Xran@_String_base@std@@SAXXZ 1005fe31 f   libcpmt:string.obj
 0001:0005ee70       ??0out_of_range@std@@QAE@ABV01@@Z 1005fe70 f i libcpmt:string.obj
 0001:0005ee88       ?_Xinvarg@_String_base@std@@SAXXZ 1005fe88 f   libcpmt:string.obj
 0001:0005eec7       ??0invalid_argument@std@@QAE@ABV01@@Z 1005fec7 f i libcpmt:string.obj
 0001:0005eedf       __Toupper                  1005fedf f   libcpmt:_toupper.obj
 0001:0005eff3       ?uncaught_exception@std@@YA_NXZ 1005fff3 f   libcpmt:uncaught.obj
 0001:0005eff8       ?_Xfsopen@std@@YAPAU_iobuf@@PB_W0H@Z 1005fff8 f   libcpmt:fiopen.obj
 0001:0005f0ad       ?_Fiopen@std@@YAPAU_iobuf@@PB_WHH@Z 100600ad f   libcpmt:fiopen.obj
 0001:0005f162       ?_Fiopen@std@@YAPAU_iobuf@@PBGHH@Z 10060162 f   libcpmt:fiopen.obj
 0001:0005f167       ?_Fiopen@std@@YAPAU_iobuf@@PBDHH@Z 10060167 f   libcpmt:fiopen.obj
 0001:0005f1c2       ?precision@ios_base@std@@QAEHH@Z 100601c2 f i libcpmt:iomanip.obj
 0001:0005f24e       ??0?$_Smanip@H@std@@QAE@P6AXAAVios_base@1@H@ZH@Z 1006024e f i libcpmt:iomanip.obj
 0001:0005f260       ?resetiosflags@std@@YA?AU?$_Smanip@H@1@H@Z 10060260 f   libcpmt:iomanip.obj
 0001:0005f272       ?setiosflags@std@@YA?AU?$_Smanip@H@1@H@Z 10060272 f   libcpmt:iomanip.obj
 0001:0005f284       ?setbase@std@@YA?AU?$_Smanip@H@1@H@Z 10060284 f   libcpmt:iomanip.obj
 0001:0005f296       ?setprecision@std@@YA?AU?$_Smanip@H@1@H@Z 10060296 f   libcpmt:iomanip.obj
 0001:0005f2a8       ?setw@std@@YA?AU?$_Smanip@H@1@H@Z 100602a8 f   libcpmt:iomanip.obj
 0001:0005f2fa       __GetLocaleForCP           100602fa f   libcpmt:xmbtowc.obj
 0001:0005f3dd       __Mbrtowc                  100603dd f   libcpmt:xmbtowc.obj
 0001:0005f54e       __Once                     1006054e f   libcpmt:xmtx.obj
 0001:0005f585       __Mtxinit                  10060585 f   libcpmt:xmtx.obj
 0001:0005f590       __Mtxdst                   10060590 f   libcpmt:xmtx.obj
 0001:0005f59b       __Mtxlock                  1006059b f   libcpmt:xmtx.obj
 0001:0005f5a6       __Mtxunlock                100605a6 f   libcpmt:xmtx.obj
 0001:0005f5b1       ?_Atexit@@YAXP6AXXZ@Z      100605b1 f   libcpmt:iosptrs.obj
 0001:0005f5d1       ??1_Init_atexit@@QAE@XZ    100605d1 f i libcpmt:iosptrs.obj
 0001:0005f5f6       _GetProcAddress@8          100605f6 f   kernel32:KERNEL32.dll
 0001:0005f5fc       _GetModuleHandleA@4        100605fc f   kernel32:KERNEL32.dll
 0001:0005f602       _LoadLibraryA@4            10060602 f   kernel32:KERNEL32.dll
 0001:0005f608       _FreeLibrary@4             10060608 f   kernel32:KERNEL32.dll
 0001:0005f60e       _MultiByteToWideChar@24    1006060e f   kernel32:KERNEL32.dll
 0001:0005f614       _WideCharToMultiByte@32    10060614 f   kernel32:KERNEL32.dll
 0001:0005f61a       _RtlUnwind@16              1006061a f   kernel32:KERNEL32.dll
 0001:0005f620       _TerminateProcess@8        10060620 f   kernel32:KERNEL32.dll
 0001:0005f626       _GetCurrentProcess@0       10060626 f   kernel32:KERNEL32.dll
 0001:0005f62c       _UnhandledExceptionFilter@4 1006062c f   kernel32:KERNEL32.dll
 0001:0005f632       _SetUnhandledExceptionFilter@4 10060632 f   kernel32:KERNEL32.dll
 0001:0005f638       _IsDebuggerPresent@0       10060638 f   kernel32:KERNEL32.dll
 0001:0005f63e       _RaiseException@16         1006063e f   kernel32:KERNEL32.dll
 0001:0005f644       _GetSystemTimeAsFileTime@4 10060644 f   kernel32:KERNEL32.dll
 0001:0005f64a       _GetTimeFormatA@24         1006064a f   kernel32:KERNEL32.dll
 0001:0005f650       _GetDateFormatA@24         10060650 f   kernel32:KERNEL32.dll
 0001:0005f656       _GetCurrentThreadId@0      10060656 f   kernel32:KERNEL32.dll
 0001:0005f65c       _GetCommandLineA@0         1006065c f   kernel32:KERNEL32.dll
 0001:0005f662       _HeapFree@12               10060662 f   kernel32:KERNEL32.dll
 0001:0005f668       _GetVersionExA@4           10060668 f   kernel32:KERNEL32.dll
 0001:0005f66e       _GetDriveTypeA@4           1006066e f   kernel32:KERNEL32.dll
 0001:0005f674       _GetLastError@0            10060674 f   kernel32:KERNEL32.dll
 0001:0005f67a       _GetFullPathNameA@16       1006067a f   kernel32:KERNEL32.dll
 0001:0005f680       _TlsGetValue@4             10060680 f   kernel32:KERNEL32.dll
 0001:0005f686       _TlsAlloc@0                10060686 f   kernel32:KERNEL32.dll
 0001:0005f68c       _TlsSetValue@8             1006068c f   kernel32:KERNEL32.dll
 0001:0005f692       _TlsFree@4                 10060692 f   kernel32:KERNEL32.dll
 0001:0005f698       _InterlockedIncrement@4    10060698 f   kernel32:KERNEL32.dll
 0001:0005f69e       _SetLastError@4            1006069e f   kernel32:KERNEL32.dll
 0001:0005f6a4       _InterlockedDecrement@4    100606a4 f   kernel32:KERNEL32.dll
 0001:0005f6aa       _GetCurrentThread@0        100606aa f   kernel32:KERNEL32.dll
 0001:0005f6b0       _WriteFile@20              100606b0 f   kernel32:KERNEL32.dll
 0001:0005f6b6       _GetStdHandle@4            100606b6 f   kernel32:KERNEL32.dll
 0001:0005f6bc       _GetTimeZoneInformation@4  100606bc f   kernel32:KERNEL32.dll
 0001:0005f6c2       _GetCPInfo@8               100606c2 f   kernel32:KERNEL32.dll
 0001:0005f6c8       _GetACP@0                  100606c8 f   kernel32:KERNEL32.dll
 0001:0005f6ce       _GetOEMCP@0                100606ce f   kernel32:KERNEL32.dll
 0001:0005f6d4       _ExitProcess@4             100606d4 f   kernel32:KERNEL32.dll
 0001:0005f6da       _EnterCriticalSection@4    100606da f   kernel32:KERNEL32.dll
 0001:0005f6e0       _LeaveCriticalSection@4    100606e0 f   kernel32:KERNEL32.dll
 0001:0005f6e6       _SetHandleCount@4          100606e6 f   kernel32:KERNEL32.dll
 0001:0005f6ec       _GetFileType@4             100606ec f   kernel32:KERNEL32.dll
 0001:0005f6f2       _GetStartupInfoA@4         100606f2 f   kernel32:KERNEL32.dll
 0001:0005f6f8       _DeleteCriticalSection@4   100606f8 f   kernel32:KERNEL32.dll
 0001:0005f6fe       _GetConsoleCP@0            100606fe f   kernel32:KERNEL32.dll
 0001:0005f704       _GetConsoleMode@8          10060704 f   kernel32:KERNEL32.dll
 0001:0005f70a       _FlushFileBuffers@4        1006070a f   kernel32:KERNEL32.dll
 0001:0005f710       _FatalAppExitA@8           10060710 f   kernel32:KERNEL32.dll
 0001:0005f716       _SetFilePointer@16         10060716 f   kernel32:KERNEL32.dll
 0001:0005f71c       _CloseHandle@4             1006071c f   kernel32:KERNEL32.dll
 0001:0005f722       _FreeEnvironmentStringsA@4 10060722 f   kernel32:KERNEL32.dll
 0001:0005f728       _GetEnvironmentStrings@0   10060728 f   kernel32:KERNEL32.dll
 0001:0005f72e       _FreeEnvironmentStringsW@4 1006072e f   kernel32:KERNEL32.dll
 0001:0005f734       _GetEnvironmentStringsW@0  10060734 f   kernel32:KERNEL32.dll
 0001:0005f73a       _QueryPerformanceCounter@4 1006073a f   kernel32:KERNEL32.dll
 0001:0005f740       _GetTickCount@0            10060740 f   kernel32:KERNEL32.dll
 0001:0005f746       _GetCurrentProcessId@0     10060746 f   kernel32:KERNEL32.dll
 0001:0005f74c       _GetCurrentDirectoryA@8    1006074c f   kernel32:KERNEL32.dll
 0001:0005f752       _SetCurrentDirectoryA@4    10060752 f   kernel32:KERNEL32.dll
 0001:0005f758       _LCMapStringA@24           10060758 f   kernel32:KERNEL32.dll
 0001:0005f75e       _LCMapStringW@24           1006075e f   kernel32:KERNEL32.dll
 0001:0005f764       _SetConsoleCtrlHandler@8   10060764 f   kernel32:KERNEL32.dll
 0001:0005f76a       _GetLocaleInfoA@16         1006076a f   kernel32:KERNEL32.dll
 0001:0005f770       _GetLocaleInfoW@16         10060770 f   kernel32:KERNEL32.dll
 0001:0005f776       _GetUserDefaultLCID@0      10060776 f   kernel32:KERNEL32.dll
 0001:0005f77c       _EnumSystemLocalesA@8      1006077c f   kernel32:KERNEL32.dll
 0001:0005f782       _IsValidLocale@8           10060782 f   kernel32:KERNEL32.dll
 0001:0005f788       _IsValidCodePage@4         10060788 f   kernel32:KERNEL32.dll
 0001:0005f78e       _GetStringTypeA@20         1006078e f   kernel32:KERNEL32.dll
 0001:0005f794       _GetStringTypeW@16         10060794 f   kernel32:KERNEL32.dll
 0001:0005f79a       _InterlockedExchange@8     1006079a f   kernel32:KERNEL32.dll
 0001:0005f7a0       _InitializeCriticalSection@4 100607a0 f   kernel32:KERNEL32.dll
 0001:0005f7a6       _ReadFile@20               100607a6 f   kernel32:KERNEL32.dll
 0001:0005f7ac       _WriteConsoleA@20          100607ac f   kernel32:KERNEL32.dll
 0001:0005f7b2       _GetConsoleOutputCP@0      100607b2 f   kernel32:KERNEL32.dll
 0001:0005f7b8       _WriteConsoleW@20          100607b8 f   kernel32:KERNEL32.dll
 0001:0005f7be       _SetStdHandle@8            100607be f   kernel32:KERNEL32.dll
 0001:0005f7c4       _CreateFileA@28            100607c4 f   kernel32:KERNEL32.dll
 0001:0005f7ca       _CompareStringA@24         100607ca f   kernel32:KERNEL32.dll
 0001:0005f7d0       _CompareStringW@24         100607d0 f   kernel32:KERNEL32.dll
 0001:0005f7d6       _SetEnvironmentVariableA@8 100607d6 f   kernel32:KERNEL32.dll
 0001:0005f7dc       _InterlockedCompareExchange@12 100607dc f   kernel32:KERNEL32.dll
 0001:0005f7e2       _Sleep@4                   100607e2 f   kernel32:KERNEL32.dll
 0001:0005f7e8       _Error                     100607e8 f   tier0:tier0.dll
 0001:0005f7ee       _CommandLine_Tier0         100607ee f   tier0:tier0.dll
 0001:0005f7f4       _AssertValidStringPtr      100607f4 f   tier0:tier0.dll
 0001:0005f7fa       __AssertValidWritePtr      100607fa f   tier0:tier0.dll
 0001:0005f800       __AssertValidReadPtr       10060800 f   tier0:tier0.dll
 0001:0005f982       __strupr_s_l               10060982 f   LIBCMT:strupr.obj
 0001:0005f9b5       __strupr_s                 100609b5 f   LIBCMT:strupr.obj
 0001:0005f9c8       __strupr_l                 100609c8 f   LIBCMT:strupr.obj
 0001:0005f9df       __strupr                   100609df f   LIBCMT:strupr.obj
 0001:0005f9df       _strupr                    100609df f   LIBCMT:strupr.obj
 0001:0005fa41       ?_strlwr_s_l_stat@@YAHPADIPAUlocaleinfo_struct@@@Z 10060a41 f   LIBCMT:strlwr.obj
 0001:0005fbc2       __strlwr_s_l               10060bc2 f   LIBCMT:strlwr.obj
 0001:0005fbf4       __strlwr_s                 10060bf4 f   LIBCMT:strlwr.obj
 0001:0005fc07       __strlwr_l                 10060c07 f   LIBCMT:strlwr.obj
 0001:0005fc1e       __strlwr                   10060c1e f   LIBCMT:strlwr.obj
 0001:0005fc1e       _strlwr                    10060c1e f   LIBCMT:strlwr.obj
 0001:0005fc80       __fsopen                   10060c80 f   LIBCMT:fopen.obj
 0001:0005fd44       _fopen                     10060d44 f   LIBCMT:fopen.obj
 0001:0005fd57       _fopen_s                   10060d57 f   LIBCMT:fopen.obj
 0001:0005fdd6       __wcstombs_l_helper        10060dd6 f   LIBCMT:wcstombs.obj
 0001:0006001c       __wcstombs_l               1006101c f   LIBCMT:wcstombs.obj
 0001:00060021       _wcstombs                  10061021 f   LIBCMT:wcstombs.obj
 0001:00060038       __wcstombs_s_l             10061038 f   LIBCMT:wcstombs.obj
 0001:000600e9       _wcstombs_s                100610e9 f   LIBCMT:wcstombs.obj
 0001:00060107       __wfsopen                  10061107 f   LIBCMT:wfopen.obj
 0001:000601cd       __wfopen                   100611cd f   LIBCMT:wfopen.obj
 0001:000601e0       __wfopen_s                 100611e0 f   LIBCMT:wfopen.obj
 0001:00060230       __mbstowcs_l_helper        10061230 f   LIBCMT:mbstowcs.obj
 0001:000603b8       __mbstowcs_l               100613b8 f   LIBCMT:mbstowcs.obj
 0001:000603bd       _mbstowcs                  100613bd f   LIBCMT:mbstowcs.obj
 0001:000603e5       __mbstowcs_s_l             100613e5 f   LIBCMT:mbstowcs.obj
 0001:000604db       _mbstowcs_s                100614db f   LIBCMT:mbstowcs.obj
 0001:000604f9       __openfile                 100614f9 f   LIBCMT:_open.obj
 0001:0006079b       __getstream                1006179b f   LIBCMT:stream.obj
 0001:000608c1       __wopenfile                100618c1 f   LIBCMT:_wopen.obj
 0001:0006118b       __open                     1006218b f   LIBCMT:open.obj
 0001:00061241       __sopen_helper             10062241 f   LIBCMT:open.obj
 0001:0006130d       __sopen                    1006230d f   LIBCMT:open.obj
 0001:0006133d       __sopen_s                  1006233d f   LIBCMT:open.obj
 0001:0006135b       __mbsicmp_l                1006235b f   LIBCMT:mbsicmp.obj
 0001:00061575       __mbsicmp                  10062575 f   LIBCMT:mbsicmp.obj
 0001:00061588       __mbsnbcmp_l               10062588 f   LIBCMT:mbsnbcmp.obj
 0001:000616f1       __mbsnbcmp                 100626f1 f   LIBCMT:mbsnbcmp.obj
 0001:00061d47       __wopen                    10062d47 f   LIBCMT:wopen.obj
 0001:00061dfd       __wsopen_helper            10062dfd f   LIBCMT:wopen.obj
 0001:00061ec9       __wsopen                   10062ec9 f   LIBCMT:wopen.obj
 0001:00061ef9       __wsopen_s                 10062ef9 f   LIBCMT:wopen.obj
 0001:00061f17       __wcsicmp_l                10062f17 f   LIBCMT:wcsicmp.obj
 0001:00062026       __wcsicmp                  10063026 f   LIBCMT:wcsicmp.obj
 0001:000620b7       _wcsncmp                   100630b7 f   LIBCMT:wcsncmp.obj
 0001:000620ec       __chsize_nolock            100630ec f   LIBCMT:chsize.obj
 0001:000622a0       __chsize_s                 100632a0 f   LIBCMT:chsize.obj
 0001:0006238d       __chsize                   1006338d f   LIBCMT:chsize.obj
 0001:000623a5       __setmode_nolock           100633a5 f   LIBCMT:setmode.obj
 0001:00062461       __set_fmode                10063461 f   LIBCMT:setmode.obj
 0001:000624a7       __get_fmode                100634a7 f   LIBCMT:setmode.obj
 0001:000624db       __setmode                  100634db f   LIBCMT:setmode.obj
 0001:000625d2       __towlower_l               100635d2 f   LIBCMT:towlower.obj
 0001:0006267f       _towlower                  1006367f f   LIBCMT:towlower.obj
 0001:0006290a       ___crtLCMapStringW         1006390a f   LIBCMT:w_map.obj
 0001:0006294a       _CreateFileW@28            1006394a f   kernel32:KERNEL32.dll
 0001:00062950       _SetEndOfFile@4            10063950 f   kernel32:KERNEL32.dll
 0002:00000000       __imp__GetModuleFileNameA@12 1006a000     kernel32:KERNEL32.dll
 0002:00000004       __imp__VirtualQuery@12     1006a004     kernel32:KERNEL32.dll
 0002:00000008       __imp__HeapAlloc@12        1006a008     kernel32:KERNEL32.dll
 0002:0000000c       __imp__GetProcessHeap@0    1006a00c     kernel32:KERNEL32.dll
 0002:00000010       __imp__CreateFileW@28      1006a010     kernel32:KERNEL32.dll
 0002:00000014       __imp__Sleep@4             1006a014     kernel32:KERNEL32.dll
 0002:00000018       __imp__InterlockedCompareExchange@12 1006a018     kernel32:KERNEL32.dll
 0002:0000001c       __imp__SetEnvironmentVariableA@8 1006a01c     kernel32:KERNEL32.dll
 0002:00000020       __imp__CompareStringW@24   1006a020     kernel32:KERNEL32.dll
 0002:00000024       __imp__CompareStringA@24   1006a024     kernel32:KERNEL32.dll
 0002:00000028       __imp__CreateFileA@28      1006a028     kernel32:KERNEL32.dll
 0002:0000002c       __imp__GetProcAddress@8    1006a02c     kernel32:KERNEL32.dll
 0002:00000030       __imp__GetModuleHandleA@4  1006a030     kernel32:KERNEL32.dll
 0002:00000034       __imp__LoadLibraryA@4      1006a034     kernel32:KERNEL32.dll
 0002:00000038       __imp__FreeLibrary@4       1006a038     kernel32:KERNEL32.dll
 0002:0000003c       __imp__MultiByteToWideChar@24 1006a03c     kernel32:KERNEL32.dll
 0002:00000040       __imp__WideCharToMultiByte@32 1006a040     kernel32:KERNEL32.dll
 0002:00000044       __imp__RtlUnwind@16        1006a044     kernel32:KERNEL32.dll
 0002:00000048       __imp__TerminateProcess@8  1006a048     kernel32:KERNEL32.dll
 0002:0000004c       __imp__GetCurrentProcess@0 1006a04c     kernel32:KERNEL32.dll
 0002:00000050       __imp__UnhandledExceptionFilter@4 1006a050     kernel32:KERNEL32.dll
 0002:00000054       __imp__SetUnhandledExceptionFilter@4 1006a054     kernel32:KERNEL32.dll
 0002:00000058       __imp__IsDebuggerPresent@0 1006a058     kernel32:KERNEL32.dll
 0002:0000005c       __imp__RaiseException@16   1006a05c     kernel32:KERNEL32.dll
 0002:00000060       __imp__GetSystemTimeAsFileTime@4 1006a060     kernel32:KERNEL32.dll
 0002:00000064       __imp__GetTimeFormatA@24   1006a064     kernel32:KERNEL32.dll
 0002:00000068       __imp__GetDateFormatA@24   1006a068     kernel32:KERNEL32.dll
 0002:0000006c       __imp__GetCurrentThreadId@0 1006a06c     kernel32:KERNEL32.dll
 0002:00000070       __imp__GetCommandLineA@0   1006a070     kernel32:KERNEL32.dll
 0002:00000074       __imp__HeapFree@12         1006a074     kernel32:KERNEL32.dll
 0002:00000078       __imp__GetVersionExA@4     1006a078     kernel32:KERNEL32.dll
 0002:0000007c       __imp__GetDriveTypeA@4     1006a07c     kernel32:KERNEL32.dll
 0002:00000080       __imp__GetLastError@0      1006a080     kernel32:KERNEL32.dll
 0002:00000084       __imp__GetFullPathNameA@16 1006a084     kernel32:KERNEL32.dll
 0002:00000088       __imp__TlsGetValue@4       1006a088     kernel32:KERNEL32.dll
 0002:0000008c       __imp__TlsAlloc@0          1006a08c     kernel32:KERNEL32.dll
 0002:00000090       __imp__TlsSetValue@8       1006a090     kernel32:KERNEL32.dll
 0002:00000094       __imp__TlsFree@4           1006a094     kernel32:KERNEL32.dll
 0002:00000098       __imp__InterlockedIncrement@4 1006a098     kernel32:KERNEL32.dll
 0002:0000009c       __imp__SetLastError@4      1006a09c     kernel32:KERNEL32.dll
 0002:000000a0       __imp__InterlockedDecrement@4 1006a0a0     kernel32:KERNEL32.dll
 0002:000000a4       __imp__GetCurrentThread@0  1006a0a4     kernel32:KERNEL32.dll
 0002:000000a8       __imp__WriteFile@20        1006a0a8     kernel32:KERNEL32.dll
 0002:000000ac       __imp__GetStdHandle@4      1006a0ac     kernel32:KERNEL32.dll
 0002:000000b0       __imp__GetTimeZoneInformation@4 1006a0b0     kernel32:KERNEL32.dll
 0002:000000b4       __imp__GetCPInfo@8         1006a0b4     kernel32:KERNEL32.dll
 0002:000000b8       __imp__GetACP@0            1006a0b8     kernel32:KERNEL32.dll
 0002:000000bc       __imp__GetOEMCP@0          1006a0bc     kernel32:KERNEL32.dll
 0002:000000c0       __imp__ExitProcess@4       1006a0c0     kernel32:KERNEL32.dll
 0002:000000c4       __imp__EnterCriticalSection@4 1006a0c4     kernel32:KERNEL32.dll
 0002:000000c8       __imp__LeaveCriticalSection@4 1006a0c8     kernel32:KERNEL32.dll
 0002:000000cc       __imp__SetHandleCount@4    1006a0cc     kernel32:KERNEL32.dll
 0002:000000d0       __imp__GetFileType@4       1006a0d0     kernel32:KERNEL32.dll
 0002:000000d4       __imp__GetStartupInfoA@4   1006a0d4     kernel32:KERNEL32.dll
 0002:000000d8       __imp__DeleteCriticalSection@4 1006a0d8     kernel32:KERNEL32.dll
 0002:000000dc       __imp__GetConsoleCP@0      1006a0dc     kernel32:KERNEL32.dll
 0002:000000e0       __imp__GetConsoleMode@8    1006a0e0     kernel32:KERNEL32.dll
 0002:000000e4       __imp__FlushFileBuffers@4  1006a0e4     kernel32:KERNEL32.dll
 0002:000000e8       __imp__FatalAppExitA@8     1006a0e8     kernel32:KERNEL32.dll
 0002:000000ec       __imp__SetFilePointer@16   1006a0ec     kernel32:KERNEL32.dll
 0002:000000f0       __imp__CloseHandle@4       1006a0f0     kernel32:KERNEL32.dll
 0002:000000f4       __imp__FreeEnvironmentStringsA@4 1006a0f4     kernel32:KERNEL32.dll
 0002:000000f8       __imp__GetEnvironmentStrings@0 1006a0f8     kernel32:KERNEL32.dll
 0002:000000fc       __imp__FreeEnvironmentStringsW@4 1006a0fc     kernel32:KERNEL32.dll
 0002:00000100       __imp__GetEnvironmentStringsW@0 1006a100     kernel32:KERNEL32.dll
 0002:00000104       __imp__QueryPerformanceCounter@4 1006a104     kernel32:KERNEL32.dll
 0002:00000108       __imp__GetTickCount@0      1006a108     kernel32:KERNEL32.dll
 0002:0000010c       __imp__GetCurrentProcessId@0 1006a10c     kernel32:KERNEL32.dll
 0002:00000110       __imp__GetCurrentDirectoryA@8 1006a110     kernel32:KERNEL32.dll
 0002:00000114       __imp__SetCurrentDirectoryA@4 1006a114     kernel32:KERNEL32.dll
 0002:00000118       __imp__LCMapStringA@24     1006a118     kernel32:KERNEL32.dll
 0002:0000011c       __imp__LCMapStringW@24     1006a11c     kernel32:KERNEL32.dll
 0002:00000120       __imp__SetConsoleCtrlHandler@8 1006a120     kernel32:KERNEL32.dll
 0002:00000124       __imp__GetLocaleInfoA@16   1006a124     kernel32:KERNEL32.dll
 0002:00000128       __imp__GetLocaleInfoW@16   1006a128     kernel32:KERNEL32.dll
 0002:0000012c       __imp__GetUserDefaultLCID@0 1006a12c     kernel32:KERNEL32.dll
 0002:00000130       __imp__EnumSystemLocalesA@8 1006a130     kernel32:KERNEL32.dll
 0002:00000134       __imp__IsValidLocale@8     1006a134     kernel32:KERNEL32.dll
 0002:00000138       __imp__IsValidCodePage@4   1006a138     kernel32:KERNEL32.dll
 0002:0000013c       __imp__GetStringTypeA@20   1006a13c     kernel32:KERNEL32.dll
 0002:00000140       __imp__GetStringTypeW@16   1006a140     kernel32:KERNEL32.dll
 0002:00000144       __imp__InterlockedExchange@8 1006a144     kernel32:KERNEL32.dll
 0002:00000148       __imp__InitializeCriticalSection@4 1006a148     kernel32:KERNEL32.dll
 0002:0000014c       __imp__ReadFile@20         1006a14c     kernel32:KERNEL32.dll
 0002:00000150       __imp__WriteConsoleA@20    1006a150     kernel32:KERNEL32.dll
 0002:00000154       __imp__GetConsoleOutputCP@0 1006a154     kernel32:KERNEL32.dll
 0002:00000158       __imp__WriteConsoleW@20    1006a158     kernel32:KERNEL32.dll
 0002:0000015c       __imp__SetStdHandle@8      1006a15c     kernel32:KERNEL32.dll
 0002:00000160       __imp__SetEndOfFile@4      1006a160     kernel32:KERNEL32.dll
 0002:00000164       \177KERNEL32_NULL_THUNK_DATA 1006a164     kernel32:KERNEL32.dll
 0002:00000168       __imp__g_pMemAlloc         1006a168     tier0:tier0.dll
 0002:0000016c       __imp__GetCPUInformation   1006a16c     tier0:tier0.dll
 0002:00000170       __imp__Msg                 1006a170     tier0:tier0.dll
 0002:00000174       __imp__Warning             1006a174     tier0:tier0.dll
 0002:00000178       __imp__Error               1006a178     tier0:tier0.dll
 0002:0000017c       __imp__CommandLine_Tier0   1006a17c     tier0:tier0.dll
 0002:00000180       __imp__AssertValidStringPtr 1006a180     tier0:tier0.dll
 0002:00000184       __imp___AssertValidWritePtr 1006a184     tier0:tier0.dll
 0002:00000188       __imp___AssertValidReadPtr 1006a188     tier0:tier0.dll
 0002:0000018c       \177tier0_NULL_THUNK_DATA  1006a18c     tier0:tier0.dll
 0002:00000190       __imp__GetCVarIF           1006a190     vstdlib:vstdlib.dll
 0002:00000194       \177vstdlib_NULL_THUNK_DATA 1006a194     vstdlib:vstdlib.dll
 0002:00000198       ___xc_a                    1006a198     LIBCMT:crt0init.obj
 0002:00000268       ___xc_z                    1006a268     LIBCMT:crt0init.obj
 0002:0000026c       ___xi_a                    1006a26c     LIBCMT:crt0init.obj
 0002:0000028c       ___xi_z                    1006a28c     LIBCMT:crt0init.obj
 0002:00000290       ___xp_a                    1006a290     LIBCMT:crt0init.obj
 0002:0000029c       ___xp_z                    1006a29c     LIBCMT:crt0init.obj
 0002:000002a0       ___xt_a                    1006a2a0     LIBCMT:crt0init.obj
 0002:000002a8       ___xt_z                    1006a2a8     LIBCMT:crt0init.obj
 0002:000002cc       ?ProcessDetach@NativeDll@<CrtImplementationDetails>@@0IB 1006a2cc     memoverride.obj
 0002:000002d0       ?ProcessAttach@NativeDll@<CrtImplementationDetails>@@0IB 1006a2d0     memoverride.obj
 0002:000002d4       ?ThreadAttach@NativeDll@<CrtImplementationDetails>@@0IB 1006a2d4     memoverride.obj
 0002:000002d8       ?ThreadDetach@NativeDll@<CrtImplementationDetails>@@0IB 1006a2d8     memoverride.obj
 0002:000002dc       ?ProcessVerifier@NativeDll@<CrtImplementationDetails>@@0IB 1006a2dc     memoverride.obj
 0002:000002e0       ??_C@_0BD@NADBKHMH@C?9runtime?5internal?$AA@ 1006a2e0     memoverride.obj
 0002:000002f8       ??_7IConCommandBaseAccessor@@6B@ 1006a2f8     serverplugin_convar.obj
 0002:000002fc       ??_C@_0P@FDPCGJPG@VEngineCvar003?$AA@ 1006a2fc     serverplugin_convar.obj
 0002:00000310       ??_7CPluginConVarAccessor@@6B@ 1006a310     serverplugin_convar.obj
 0002:00000314       ??_C@_0P@GHFPNOJB@bad?5allocation?$AA@ 1006a314     API.obj
 0002:00000324       ?collate@?$_Locbase@H@std@@2HB 1006a324     API.obj
 0002:00000328       ?ctype@?$_Locbase@H@std@@2HB 1006a328     API.obj
 0002:0000032c       ?monetary@?$_Locbase@H@std@@2HB 1006a32c     API.obj
 0002:00000330       ?numeric@?$_Locbase@H@std@@2HB 1006a330     API.obj
 0002:00000334       ?time@?$_Locbase@H@std@@2HB 1006a334     API.obj
 0002:00000338       ?messages@?$_Locbase@H@std@@2HB 1006a338     API.obj
 0002:0000033c       ?all@?$_Locbase@H@std@@2HB 1006a33c     API.obj
 0002:00000340       ?none@?$_Locbase@H@std@@2HB 1006a340     API.obj
 0002:00000344       ?table_size@?$ctype@D@std@@2IB 1006a344     API.obj
 0002:00000348       ?skipws@?$_Iosb@H@std@@2W4_Fmtflags@12@B 1006a348     API.obj
 0002:0000034c       ?unitbuf@?$_Iosb@H@std@@2W4_Fmtflags@12@B 1006a34c     API.obj
 0002:00000350       ?uppercase@?$_Iosb@H@std@@2W4_Fmtflags@12@B 1006a350     API.obj
 0002:00000354       ?showbase@?$_Iosb@H@std@@2W4_Fmtflags@12@B 1006a354     API.obj
 0002:00000358       ?showpoint@?$_Iosb@H@std@@2W4_Fmtflags@12@B 1006a358     API.obj
 0002:0000035c       ?showpos@?$_Iosb@H@std@@2W4_Fmtflags@12@B 1006a35c     API.obj
 0002:00000360       ?left@?$_Iosb@H@std@@2W4_Fmtflags@12@B 1006a360     API.obj
 0002:00000364       ?right@?$_Iosb@H@std@@2W4_Fmtflags@12@B 1006a364     API.obj
 0002:00000368       ?internal@?$_Iosb@H@std@@2W4_Fmtflags@12@B 1006a368     API.obj
 0002:0000036c       ?dec@?$_Iosb@H@std@@2W4_Fmtflags@12@B 1006a36c     API.obj
 0002:00000370       ?oct@?$_Iosb@H@std@@2W4_Fmtflags@12@B 1006a370     API.obj
 0002:00000374       ?hex@?$_Iosb@H@std@@2W4_Fmtflags@12@B 1006a374     API.obj
 0002:00000378       ?scientific@?$_Iosb@H@std@@2W4_Fmtflags@12@B 1006a378     API.obj
 0002:0000037c       ?fixed@?$_Iosb@H@std@@2W4_Fmtflags@12@B 1006a37c     API.obj
 0002:00000380       ?boolalpha@?$_Iosb@H@std@@2W4_Fmtflags@12@B 1006a380     API.obj
 0002:00000384       ?_Stdio@?$_Iosb@H@std@@2W4_Fmtflags@12@B 1006a384     API.obj
 0002:00000388       ?adjustfield@?$_Iosb@H@std@@2W4_Fmtflags@12@B 1006a388     API.obj
 0002:0000038c       ?basefield@?$_Iosb@H@std@@2W4_Fmtflags@12@B 1006a38c     API.obj
 0002:00000390       ?floatfield@?$_Iosb@H@std@@2W4_Fmtflags@12@B 1006a390     API.obj
 0002:00000394       ?goodbit@?$_Iosb@H@std@@2W4_Iostate@12@B 1006a394     API.obj
 0002:00000398       ?eofbit@?$_Iosb@H@std@@2W4_Iostate@12@B 1006a398     API.obj
 0002:0000039c       ?failbit@?$_Iosb@H@std@@2W4_Iostate@12@B 1006a39c     API.obj
 0002:000003a0       ?badbit@?$_Iosb@H@std@@2W4_Iostate@12@B 1006a3a0     API.obj
 0002:000003a4       ?_Hardfail@?$_Iosb@H@std@@2W4_Iostate@12@B 1006a3a4     API.obj
 0002:000003a8       ?in@?$_Iosb@H@std@@2W4_Openmode@12@B 1006a3a8     API.obj
 0002:000003ac       ?out@?$_Iosb@H@std@@2W4_Openmode@12@B 1006a3ac     API.obj
 0002:000003b0       ?ate@?$_Iosb@H@std@@2W4_Openmode@12@B 1006a3b0     API.obj
 0002:000003b4       ?app@?$_Iosb@H@std@@2W4_Openmode@12@B 1006a3b4     API.obj
 0002:000003b8       ?trunc@?$_Iosb@H@std@@2W4_Openmode@12@B 1006a3b8     API.obj
 0002:000003bc       ?_Nocreate@?$_Iosb@H@std@@2W4_Openmode@12@B 1006a3bc     API.obj
 0002:000003c0       ?_Noreplace@?$_Iosb@H@std@@2W4_Openmode@12@B 1006a3c0     API.obj
 0002:000003c4       ?binary@?$_Iosb@H@std@@2W4_Openmode@12@B 1006a3c4     API.obj
 0002:000003c8       ?beg@?$_Iosb@H@std@@2W4_Seekdir@12@B 1006a3c8     API.obj
 0002:000003cc       ?cur@?$_Iosb@H@std@@2W4_Seekdir@12@B 1006a3cc     API.obj
 0002:000003d0       ?end@?$_Iosb@H@std@@2W4_Seekdir@12@B 1006a3d0     API.obj
 0002:000003e0       ??_7bad_alloc@std@@6B@     1006a3e0     API.obj
 0002:000003ec       ??_7facet@locale@std@@6B@  1006a3ec     API.obj
 0002:000003f4       ??_7ctype_base@std@@6B@    1006a3f4     API.obj
 0002:000003fc       ??_7ios_base@std@@6B@      1006a3fc     API.obj
 0002:00000404       ??_7?$basic_ostream@DU?$char_traits@D@std@@@std@@6B@ 1006a404     API.obj
 0002:0000040c       ??_7?$basic_ios@DU?$char_traits@D@std@@@std@@6B@ 1006a40c     API.obj
 0002:00000414       ??_7?$basic_streambuf@DU?$char_traits@D@std@@@std@@6B@ 1006a414     API.obj
 0002:00000450       ??_7?$basic_stringbuf@DU?$char_traits@D@std@@V?$allocator@D@2@@std@@6B@ 1006a450     API.obj
 0002:0000048c       ??_7?$basic_ostringstream@DU?$char_traits@D@std@@V?$allocator@D@2@@std@@6B@ 1006a48c     API.obj
 0002:00000494       ??_7runtime_error@std@@6B@ 1006a494     API.obj
 0002:000004a0       ??_7failure@ios_base@std@@6B@ 1006a4a0     API.obj
 0002:000004a8       ??_C@_0BA@ELKIONDK@bad?5locale?5name?$AA@ 1006a4a8     API.obj
 0002:000004bc       ??_7?$ctype@D@std@@6B@     1006a4bc     API.obj
 0002:000004e8       ??_C@_01GFHCPBMG@C?$AA@    1006a4e8     API.obj
 0002:000004ec       ??_C@_0BF@OOHOMBOF@ios_base?3?3eofbit?5set?$AA@ 1006a4ec     API.obj
 0002:00000504       ??_C@_0BG@FMKFHCIL@ios_base?3?3failbit?5set?$AA@ 1006a504     API.obj
 0002:0000051c       ??_C@_0BF@PHHKMMFD@ios_base?3?3badbit?5set?$AA@ 1006a51c     API.obj
 0002:00000538       ??_7CSSMatchApiException@@6B@ 1006a538     API.obj
 0002:00000540       ??_C@_01EEMJAFIK@?6?$AA@   1006a540     API.obj
 0002:00000544       ??_C@_05MELDNFB@exec?5?$AA@ 1006a544     API.obj
 0002:0000054c       ??_C@_0DL@BHHFOLFK@Impossible?5de?5trouver?5l?8IPlayerI@ 1006a54c     API.obj
 0002:00000588       ??_C@_0DF@JIOKNDH@Impossible?5de?5trouver?5l?8IPlayerI@ 1006a588     API.obj
 0002:000005c0       ??_C@_0DI@NEAMKBNF@Impossible?5de?5trouver?5l?8entit?C?$KJ?5@ 1006a5c0     API.obj
 0002:000005f8       ??_C@_0DM@LCMGPMFB@Impossible?5de?5trouver?5l?8IServerE@ 1006a5f8     API.obj
 0002:00000634       ??_C@_0CL@OFPEGHHN@L?8IServerEntity?5de?5cette?5entit?C?$KJ@ 1006a634     API.obj
 0002:00000660       ??_C@_0DM@IHBJPBNL@Impossible?5de?5trouver?5le?5CBasePl@ 1006a660     API.obj
 0002:0000069c       ??_C@_0DF@MFKMNH@Impossible?5de?5trouver?5le?5CBasePl@ 1006a69c     API.obj
 0002:000006d4       ??_C@_0DH@DEFHCIKA@Impossible?5de?5trouver?5le?5pseudo?5@ 1006a6d4     API.obj
 0002:0000070c       ??_C@_0DF@HICBCGPA@Impossible?5de?5trouver?5le?5pseudo?5@ 1006a70c     API.obj
 0002:00000744       ??_C@_0DB@ONFNAKPM@Impossible?5de?5trouver?5le?5pseudo?5@ 1006a744     API.obj
 0002:00000778       ??_C@_0DH@MGEPPLJP@Impossible?5de?5trouver?5la?5steamID@ 1006a778     API.obj
 0002:000007b0       ??_C@_0DB@GMCNDHNI@Impossible?5de?5trouver?5la?5steamID@ 1006a7b0     API.obj
 0002:000007e4       ??_C@_02CBLDBPFN@?1?1?$AA@ 1006a7e4     API.obj
 0002:000007e8       ??_C@_01LIIJDEN@?$AN?$AA@  1006a7e8     API.obj
 0002:000007ec       ??_C@_0M@GAHLMABB@CSSMatch?5?3?5?$AA@ 1006a7ec     API.obj
 0002:000007f8       ??_C@_08EPJLHIJG@bad?5cast?$AA@ 1006a7f8     API.obj
 0002:00000804       ??_C@_04OBIOBPOF@?$CC?5?$CB?6?$AA@ 1006a804     API.obj
 0002:0000080c       ??_C@_0CO@NFFGBAPL@CSSMatch?5?3?5Impossible?5d?8obtenir?5@ 1006a80c     API.obj
 0002:00000840       ??_7?$num_put@DV?$ostreambuf_iterator@DU?$char_traits@D@std@@@std@@@std@@6B@ 1006a840     API.obj
 0002:00000864       ??_C@_05LAPONLG@false?$AA@ 1006a864     API.obj
 0002:0000086c       ??_C@_04LOAJBDKD@true?$AA@ 1006a86c     API.obj
 0002:00000878       ??_7?$numpunct@D@std@@6B@  1006a878     API.obj
 0002:00000890       ??_C@_0DI@HIHHNMMO@CSSMatch?5?3?5Impossible?5d?8acceder?5@ 1006a890     API.obj
 0002:000008c8       ??_C@_0DE@JMBMPDIG@CSSMatch?5?3?5Les?5variables?5globale@ 1006a8c8     API.obj
 0002:000008fc       ??_C@_0BB@PHKPBFEJ@ServerGameDLL006?$AA@ 1006a8fc     API.obj
 0002:00000910       ??_C@_0BI@MINMEAOF@ISERVERPLUGINHELPERS001?$AA@ 1006a910     API.obj
 0002:00000928       ??_C@_0P@PAEMGLHD@VFileSystem017?$AA@ 1006a928     API.obj
 0002:00000938       ??_C@_0BF@KOIHLKCK@GAMEEVENTSMANAGER002?$AA@ 1006a938     API.obj
 0002:00000950       ??_C@_0BB@EPGHCKHN@VEngineServer021?$AA@ 1006a950     API.obj
 0002:00000964       ??_C@_0BF@KHEIIEDP@PlayerInfoManager002?$AA@ 1006a964     API.obj
 0002:0000097c       ??_C@_0DF@KPDPKCFC@Impossible?5de?5trouver?5l?8entit?C?$KJ?5@ 1006a97c     API.obj
 0002:000009b4       ??_8?$basic_ostream@DU?$char_traits@D@std@@@std@@7B@ 1006a9b4     API.obj
 0002:000009bc       ??_C@_01KGKMHCOC@e?$AA@    1006a9bc     API.obj
 0002:000009c0       ??_C@_01DDCIFGEA@E?$AA@    1006a9c0     API.obj
 0002:000009c4       ??_8?$basic_ostringstream@DU?$char_traits@D@std@@V?$allocator@D@2@@std@@7B@ 1006a9c4     API.obj
 0002:000009cc       ??_C@_02EAOCLKAK@ld?$AA@   1006a9cc     API.obj
 0002:000009d0       ??_C@_02BDDLJJBK@lu?$AA@   1006a9d0     API.obj
 0002:000009d4       ??_C@_02HIKPPMOK@Ld?$AA@   1006a9d4     API.obj
 0002:000009d8       ??_C@_02CLHGNPPK@Lu?$AA@   1006a9d8     API.obj
 0002:000009e0       __real@38aa95a5b7f87a0f    1006a9e0     API.obj
 0002:000009e8       __real@4202a05f20000000    1006a9e8     API.obj
 0002:000009f0       __real@4733426172c74d82    1006a9f0     API.obj
 0002:000009f8       __real@0000000000000000    1006a9f8     API.obj
 0002:00000a00       ??_C@_02BBAHNLBA@?$CFp?$AA@ 1006aa00     API.obj
 0002:00000a04       ??_C@_07PFIEFBDC@kickid?5?$AA@ 1006aa04     API.obj
 0002:00000a0c       ??_C@_01CLKCMJKC@?5?$AA@   1006aa0c     API.obj
 0002:00000a10       ??_C@_08EPBBFOID@writeid?6?$AA@ 1006aa10     API.obj
 0002:00000a1c       ??_C@_06HGEJHEJ@banid?5?$AA@ 1006aa1c     API.obj
 0002:00000a24       ??_C@_08CKFLMLKG@Swap?5Bot?$AA@ 1006aa24     API.obj
 0002:00000a30       ??_C@_0BE@MMLOFJLJ@CSSMatch?5?3?5Spec?5Bot?$AA@ 1006aa30     API.obj
 0002:00000a44       ??_C@_02GFKOMOKH@?5?$CI?$AA@ 1006aa44     API.obj
 0002:00000a48       ??_C@_04NHBEFOLB@?0?5l?4?$AA@ 1006aa48     API.obj
 0002:00000a50       ??_C@_01PKGAHCOL@?$CJ?$AA@ 1006aa50     API.obj
 0002:00000a54       ??_C@_0O@FMCDDFBH@?4?2API?2API?4cpp?$AA@ 1006aa54     API.obj
 0002:00000a64       ??_C@_0DJ@GAFGLIHN@Impossible?5de?5trouver?5le?5BaseEnt@ 1006aa64     API.obj
 0002:00000aa0       ??_C@_0CH@BAFMAPEH@Le?5CBaseEntity?5de?5cette?5entite?5e@ 1006aaa0     API.obj
 0002:00000ac8       ??_C@_0EI@FEBKNIAH@Impossible?5de?5trouver?5le?5CBaseCo@ 1006aac8     API.obj
 0002:00000b10       ??_C@_0DN@HMIADNKM@Impossible?5de?5trouver?5le?5CBaseCo@ 1006ab10     API.obj
 0002:00000b50       ??_C@_0EO@OBPAIPHM@Impossible?5de?5trouver?5le?5CBaseCo@ 1006ab50     API.obj
 0002:00000ba0       ??_C@_0DL@GOLMDOEB@Impossible?5de?5trouver?5le?5CBaseCo@ 1006aba0     API.obj
 0002:00000bdc       ??_C@_05HCPOCGIM@kill?6?$AA@ 1006abdc     API.obj
 0002:00000bf0       ??_7IRecipientFilter@@6B@  1006abf0     MRecipientFilter.obj
 0002:00000c08       ??_7MRecipientFilter@@6B@  1006ac08     MRecipientFilter.obj
 0002:00000c24       ??_C@_00CNPNBAHC@?$AA@     1006ac24     Match.obj
 0002:00000c28       ??_C@_0BG@FHJDLLKG@FCVAR_NEVER_AS_STRING?$AA@ 1006ac28     Match.obj
 0002:00000c44       ??_7logic_error@std@@6B@   1006ac44     Match.obj
 0002:00000c50       ??_7length_error@std@@6B@  1006ac50     Match.obj
 0002:00000c58       ??_C@_0BD@OLBABOEK@vector?$DMT?$DO?5too?5long?$AA@ 1006ac58     Match.obj
 0002:00000c70       ??_7CSSMatchMatchException@@6B@ 1006ac70     Match.obj
 0002:00000c78       __real@3fc00000            1006ac78     Match.obj
 0002:00000c7c       ??_C@_0BF@LIPJAMEA@Le?5AllTalk?5est?5actif?$AA@ 1006ac7c     Match.obj
 0002:00000c94       ??_C@_0BE@BCJPDPAF@Sv_Cheats?5est?5actif?$AA@ 1006ac94     Match.obj
 0002:00000ca8       ??_C@_0CE@CBIKLELF@getTeam?$CI?$CJ?5sur?5une?5team?5spectateu@ 1006aca8     Match.obj
 0002:00000cd0       ??_C@_0EG@DGBPELAG@Changez?5de?5map?5pour?5restaurer?5au@ 1006acd0     Match.obj
 0002:00000d18       ??_C@_02LEGMHFOO@?5?$CB?$AA@ 1006ad18     Match.obj
 0002:00000d1c       ??_C@_0CC@PMGNOHMJ@Impossible?5de?5trouver?5le?5fichier@ 1006ad1c     Match.obj
 0002:00000d40       ??_C@_03FIBGOAPP@MOD?$AA@  1006ad40     Match.obj
 0002:00000d44       ??_C@_04KGIGEIGI@cfg?1?$AA@ 1006ad44     Match.obj
 0002:00000d4c       ??_C@_0BC@IJJJIEBI@mp_restartgame?52?6?$AA@ 1006ad4c     Match.obj
 0002:00000d60       ??_C@_0BL@FIBDFEEL@3?5restarts?5puis?5CutRound?5?$CB?$AA@ 1006ad60     Match.obj
 0002:00000d7c       ??_C@_0CB@NACFNDMM@Impossible?5de?5trouver?5hostname?5?$CB@ 1006ad7c     Match.obj
 0002:00000da0       ??_C@_02DKCKIIND@?$CFs?$AA@ 1006ada0     Match.obj
 0002:00000da4       ??_C@_0CJ@NPMEABK@Le?5round?5a?5?C?$KJt?C?$KJ?5relanc?C?$KJ?5par?5un@ 1006ada4     Match.obj
 0002:00000dd0       ??_C@_0CA@JNEMJGJF@Le?5round?5a?5?C?$KJt?C?$KJ?5relanc?C?$KJ?5par?5?$AD?$AA@ 1006add0     Match.obj
 0002:00000df0       ??_C@_0BC@ILNPDKEB@mp_restartgame?51?6?$AA@ 1006adf0     Match.obj
 0002:00000e04       ??_C@_0CK@IBLMFMCP@Le?5manche?5a?5?C?$KJt?C?$KJ?5relanc?C?$KJ?5par?5u@ 1006ae04     Match.obj
 0002:00000e30       ??_C@_0CB@DNJOIBKI@Le?5manche?5a?5?C?$KJt?C?$KJ?5relanc?C?$KJ?5par?5?$AD@ 1006ae30     Match.obj
 0002:00000e54       ??_C@_0DO@EFDAAIAJ@Toutes?5les?5teams?5ont?5?C?$KJt?C?$KJ?5d?C?$KJcl@ 1006ae54     Match.obj
 0002:00000e94       ??_C@_0DF@IHLJECEA@Toutes?5les?5teams?5ont?5?C?$KJt?C?$KJ?5d?C?$KJcl@ 1006ae94     Match.obj
 0002:00000ecc       ??_C@_0DD@GNNAKMAC@CSSMatch?5?3?5Le?5Strats?5Time?5n?8a?5pa@ 1006aecc     Match.obj
 0002:00000f00       ??_C@_0EF@CAOCOABO@Impossible?5de?5forcer?5le?5?$CBgo?0?5le?5@ 1006af00     Match.obj
 0002:00000f48       ??_C@_06DKGBCONP@?$AB?5VS?$AD?5?$AA@ 1006af48     Match.obj
 0002:00000f50       ??_C@_01JFALLOMD@?$AD?$AA@ 1006af50     Match.obj
 0002:00000f54       __real@40000000            1006af54     Match.obj
 0002:00000f58       ??_C@_0DC@JKFINPFJ@?5secondes?5de?5temps?5mort?0?5prenez?5@ 1006af58     Match.obj
 0002:00000f8c       ??_C@_0BI@PGPKFJDI@Team?5gagnante?5?3?$AD?5aucune?$AA@ 1006af8c     Match.obj
 0002:00000fa4       ??_C@_0BC@BFBAIIPD@Team?5gagnante?5?3?$AD?5?$AA@ 1006afa4     Match.obj
 0002:00000fb8       ??_C@_0BK@JFBKGDPM@Fin?5du?5match?5?$CB?6?6Scores?5?3?6?$AA@ 1006afb8     Match.obj
 0002:00000fd4       ??_C@_03MCPBMLDJ@?5?3?5?$AA@ 1006afd4     Match.obj
 0002:00000fd8       ??_C@_0BA@PBAJDPIG@?$AEFin?5du?5match?5?$CB?$AA@ 1006afd8     Match.obj
 0002:00000fe8       ??_C@_09OINBCAI@?$AEScores?5?3?$AA@ 1006afe8     Match.obj
 0002:00000ff4       ??_C@_04PDMMHBLG@?5?3?$AB?5?$AA@ 1006aff4     Match.obj
 0002:00000ffc       ??_C@_0BP@KLDDJGFA@3?5restarts?5puis?5GO?5?$CB?5GO?5?$CB?5GO?5?$CB?$AA@ 1006affc     Match.obj
 0002:0000101c       ??_C@_01IDAFKMJL@_?$AA@    1006b01c     Match.obj
 0002:00001020       ??_C@_07JNDDCGKG@manche_?$AA@ 1006b020     Match.obj
 0002:00001028       ??_C@_0P@LMGLIBLN@?$CFY?9?$CFm?9?$CFd_?$CFHh?$CFM?$AA@ 1006b028     Match.obj
 0002:00001038       ??_C@_0BJ@EANGOOFP@?$AELancement?5de?5la?5manche?5?$AA@ 1006b038     Match.obj
 0002:00001054       ??_C@_03NIBMKKKC@?5?1?5?$AA@ 1006b054     Match.obj
 0002:00001058       ??_C@_0BF@HCCABJPL@Fin?5du?5Strats?5Time?5?$CB?$AA@ 1006b058     Match.obj
 0002:00001070       __real@40400000            1006b070     Match.obj
 0002:00001078       ??_C@_0EG@CDOJFIME@Erreur?5?3?5le?5fichier?5de?5configura@ 1006b078     Match.obj
 0002:000010c0       ??_C@_0CC@OLHEFIFH@Impossible?5de?5trouver?5sv_cheats?5@ 1006b0c0     Match.obj
 0002:000010e4       ??_C@_0CD@PGLHKKOP@Impossible?5de?5trouver?5sv_alltalk@ 1006b0e4     Match.obj
 0002:00001108       __real@3f800000            1006b108     Match.obj
 0002:0000110c       ??_C@_0BH@MLGOBCBG@Un?5match?5est?5lanc?C?$KJ?4?4?4?$AA@ 1006b10c     Match.obj
 0002:00001124       ??_C@_04HNIEJLJJ@?$AB?4?4?4?$AA@ 1006b124     Match.obj
 0002:0000112c       ??_C@_0BK@KEBLEDPD@Un?5match?5est?5lanc?C?$KJ?5par?5?$AD?$AA@ 1006b12c     Match.obj
 0002:00001148       __real@40a00000            1006b148     Match.obj
 0002:0000114c       ??_C@_01BJJEKLCA@?$CC?$AA@ 1006b14c     Match.obj
 0002:00001150       ??_C@_0BM@HFEDKEKF@Mot?5de?5passe?5du?5serveur?5?3?5?$CC?$AA@ 1006b150     Match.obj
 0002:0000116c       ??_C@_0CE@KFDIMCFG@Impossible?5de?5trouver?5sv_passwor@ 1006b16c     Match.obj
 0002:00001190       ??_C@_0O@OMHPHGIK@plugin_print?6?$AA@ 1006b190     Match.obj
 0002:000011a0       ??_C@_0DJ@BBOHAGMA@CSSMatch?5?3?5liste?5des?5plugins?5ins@ 1006b1a0     Match.obj
 0002:000011dc       ??_C@_05PEBMLDPO@?$CFHh?$CFM?$AA@ 1006b1dc     Match.obj
 0002:000011e4       ??_C@_04GLBFEIDA@Les?5?$AA@ 1006b1e4     Match.obj
 0002:000011ec       ??_C@_06IFLDEPFG@?5ont?5?$AD?$AA@ 1006b1ec     Match.obj
 0002:000011f4       ??_C@_0CC@NGBMNBKL@?5secondes?$AB?5pour?5choisir?5leur?5cam@ 1006b1f4     Match.obj
 0002:00001218       ??_C@_03NCNFBEIF@?$AB?5?$CB?$AA@ 1006b218     Match.obj
 0002:0000121c       ??_C@_0DE@LKDFOAMI@Le?5round?5au?5couteau?5a?5?C?$KJt?C?$KJ?5remp@ 1006b21c     Match.obj
 0002:00001250       ??_C@_0M@JBINIDNJ@chooseteam?6?$AA@ 1006b250     Match.obj
 0002:00001260       __real@4014000000000000    1006b260     Match.obj
 0002:00001268       __real@4000000000000000    1006b268     Match.obj
 0002:00001270       ??_C@_0BC@HIIPFCKK@Fin?5de?5la?5manche?5?$AA@ 1006b270     Match.obj
 0002:00001284       ??_C@_0O@FFMLAMEO@?5?$CB?6?6Scores?5?3?6?$AA@ 1006b284     Match.obj
 0002:00001294       ??_C@_0BD@CMPEFJGK@?$AEFin?5de?5la?5manche?5?$AA@ 1006b294     Match.obj
 0002:000012a8       ??_C@_0DI@GNIHFMF@CSSMatch?5?3?5liste?5des?5plugins?5ins@ 1006b2a8     Match.obj
 0002:000012ec       ??_7CSSMatchConfigurationException@@6B@ 1006b2ec     Configuration.obj
 0002:000012f4       ??_C@_0DD@PELMADOM@Impossible?5de?5trouver?5le?5fichier@ 1006b2f4     Configuration.obj
 0002:00001328       ??_C@_0BJ@PIFMDODK@cssmatch?1configurations?1?$AA@ 1006b328     Configuration.obj
 0002:00001344       ??_C@_04PLOFMOEN@?$CC?4?4?4?$AA@ 1006b344     Configuration.obj
 0002:0000134c       ??_C@_0CI@MCDPOJEA@Execution?5du?5fichier?5de?5configur@ 1006b34c     Configuration.obj
 0002:00001374       ??_C@_0BN@IPECALNP@cfg?1cssmatch?1configurations?1?$AA@ 1006b374     Configuration.obj
 0002:000013a0       ??_7IGameEventListener2@@6B@ 1006b3a0     CSSMatch.obj
 0002:000013ac       ??_7IServerPluginCallbacks@@6B@ 1006b3ac     CSSMatch.obj
 0002:000013f0       ??_C@_0EI@OJAJPOIG@CSSMatch?5v1?42?49?0?5by?5Nicolous?0?5ht@ 1006b3f0     CSSMatch.obj
 0002:0000143c       ??_7EventListener@@6B@     1006b43c     CSSMatch.obj
 0002:00001448       ??_C@_0FF@HICINKII@CSSMatch?5?3?5Attention?0?5le?5fichier@ 1006b448     CSSMatch.obj
 0002:000014a0       ??_C@_0CD@IDLAGGKI@cstrike?1cfg?1cssmatch?1adminlist?4t@ 1006b4a0     CSSMatch.obj
 0002:000014c8       ??_C@_0GA@MIOFMALG@Ce?5serveur?5h?C?$KJberge?5actuellement@ 1006b4c8     CSSMatch.obj
 0002:00001528       ??_C@_0BG@BECODCNP@?$AB?5rejoint?5la?5partie?5?$CB?$AA@ 1006b528     CSSMatch.obj
 0002:00001540       ??_C@_0O@HKNBCEDP@?$AB?5sont?5pr?C?$KKts?$AA@ 1006b540     CSSMatch.obj
 0002:00001550       ??_C@_05NJPHGCH@Les?5?$AD?$AA@ 1006b550     CSSMatch.obj
 0002:00001558       ??_C@_0CB@DKJOJHLG@CSSMatch?5?3?5Chargement?5complet?5?$CB?6@ 1006b558     CSSMatch.obj
 0002:0000157c       ??_C@_0M@JPGAEHPN@CBasePlayer?$AA@ 1006b57c     CSSMatch.obj
 0002:00001588       ??_C@_0M@GDCAJHLF@m_lifeState?$AA@ 1006b588     CSSMatch.obj
 0002:00001594       ??_C@_09OINNGFAP@CCSPlayer?$AA@ 1006b594     CSSMatch.obj
 0002:000015a0       ??_C@_0L@CIHHHMAD@m_iAccount?$AA@ 1006b5a0     CSSMatch.obj
 0002:000015ac       __real@400ccccd            1006b5ac     CSSMatch.obj
 0002:000015b0       __real@00000000            1006b5b0     CSSMatch.obj
 0002:000015b4       ??_C@_0BK@FKFMHAAL@CSSMatch?5?3?5Chargement?4?4?4?6?$AA@ 1006b5b4     CSSMatch.obj
 0002:000015d0       ??_C@_0CH@IDFBOBKD@CSSMatch?5?3?5Destruction?5du?5single@ 1006b5d0     CSSMatch.obj
 0002:000015fc       ??_7CSSMatch@@6B@          1006b5fc     CSSMatch.obj
 0002:00001640       ??_C@_0CK@FMCNLBPO@CSSMatch?5?3?5Instanciation?5du?5sing@ 1006b640     CSSMatch.obj
 0002:0000166c       ??_C@_0CD@JIJJLDKP@CSSMatch?5?3?5Dechargement?5complet?5@ 1006b66c     CSSMatch.obj
 0002:00001690       ??_C@_0BM@DLAOPAGE@CSSMatch?5?3?5Dechargement?4?4?4?6?$AA@ 1006b690     CSSMatch.obj
 0002:000016b0       ??_C@_0GE@DONCJP@Une?5erreur?5est?5survenue?0?5veuille@ 1006b6b0     CSSMatch.obj
 0002:00001714       ??_C@_0L@FLIGLFJH@cssm_rates?$AA@ 1006b714     CSSMatch.obj
 0002:00001720       ??_C@_0BE@FHFINFDF@?5n?8est?5pas?5arbitre?6?$AA@ 1006b720     CSSMatch.obj
 0002:00001734       ??_C@_0BH@MAAPCCHC@CSSMatch?5?3?5La?5steamID?5?$AA@ 1006b734     CSSMatch.obj
 0002:0000174c       ??_C@_0BG@EGDMELJB@Tu?5n?8es?5pas?5arbitre?5?$CB?$AA@ 1006b74c     CSSMatch.obj
 0002:00001764       ??_C@_0CF@JHMAOPBP@playgamesound?5UI?1buttonrollover?4@ 1006b764     CSSMatch.obj
 0002:0000178c       ??_C@_08JAJHOLJB@cssmatch?$AA@ 1006b78c     CSSMatch.obj
 0002:00001798       ??_C@_0EF@KFAJDMDO@Seuls?5?$AECSSMatch?$AB?5et?5?$AEles?5arbitre@ 1006b798     CSSMatch.obj
 0002:000017e0       ??_C@_08GMEMMAKD@jointeam?$AA@ 1006b7e0     CSSMatch.obj
 0002:000017ec       ??_C@_0L@JMKGJPHD@menuselect?$AA@ 1006b7ec     CSSMatch.obj
 0002:000017f8       ??_C@_0BI@KMBEIHPJ@?4?2CSSMatch?2CSSMatch?4cpp?$AA@ 1006b7f8     CSSMatch.obj
 0002:00001810       ??_C@_0BJ@FJANGHIP@?$CC?$DO?5ex?C?$KJcute?5la?5commande?5?$AA@ 1006b810     CSSMatch.obj
 0002:0000182c       ??_C@_0N@EMFAMGDI@?$DO?5?$DMsteamID?$DN?$CC?$AA@ 1006b82c     CSSMatch.obj
 0002:0000183c       ??_C@_05EOFIJNCG@?5?$DMid?$DN?$AA@ 1006b83c     CSSMatch.obj
 0002:00001844       ??_C@_0BK@JIPONJEI@ISERVERPLUGINCALLBACKS001?$AA@ 1006b844     CSSMatch.obj
 0002:00001868       ??_C@_05JJJPMNEL@1?42?49?$AA@ 1006b868     ConVars.obj
 0002:00001870       ??_C@_09GLCCCIOF@tv_enable?$AA@ 1006b870     ConVars.obj
 0002:0000187c       ??_C@_0M@ELPBDANP@sv_password?$AA@ 1006b87c     ConVars.obj
 0002:00001888       ??_C@_08EHKIGBEA@hostname?$AA@ 1006b888     ConVars.obj
 0002:00001894       ??_C@_0L@MCGJBOEN@sv_alltalk?$AA@ 1006b894     ConVars.obj
 0002:000018a0       ??_C@_09NFOPKLIK@sv_cheats?$AA@ 1006b8a0     ConVars.obj
 0002:000018ac       ??_C@_0BM@OBEEPLPB@sv_alltalk?5est?5inaccessible?$AA@ 1006b8ac     ConVars.obj
 0002:000018c8       ??_C@_0O@OHBJDAGB@sv_alltalk?51?6?$AA@ 1006b8c8     ConVars.obj
 0002:000018d8       ??_C@_0O@OGNLFKFG@sv_alltalk?50?6?$AA@ 1006b8d8     ConVars.obj
 0002:000018e8       ??_C@_0BB@CLPBHGPD@cssmatch_version?$AA@ 1006b8e8     ConVars.obj
 0002:000018fc       ??_C@_0BN@ILKDLBBH@CSSMatch?5?3?5Version?5du?5plugin?$AA@ 1006b8fc     ConVars.obj
 0002:0000191c       ??_C@_0BC@GPPHNIJP@cssmatch_advanced?$AA@ 1006b91c     ConVars.obj
 0002:00001930       ??_C@_01GBGANLPD@0?$AA@    1006b930     ConVars.obj
 0002:00001938       ??_C@_0HG@CMLKBNE@CSSMatch?5?3?5?$CC1?$CC?5?$DN?5Les?5menus?5sont?5@ 1006b938     ConVars.obj
 0002:000019b0       ??_C@_0BC@KHIKGOKC@cssmatch_cutround?$AA@ 1006b9b0     ConVars.obj
 0002:000019c4       ??_C@_01HIHLOKLC@1?$AA@    1006b9c4     ConVars.obj
 0002:000019c8       ??_C@_0DG@DGLKLGO@CSSMatch?5?3?5?$CC1?$CC?5?$DN?5Faire?5un?5round?5@ 1006b9c8     ConVars.obj
 0002:00001a00       ??_C@_0BM@CGPFHHNA@cssmatch_cutround_allows_c4?$AA@ 1006ba00     ConVars.obj
 0002:00001a20       ??_C@_0FA@PMKGDGHG@CSSMatch?5?3?5?$CC1?$CC?5?$DN?5Autoriser?5la?5po@ 1006ba20     ConVars.obj
 0002:00001a70       ??_C@_0BG@BBIBICAD@cssmatch_end_cutround?$AA@ 1006ba70     ConVars.obj
 0002:00001a88       ??_C@_02PIBHCBOA@20?$AA@   1006ba88     ConVars.obj
 0002:00001a90       ??_C@_0EP@BJHBKIOA@CSSMatch?5?3?5Dur?ie?5?$CIen?5secondes?$CJ?5e@ 1006ba90     ConVars.obj
 0002:00001ae0       ??_C@_0BA@EEAOLHMM@cssmatch_rounds?$AA@ 1006bae0     ConVars.obj
 0002:00001af0       ??_C@_02MIGHPNDL@12?$AA@   1006baf0     ConVars.obj
 0002:00001af4       ??_C@_0CL@KCBFMALN@CSSMatch?5?3?5Nombre?5de?5rounds?5par?5@ 1006baf4     ConVars.obj
 0002:00001b20       ??_C@_0BB@KANMKEFA@cssmatch_manches?$AA@ 1006bb20     ConVars.obj
 0002:00001b34       ??_C@_01FDFGLJHB@2?$AA@    1006bb34     ConVars.obj
 0002:00001b38       ??_C@_0CH@HCEBMNOE@CSSMatch?5?3?5Nombre?5de?5manches?5par@ 1006bb38     ConVars.obj
 0002:00001b60       ??_C@_0BE@DDCNMHD@cssmatch_end_manche?$AA@ 1006bb60     ConVars.obj
 0002:00001b74       ??_C@_02PKFBJPLJ@10?$AA@   1006bb74     ConVars.obj
 0002:00001b78       ??_C@_0HI@DDOHGCKA@CSSMatch?5?3?5Dur?ie?5?$CIen?5secondes?$CJ?5e@ 1006bb78     ConVars.obj
 0002:00001bf0       ??_C@_0BC@LMOKOGGP@cssmatch_sourcetv?$AA@ 1006bbf0     ConVars.obj
 0002:00001c08       ??_C@_0FE@JIPLOCNM@CSSMatch?5?3?5?$CC1?$CC?5?$DN?5Activer?5l?8enreg@ 1006bc08     ConVars.obj
 0002:00001c5c       ??_C@_0BH@HNDPKBBC@cssmatch_sourcetv_path?$AA@ 1006bc5c     ConVars.obj
 0002:00001c74       ??_C@_0BG@MAHHNKKF@cfg?1cssmatch?1sourcetv?$AA@ 1006bc74     ConVars.obj
 0002:00001c8c       ??_C@_0DP@NGAIAHO@CSSMatch?5?3?5Dossier?5cible?5des?5enr@ 1006bc8c     ConVars.obj
 0002:00001ccc       ??_C@_0BF@IKEGLNKE@cssmatch_strats_time?$AA@ 1006bccc     ConVars.obj
 0002:00001ce4       ??_C@_01BMBHCPLG@5?$AA@    1006bce4     ConVars.obj
 0002:00001ce8       ??_C@_0EB@BJNEAPID@CSSMatch?5?3?5Dur?ie?5maximale?5?$CIen?5mi@ 1006bce8     ConVars.obj
 0002:00001d2c       ??_C@_0BC@CCBMGGGP@cssmatch_hostname?$AA@ 1006bd2c     ConVars.obj
 0002:00001d40       ??_C@_0BE@JOBNBDID@CSSMatch?5?3?5?$CFs?5VS?5?$CFs?$AA@ 1006bd40     ConVars.obj
 0002:00001d58       ??_C@_0FC@DCOHHJFM@CSSMatch?5?3?5Nom?5du?5serveur?5pendan@ 1006bd58     ConVars.obj
 0002:00001dac       ??_C@_0BC@LOMFPDEA@cssmatch_password?$AA@ 1006bdac     ConVars.obj
 0002:00001dc0       ??_C@_05OFDAOLKE@inwar?$AA@ 1006bdc0     ConVars.obj
 0002:00001dc8       ??_C@_0DE@HHOCHFEP@CSSMatch?5?3?5Mot?5de?5passe?5du?5serve@ 1006bdc8     ConVars.obj
 0002:00001dfc       ??_C@_0BI@BOMJENPK@cssmatch_default_config?$AA@ 1006bdfc     ConVars.obj
 0002:00001e14       ??_C@_0L@NOPMIKGD@server?4cfg?$AA@ 1006be14     ConVars.obj
 0002:00001e20       ??_C@_0EH@LKCCECJE@CSSMatch?5?3?5Fichier?5de?5remise?5par@ 1006be20     ConVars.obj
 0002:00001e74       ??_7CSSMatchTVException@@6B@ 1006be74     EnregistrementTV.obj
 0002:00001e7c       ??_C@_0P@IDMFDMJL@tv_stoprecord?6?$AA@ 1006be7c     EnregistrementTV.obj
 0002:00001e8c       ??_C@_0BB@LGBPLGGI@tv_autorecord?50?6?$AA@ 1006be8c     EnregistrementTV.obj
 0002:00001ea0       ??_C@_0L@DFKKFDJE@tv_record?5?$AA@ 1006bea0     EnregistrementTV.obj
 0002:00001eac       ??_C@_0DH@HPEKAINO@Impossible?5de?5lancer?5un?5engistre@ 1006beac     EnregistrementTV.obj
 0002:00001ee4       ??_C@_01OHGJGJJP@?$FL?$AA@ 1006bee4     EnregistrementTV.obj
 0002:00001ee8       ??_C@_01LBDDMOBJ@?$FN?$AA@ 1006bee8     EnregistrementTV.obj
 0002:00001eec       ??_C@_04GNCHOFPC@?4dem?$AA@ 1006beec     EnregistrementTV.obj
 0002:00001ef4       ??_C@_01KMDKNFGN@?1?$AA@   1006bef4     EnregistrementTV.obj
 0002:00001ef8       ??_C@_0FF@MPEKGBOO@Impossible?5de?5lancer?5l?8enregistr@ 1006bef8     EnregistrementTV.obj
 0002:00001f50       ??_C@_0EH@IGGGMOJM@Impossible?5de?5lancer?5l?8enregistr@ 1006bf50     EnregistrementTV.obj
 0002:00001f98       ??_C@_0EN@HOCBCMCD@Impossible?5de?5lancer?5l?8enregistr@ 1006bf98     EnregistrementTV.obj
 0002:00002000       ?maxOptions@Menu@@0HB      1006c000     Menu.obj
 0002:00002008       ??_7codecvt_base@std@@6B@  1006c008     Menu.obj
 0002:0000201c       ??_7?$basic_istream@DU?$char_traits@D@std@@@std@@6B@ 1006c01c     Menu.obj
 0002:00002024       ??_7?$basic_filebuf@DU?$char_traits@D@std@@@std@@6B@ 1006c024     Menu.obj
 0002:00002060       ??_7CSSMatchMenuException@@6B@ 1006c060     Menu.obj
 0002:00002068       ??_C@_0P@LAKMHBGE@?$CC?5est?5invalide?$AA@ 1006c068     Menu.obj
 0002:00002078       ??_C@_0BO@HEJBGICL@L?8index?5de?5la?5ligne?5du?5menu?5?$CC?$AA@ 1006c078     Menu.obj
 0002:00002098       ??_C@_0CA@CDIFJJPN@L?8index?5du?5choix?5dans?5le?5menu?5?$CC?$AA@ 1006c098     Menu.obj
 0002:000020bc       ??_7?$basic_ifstream@DU?$char_traits@D@std@@@std@@6B@ 1006c0bc     Menu.obj
 0002:000020c4       ??_7?$codecvt@DDH@std@@6B@ 1006c0c4     Menu.obj
 0002:000020e4       ??_8?$basic_istream@DU?$char_traits@D@std@@@std@@7B@ 1006c0e4     Menu.obj
 0002:000020ec       ??_C@_08CDABDHMO@CSSMatch?$AA@ 1006c0ec     Menu.obj
 0002:000020f8       ??_8?$basic_ifstream@DU?$char_traits@D@std@@@std@@7B@ 1006c0f8     Menu.obj
 0002:00002100       ??_C@_0L@DBNMBJJG@?$CC?5invalide?$AA@ 1006c100     Menu.obj
 0002:0000210c       ??_C@_0P@DOIAFEPE@Page?5du?5menu?5?$CC?$AA@ 1006c10c     Menu.obj
 0002:0000211c       ??_C@_0BE@OALENDNL@Taille?5de?5la?5page?5?$CI?$AA@ 1006c11c     Menu.obj
 0002:00002130       ??_C@_0BB@CDOPGGBI@?$CJ?5?$DO?5255?5octets?5?$CB?$AA@ 1006c130     Menu.obj
 0002:00002144       ??_C@_02HBOOOICD@?9?$DO?$AA@ 1006c144     Menu.obj
 0002:00002148       ??_C@_02KHOJGJKF@?4?5?$AA@ 1006c148     Menu.obj
 0002:0000214c       ??_C@_0L@EJJNIJLL@?$CC?5est?5vide?$AA@ 1006c14c     Menu.obj
 0002:00002158       ??_C@_09CADFPMJE@Le?5menu?5?$CC?$AA@ 1006c158     Menu.obj
 0002:00002164       ??_C@_0BC@LDEAHMGN@0?4?5Fermer?5ce?5menu?$AA@ 1006c164     Menu.obj
 0002:00002178       ??_C@_0BM@NKADAMAB@Cette?5liste?5est?5vide?5?3?9?$CI?6?5?6?$AA@ 1006c178     Menu.obj
 0002:00002194       ??_C@_02MCBMIIIH@?5?6?$AA@ 1006c194     Menu.obj
 0002:00002198       ??_C@_01LFCBOECM@?4?$AA@   1006c198     Menu.obj
 0002:0000219c       ??_C@_0BF@GDMBNGBG@?$CC?5a?5ete?5renomme?5en?5?$CC?$AA@ 1006c19c     Menu.obj
 0002:000021b4       ??_C@_0BO@JGAAJPPM@Le?5fichier?5de?5configuration?5?$CC?$AA@ 1006c1b4     Menu.obj
 0002:000021d4       ??_C@_06MMNFMMNO@?1?$CK?4cfg?$AA@ 1006c1d4     Menu.obj
 0002:000021dc       ??_C@_0BO@IJMLFIMC@?$CC?5est?5inaccessible?5en?5lecture?$AA@ 1006c1dc     Menu.obj
 0002:000021fc       ??_C@_0N@LDFCNII@Le?5fichier?5?$CC?$AA@ 1006c1fc     Menu.obj
 0002:0000220c       ??_C@_06KOMEFGGD@Retour?$AA@ 1006c20c     Menu.obj
 0002:00002214       ??_C@_07CMMNKKHM@Suivant?$AA@ 1006c214     Menu.obj
 0002:00002224       ??_C@_05LMIPEIGH@?$FLTAG?$FN?$AA@ 1006c224     Team.obj
 0002:0000222c       ??_C@_0L@BGKCNEMK@?$FLPersonne?$FN?$AA@ 1006c22c     Team.obj
 0002:00002238       ??_C@_05LBJIFDKL@?$FLteam?$AA@ 1006c238     Team.obj
 0002:00002248       ??_C@_0BM@NAIDFPCF@Type?5d?8UserMessage?5invalide?$AA@ 1006c248     Messages.obj
 0002:00002264       ??_C@_0BA@EHOPNFFA@?$AE?$FLCSSMatch?$FN?5?3?$AB?5?$AA@ 1006c264     Messages.obj
 0002:00002274       ??_C@_0BA@EEGLABDO@?$AE?$FLCSSMatch?$FN?5?3?$AD?5?$AA@ 1006c274     Messages.obj
 0002:00002284       ??_C@_0CF@HDNMEEOH@Taille?5de?5la?5page?5?$DO?51024?5?$CB?5?$CItell@ 1006c284     Messages.obj
 0002:000022ac       ??_C@_01JOAMLHOP@?9?$AA@   1006c2ac     Messages.obj
 0002:000022b0       ??_C@_04MEMAJGDJ@name?$AA@ 1006c2b0     Messages.obj
 0002:000022b8       ??_C@_04HCCHHEEF@rate?$AA@ 1006c2b8     Messages.obj
 0002:000022c0       ??_C@_02LLHJFGPH@?5?$HM?$AA@ 1006c2c0     Messages.obj
 0002:000022c4       ??_C@_0P@MCCHILGB@cl_interpolate?$AA@ 1006c2c4     Messages.obj
 0002:000022d4       ??_C@_0L@FHOEGPOF@cl_cmdrate?$AA@ 1006c2d4     Messages.obj
 0002:000022e0       ??_C@_0O@GLEIJHMA@cl_updaterate?$AA@ 1006c2e0     Messages.obj
 0002:000022f0       ??_C@_0BB@LIBPCIKF@Pseudo?5du?5joueur?$AA@ 1006c2f0     Messages.obj
 0002:00002304       ??_C@_03LGOGDKEL@?5?$HM?5?$AA@ 1006c304     Messages.obj
 0002:00002308       ??_C@_03LAHOMOFG@?5?$CL?6?$AA@ 1006c308     Messages.obj
 0002:0000230c       ??_C@_02MINBJDHL@?$HM?5?$AA@ 1006c30c     Messages.obj
 0002:00002310       ??_C@_01NEMOKFLO@?$DN?$AA@ 1006c310     Messages.obj
 0002:00002314       ??_C@_02KBCCKLEO@?$CL?5?$AA@ 1006c314     Messages.obj
 0002:00002320       __real@bf800000            1006c320     Timer.obj
 0002:00002324       ??_C@_0N@CGNGGGHJ@Execution?5?3?5?$AA@ 1006c324     Timer.obj
 0002:00002334       ??_C@_0O@NBHDLE@?5?$CIparametre?$DN?$CC?$AA@ 1006c334     Timer.obj
 0002:00002344       ??_C@_02HPDBCLII@?$CC?$CJ?$AA@ 1006c344     Timer.obj
 0002:00002350       ??_C@_01GPOEFGEJ@?7?$AA@   1006c350     GestionTimers.obj
 0002:00002354       ??_C@_0BM@PFIJKBGO@Trop?5de?5timers?5en?5attente?5?$CB?$AA@ 1006c354     GestionTimers.obj
 0002:00002370       ??_C@_0CA@OLKNBDHO@Impossible?5d?8ajouter?5un?5timer?5?$CB?$AA@ 1006c370     GestionTimers.obj
 0002:00002398       ??_C@_0BM@MCFCCEIF@Liste?5des?5steamID?5arbitre?5?3?$AA@ 1006c398     Authentification.obj
 0002:000023bc       ??_C@_09HNHHNMLD@cssmatch?6?$AA@ 1006c3bc     GestionMenus.obj
 0002:000023c8       ??_C@_03BNIFMFNJ@Non?$AA@  1006c3c8     GestionMenus.obj
 0002:000023cc       ??_C@_03PLMJBCNN@Oui?$AA@  1006c3cc     GestionMenus.obj
 0002:000023d0       ??_C@_0DD@KFPNKKKN@CSSMatch?5?3?5Voulez?9vous?5jouer?5un?5@ 1006c3d0     GestionMenus.obj
 0002:00002404       ??_C@_0DB@NPAINLBN@CSSMatch?5?3?5Des?5strats?5devront?9il@ 1006c404     GestionMenus.obj
 0002:00002438       ??_C@_0BA@GPHIHMLL@Lancer?5un?5match?$AA@ 1006c438     GestionMenus.obj
 0002:00002448       ??_C@_0O@PABAANID@?$CFs?5le?5alltalk?$AA@ 1006c448     GestionMenus.obj
 0002:00002458       ??_C@_0CA@PDKCPNGA@CSSMatch?5?3?5Aucun?5match?5en?5cours?$AA@ 1006c458     GestionMenus.obj
 0002:00002478       ??_C@_0BF@PPGGJMHO@Red?C?$KJtecter?5les?5tags?$AA@ 1006c478     GestionMenus.obj
 0002:00002490       ??_C@_0BB@MFDEOIAD@Stopper?5le?5match?$AA@ 1006c490     GestionMenus.obj
 0002:000024a4       ??_C@_07EKAIBOKF@Restart?$AA@ 1006c4a4     GestionMenus.obj
 0002:000024ac       ??_C@_0BM@IKLIMKEJ@CSSMatch?5?3?5Round?5au?5couteau?$AA@ 1006c4ac     GestionMenus.obj
 0002:000024c8       ??_C@_0CC@EGDANHFI@Forcer?5le?5?$CBgo?5de?5toutes?5les?5team@ 1006c4c8     GestionMenus.obj
 0002:000024ec       ??_C@_0BC@JKKANF@CSSMatch?5?3?5Strats?$AA@ 1006c4ec     GestionMenus.obj
 0002:00002500       ??_C@_0BG@GJMLGLLN@Recommencer?5la?5manche?$AA@ 1006c500     GestionMenus.obj
 0002:00002518       ??_C@_0BB@COIFIHA@CSSMatch?5?3?5Match?$AA@ 1006c518     GestionMenus.obj
 0002:0000252c       ??_C@_0CF@BFINIGHH@CSSMatch?5?3?5Choix?5d?8une?5configura@ 1006c52c     GestionMenus.obj
 0002:00002554       ??_C@_0BB@NOOJCBIL@Bannir?5un?5joueur?$AA@ 1006c554     GestionMenus.obj
 0002:00002568       ??_C@_0BB@COFLJPID@Kicker?5un?5joueur?$AA@ 1006c568     GestionMenus.obj
 0002:0000257c       ??_C@_0BP@DFOHNKI@Mettre?5un?5joueur?5en?5spectateur?$AA@ 1006c57c     GestionMenus.obj
 0002:0000259c       ??_C@_0BC@FNGLPOEH@Swapper?5un?5joueur?$AA@ 1006c59c     GestionMenus.obj
 0002:000025b0       ??_C@_0P@HOENCLGA@Changer?5de?5map?$AA@ 1006c5b0     GestionMenus.obj
 0002:000025c0       ??_C@_0BK@HNLBENML@CSSMatch?5?3?5Administration?$AA@ 1006c5c0     GestionMenus.obj
 0002:000025dc       ??_C@_0BO@IENPLCBJ@CSSMatch?5?3?5Choisissez?5une?5map?$AA@ 1006c5dc     GestionMenus.obj
 0002:000025fc       ??_C@_0BN@MHIJJNJE@CSSMatch?5?3?5Choix?5d?8un?5joueur?$AA@ 1006c5fc     GestionMenus.obj
 0002:0000261c       ??_C@_09FHMJCGNI@Permanent?$AA@ 1006c61c     GestionMenus.obj
 0002:00002628       ??_C@_03JGMBDMMK@1?5H?$AA@ 1006c628     GestionMenus.obj
 0002:0000262c       ??_C@_05KOHPHOBO@5?5min?$AA@ 1006c62c     GestionMenus.obj
 0002:00002634       ??_C@_0CK@ELGBHCKB@CSSMatch?5?3?5Choix?5d?8une?5dur?C?$KJe?5po@ 1006c634     GestionMenus.obj
 0002:00002660       ??_C@_05LIAGPFHE@?$CC?5?$CB?5?$CI?$AA@ 1006c660     GestionMenus.obj
 0002:00002668       ??_C@_0CJ@GGAJGEOM@Impossible?5d?8afficher?5une?5page?5d@ 1006c668     GestionMenus.obj
 0002:00002698       ??_C@_0EL@FBPEACCF@Impossible?5d?8afficher?5cette?5page@ 1006c698     GestionMenus.obj
 0002:000026e4       ??_C@_0CB@NLOODELA@cstrike?1cfg?1cssmatch?1maplist?4txt@ 1006c6e4     GestionMenus.obj
 0002:00002708       ??_C@_0BM@IMEEBNIF@cfg?1cssmatch?1configurations?$AA@ 1006c708     GestionMenus.obj
 0002:00002728       ??_C@_0HG@KAEOCIOF@Impossible?5d?8afficher?5cette?5page@ 1006c728     GestionMenus.obj
 0002:000027a0       ??_C@_0CA@BHDEHCNK@?4?2GestionMenus?2GestionMenus?4cpp?$AA@ 1006c7a0     GestionMenus.obj
 0002:000027c0       ??_C@_0BO@KKLFCAEO@Impossible?5de?5charger?5la?5map?5?$AA@ 1006c7c0     GestionMenus.obj
 0002:000027e0       ??_C@_0N@CJJNJGFC@changelevel?5?$AA@ 1006c7e0     GestionMenus.obj
 0002:000027f0       ??_C@_0BN@MKIKNANA@?5semble?5s?8?C?$KKtre?5d?C?$KJconnect?C?$KJ?$AA@ 1006c7f0     GestionMenus.obj
 0002:00002810       ??_C@_0BD@NIDIHCDE@?5est?5swapp?C?$KJ?5par?5?$AD?$AA@ 1006c810     GestionMenus.obj
 0002:00002824       ??_C@_0BN@DBALGKCL@?5est?5mit?5en?5spectateur?5par?5?$AD?$AA@ 1006c824     GestionMenus.obj
 0002:00002844       ??_C@_0BC@MPCABLJI@?5est?5kick?C?$KJ?5par?5?$AD?$AA@ 1006c844     GestionMenus.obj
 0002:00002858       ??_C@_0BE@JEMFFFOO@Kick?5par?5un?5arbitre?$AA@ 1006c858     GestionMenus.obj
 0002:0000286c       ??_C@_0CG@CDDILLID@?5est?5banni?5de?5fa?C?$KHon?5permanente?5@ 1006c86c     GestionMenus.obj
 0002:00002894       ??_C@_0CA@DMHICPAN@?5est?5temporairement?5banni?5par?5?$AD?$AA@ 1006c894     GestionMenus.obj
 0002:000028b4       ??_C@_0BD@DLJLFGFF@Ban?5par?5un?5arbitre?$AA@ 1006c8b4     GestionMenus.obj
 0002:000028c8       ??_C@_0BJ@GBILCGPN@Options?5d?8administration?$AA@ 1006c8c8     GestionMenus.obj
 0002:000028e4       ??_C@_07NMGEADIJ@Activer?$AA@ 1006c8e4     GestionMenus.obj
 0002:000028ec       ??_C@_0M@KMKIGACM@D?C?$KJsactiver?$AA@ 1006c8ec     GestionMenus.obj
 0002:00002908       ??_C@_0DC@CFJIDEIF@Index?5invalide?5passe?5au?5gestionn@ 1006c908     GestionJoueurs.obj
 0002:00002944       ??_C@_0CM@NEIKKNAJ@cssm_spec?5ID?5?3?5met?5en?5spectateur@ 1006c944     ConCommands.obj
 0002:00002970       ??_C@_0BP@KGOHNNLE@cssm_swap?5ID?5?3?5swap?5un?5joueur?6?$AA@ 1006c970     ConCommands.obj
 0002:00002990       ??_C@_0GE@DAFDBAIK@cssm_teamct?5tag?5de?5la?5team?5anti?9@ 1006c990     ConCommands.obj
 0002:000029f8       ??_C@_0FJ@HDMNFFIO@cssm_teamt?5tag?5de?5la?5team?5terror@ 1006c9f8     ConCommands.obj
 0002:00002a58       ??_C@_0EM@HANHAMBO@cssm_revoke?5?$CCsteamID?$CC?5?3?5suspend?5@ 1006ca58     ConCommands.obj
 0002:00002aa4       ??_C@_0DN@EEPLJMHB@cssm_grant?5?$CCsteamID?$CC?5?3?5ajoute?5un@ 1006caa4     ConCommands.obj
 0002:00002ae4       ??_C@_0DA@KFCJILLF@cssm_restartround?5?3?5relance?5la?5m@ 1006cae4     ConCommands.obj
 0002:00002b14       ??_C@_0DB@FBIHPPID@cssm_restartmanche?5?3?5relance?5la?5@ 1006cb14     ConCommands.obj
 0002:00002b48       ??_C@_0DP@GBCLOADB@cssm_go?5?3?5force?5le?5?$CBgo?5de?5toutes@ 1006cb48     ConCommands.obj
 0002:00002b88       ??_C@_0DH@KMPKNKCP@cssm_retag?5?3?5lance?5la?5red?C?$KJtecti@ 1006cb88     ConCommands.obj
 0002:00002bc0       ??_C@_0BN@FDOLPCAK@cssm_stop?5?3?5stoppe?5un?5match?6?$AA@ 1006cbc0     ConCommands.obj
 0002:00002be0       ??_C@_0DL@NDLCDFLP@cssm_start?5?$FLfichier?5de?5config?5op@ 1006cbe0     ConCommands.obj
 0002:00002c1c       ??_C@_0CN@NNIEODLF@CSSMatch?5?3?5Il?5n?8y?5a?5aucun?5match?5@ 1006cc1c     ConCommands.obj
 0002:00002c4c       ??_C@_0O@LKLELBFC@cssm_swap?5ID?6?$AA@ 1006cc4c     ConCommands.obj
 0002:00002c5c       ??_C@_0DA@KJEMJLPL@CSSMatch?5?3?5Erreur?5de?5traitement?5@ 1006cc5c     ConCommands.obj
 0002:00002c8c       ??_C@_0BM@HOMLANKF@CSSMatch?5?3?5Joueur?5invalide?6?$AA@ 1006cc8c     ConCommands.obj
 0002:00002ca8       ??_C@_0CF@JGKEAEMP@CSSMatch?5?3?5Ce?5joueur?5est?5spectat@ 1006cca8     ConCommands.obj
 0002:00002cd0       ??_C@_0O@MBHMOMGN@cssm_spec?5ID?6?$AA@ 1006ccd0     ConCommands.obj
 0002:00002ce0       ??_C@_0CM@EDKLIGBF@CSSMatch?5?3?5Un?5match?5est?5d?C?$KJj?C?$KA?5e@ 1006cce0     ConCommands.obj
 0002:00002d0c       ??_C@_0DF@CBOMLMIJ@CSSMatch?5?3?5Erreur?5dans?5le?5traite@ 1006cd0c     ConCommands.obj
 0002:00002d44       ??_C@_0CP@HDDBKMJE@CSSMatch?5?3?5Impossible?5de?5trouver@ 1006cd44     ConCommands.obj
 0002:00002d78       ??_C@_0EF@NLOLNBKI@CSSMatch?5?3?5default?4cfg?5absent?0?5v@ 1006cd78     ConCommands.obj
 0002:00002dc0       ??_C@_0M@BAINMAIF@default?4cfg?$AA@ 1006cdc0     ConCommands.obj
 0002:00002dcc       ??_C@_0CI@IKJPKCGI@cfg?1cssmatch?1configurations?1defa@ 1006cdcc     ConCommands.obj
 0002:00002df4       ??_C@_0BE@JPFHPJDF@cssm_grant?5steamID?6?$AA@ 1006cdf4     ConCommands.obj
 0002:00002e08       ??_C@_0CG@OMKBGDOO@CSSMatch?5?3?5La?5steamID?5?$CFs?5est?5arb@ 1006ce08     ConCommands.obj
 0002:00002e30       ??_C@_0EE@PMJHBJLL@CSSMatch?5?3?5La?5steamID?5?$CFs?5est?5mai@ 1006ce30     ConCommands.obj
 0002:00002e74       ??_C@_0BF@FBFFPEAI@cssm_revoke?5steamID?6?$AA@ 1006ce74     ConCommands.obj
 0002:00002e8c       ??_C@_0CM@HMPFHBHC@CSSMatch?5?3?5La?5steamID?5?$CFs?5n?8est?5p@ 1006ce8c     ConCommands.obj
 0002:00002eb8       ??_C@_0DI@LIKEAKDO@CSSMatch?5?3?5La?5steamID?5?$CFs?5n?8est?5m@ 1006ceb8     ConCommands.obj
 0002:00002ef0       ??_C@_0DI@IBKANNLB@CSSMatch?5?3?5Le?5nouveau?5tag?5de?5la?5@ 1006cef0     ConCommands.obj
 0002:00002f28       ??_C@_0DN@IOIGGBHH@CSSMatch?5?3?5Le?5nouveau?5tag?5de?5la?5@ 1006cf28     ConCommands.obj
 0002:00002f68       ??_C@_09BBKFKGJB@cssm_help?$AA@ 1006cf68     ConCommands.obj
 0002:00002f78       ??_C@_0EJ@JJPGBJFG@CSSMatch?5?3?5Liste?5et?5d?C?$KJcrit?5les?5@ 1006cf78     ConCommands.obj
 0002:00002fc4       ??_C@_0L@JDFPKFP@cssm_start?$AA@ 1006cfc4     ConCommands.obj
 0002:00002fd0       ??_C@_0BK@BLLFNLPF@CSSMatch?5?3?5Lance?5un?5match?$AA@ 1006cfd0     ConCommands.obj
 0002:00002fec       ??_C@_09OMHGIOKB@cssm_stop?$AA@ 1006cfec     ConCommands.obj
 0002:00002ff8       ??_C@_0BL@KOJMCDCM@CSSMatch?5?3?5Stoppe?5un?5match?$AA@ 1006cff8     ConCommands.obj
 0002:00003014       ??_C@_0L@IHKBGMNO@cssm_retag?$AA@ 1006d014     ConCommands.obj
 0002:00003020       ??_C@_0DD@MJBFOJFP@CSSMatch?5?3?5Lance?5la?5redetection?5@ 1006d020     ConCommands.obj
 0002:00003054       ??_C@_07MJLODENC@cssm_go?$AA@ 1006d054     ConCommands.obj
 0002:0000305c       ??_C@_0DP@NFNLPJIH@CSSMatch?5?3?5Force?5le?5?$CBgo?5de?5toute@ 1006d05c     ConCommands.obj
 0002:0000309c       ??_C@_0BD@KGHJAMGP@cssm_restartmanche?$AA@ 1006d09c     ConCommands.obj
 0002:000030b0       ??_C@_0CG@GCCHFLNF@CSSMatch?5?3?5Relance?5la?5manche?5en?5@ 1006d0b0     ConCommands.obj
 0002:000030d8       ??_C@_0BC@JGEGJPJM@cssm_restartround?$AA@ 1006d0d8     ConCommands.obj
 0002:000030ec       ??_C@_0CF@JGEMBDDF@CSSMatch?5?3?5Relance?5le?5round?5en?5c@ 1006d0ec     ConCommands.obj
 0002:00003114       ??_C@_0L@LAOBFGG@cssm_grant?$AA@ 1006d114     ConCommands.obj
 0002:00003120       ??_C@_0DA@FHHDDKIJ@CSSMatch?5?3?5Ajoute?5un?5arbitre?5le?5@ 1006d120     ConCommands.obj
 0002:00003150       ??_C@_0M@OKGDBMGK@cssm_revoke?$AA@ 1006d150     ConCommands.obj
 0002:0000315c       ??_C@_0DC@GHNJFHFN@CSSMatch?5?3?5Supprime?5un?5arbitre?5l@ 1006d15c     ConCommands.obj
 0002:00003190       ??_C@_0L@FOMKJAJI@cssm_teamt?$AA@ 1006d190     ConCommands.obj
 0002:0000319c       ??_C@_0DL@IMKJHBGO@CSSMatch?5?3?5Edite?5le?5tag?5de?5la?5te@ 1006d19c     ConCommands.obj
 0002:000031d8       ??_C@_0M@KMLANIOB@cssm_teamct?$AA@ 1006d1d8     ConCommands.obj
 0002:000031e8       ??_C@_0EA@OGBNAAAG@CSSMatch?5?3?5Edite?5le?5tag?5de?5la?5te@ 1006d1e8     ConCommands.obj
 0002:00003228       ??_C@_09PEFNAMEF@cssm_swap?$AA@ 1006d228     ConCommands.obj
 0002:00003234       ??_C@_0BK@FLIJEBIL@CSSMatch?5?3?5Swap?5un?5joueur?$AA@ 1006d234     ConCommands.obj
 0002:00003250       ??_C@_09PGMNNLC@cssm_spec?$AA@ 1006d250     ConCommands.obj
 0002:0000325c       ??_C@_0CH@JLKKKODL@CSSMatch?5?3?5Met?5en?5spectateur?5un?5@ 1006d25c     ConCommands.obj
 0002:00003290       ??_7Rapport@@6B@           1006d290     Rapport.obj
 0002:000032a4       ??_C@_0BP@GFHCDMD@cstrike?1cfg?1cssmatch?1rapports?1?$AA@ 1006d2a4     Rapport.obj
 0002:000032d0       ??_7RapportXml@@6B@        1006d2d0     RapportXml.obj
 0002:000032e4       ??_C@_04GJOGLFEJ@?$CGlt?$DL?$AA@ 1006d2e4     RapportXml.obj
 0002:000032ec       ??_C@_01MNNFJEPP@?$DM?$AA@ 1006d2ec     RapportXml.obj
 0002:000032f0       ??_C@_05JKJFEODM@?$CGamp?$DL?$AA@ 1006d2f0     RapportXml.obj
 0002:000032f8       ??_C@_01HNPIGOCE@?$CG?$AA@ 1006d2f8     RapportXml.obj
 0002:00003300       ??_7?$basic_ofstream@DU?$char_traits@D@std@@@std@@6B@ 1006d300     RapportXml.obj
 0002:00003304       ??_8?$basic_ofstream@DU?$char_traits@D@std@@@std@@7B@ 1006d304     RapportXml.obj
 0002:0000330c       ??_C@_0L@GMCACPAF@?$DMcssmatch?$DO?$AA@ 1006d30c     RapportXml.obj
 0002:00003318       ??_C@_0DH@BNFJJBKH@?$DM?$DPxml?9stylesheet?5type?$DN?$CCtext?1xsl?$CC@ 1006d318     RapportXml.obj
 0002:00003350       ??_C@_0CH@MHPNFOKF@?$DM?$DPxml?5version?$DN?$CC1?40?$CC?5encoding?$DN?$CCUT@ 1006d350     RapportXml.obj
 0002:00003378       ??_C@_0M@FKEFIBMJ@?$DM?1cssmatch?$DO?$AA@ 1006d378     RapportXml.obj
 0002:00003384       ??_C@_0L@BFKLJKKC@?7?$DM?1plugin?$DO?$AA@ 1006d384     RapportXml.obj
 0002:00003390       ??_C@_07JDLOJHCJ@?7?7?$DMurl?$DO?$AA@ 1006d390     RapportXml.obj
 0002:00003398       ??_C@_0CK@NHOJNFCN@http?3?1?1code?4google?4com?1p?1cssmatc@ 1006d398     RapportXml.obj
 0002:000033c4       ??_C@_06LKGHGNF@?$DM?1url?$DO?$AA@ 1006d3c4     RapportXml.obj
 0002:000033cc       ??_C@_0M@JBJPKOB@?7?7?$DMversion?$DO?$AA@ 1006d3cc     RapportXml.obj
 0002:000033d8       ??_C@_0L@BBEGGKEG@?$DM?1version?$DO?$AA@ 1006d3d8     RapportXml.obj
 0002:000033e4       ??_C@_09PNHMEKHF@?7?$DMplugin?$DO?$AA@ 1006d3e4     RapportXml.obj
 0002:000033f0       ??_C@_09EPELKLJA@?$DM?1joueur?$DO?$AA@ 1006d3f0     RapportXml.obj
 0002:000033fc       ??_C@_09IDFAMKOO@?7?$DMdeaths?$DO?$AA@ 1006d3fc     RapportXml.obj
 0002:00003408       ??_C@_09JIMHPNCG@?$DM?1deaths?$DO?$AA@ 1006d408     RapportXml.obj
 0002:00003414       ??_C@_08PLDNECDG@?7?$DMkills?$DO?$AA@ 1006d414     RapportXml.obj
 0002:00003420       ??_C@_08GNKPPBGD@?$DM?1kills?$DO?$AA@ 1006d420     RapportXml.obj
 0002:0000342c       ??_C@_09IGLENCMB@?7?$DMpseudo?$DO?$AA@ 1006d42c     RapportXml.obj
 0002:00003438       ??_C@_09JNCDOFAJ@?$DM?1pseudo?$DO?$AA@ 1006d438     RapportXml.obj
 0002:00003444       ??_C@_0BC@MPPPAJPB@?$DMjoueur?5steamid?$DN?$CC?$AA@ 1006d444     RapportXml.obj
 0002:00003458       ??_C@_02HKLCKPBO@?$CC?$DO?$AA@ 1006d458     RapportXml.obj
 0002:0000345c       ??_C@_0BB@LGDOMGBM@?7?7?$DM?1spectateurs?$DO?$AA@ 1006d45c     RapportXml.obj
 0002:00003470       ??_C@_03HNKAOPKP@?7?7?7?$AA@ 1006d470     RapportXml.obj
 0002:00003474       ??_C@_0BA@BHCPPOME@?7?7?$DMspectateurs?$DO?$AA@ 1006d474     RapportXml.obj
 0002:00003484       ??_C@_0O@CIHFOAIB@?7?7?$DM?1sourcetv?$DO?$AA@ 1006d484     RapportXml.obj
 0002:00003494       ??_C@_0BE@FEBCMDMH@?7?7?7?$DMmanche?5numero?$DN?$CC?$AA@ 1006d494     RapportXml.obj
 0002:000034a8       ??_C@_09EIPKOEJL@?$DM?1manche?$DO?$AA@ 1006d4a8     RapportXml.obj
 0002:000034b4       ??_C@_0N@ODHCMDFK@?7?7?$DMsourcetv?$DO?$AA@ 1006d4b4     RapportXml.obj
 0002:000034c4       ??_C@_0CE@NNMFLNDO@?4xml?5n?8a?5pu?5etre?5ouvert?5en?5ecrit@ 1006d4c4     RapportXml.obj
 0002:000034e8       ??_C@_0M@DLJCOICL@Le?5fichier?5?$AA@ 1006d4e8     RapportXml.obj
 0002:000034f4       ??_C@_04GAOAGNCM@?4xml?$AA@ 1006d4f4     RapportXml.obj
 0002:000034fc       ??_C@_0P@LHILLHFM@?7?7?7?7?$DM?1joueurs?$DO?$AA@ 1006d4fc     RapportXml.obj
 0002:0000350c       ??_C@_05MHDJKCKJ@?7?7?7?7?7?$AA@ 1006d50c     RapportXml.obj
 0002:00003514       ??_C@_0O@FCDFAHKG@?7?7?7?7?$DMjoueurs?$DO?$AA@ 1006d514     RapportXml.obj
 0002:00003524       ??_C@_0L@BHCFIGMC@?7?7?7?$DM?1team?$DO?$AA@ 1006d524     RapportXml.obj
 0002:00003530       ??_C@_0O@FFIOKGJN@?7?7?7?7?$DMscorect?$DO?$AA@ 1006d530     RapportXml.obj
 0002:00003540       ??_C@_0L@MOHMHMDK@?$DM?1scorect?$DO?$AA@ 1006d540     RapportXml.obj
 0002:0000354c       ??_C@_0N@FJBOLNGG@?7?7?7?7?$DMscoret?$DO?$AA@ 1006d54c     RapportXml.obj
 0002:0000355c       ??_C@_09MPAGKKKG@?$DM?1scoret?$DO?$AA@ 1006d55c     RapportXml.obj
 0002:00003568       ??_C@_0M@GGHHMLFI@?7?7?7?7?$DMscore?$DO?$AA@ 1006d568     RapportXml.obj
 0002:00003574       ??_C@_08HHMIIFBC@?$DM?1score?$DO?$AA@ 1006d574     RapportXml.obj
 0002:00003580       ??_C@_09DGDJIDIH@?7?7?7?7?$DMtag?$DO?$AA@ 1006d580     RapportXml.obj
 0002:0000358c       ??_C@_06HIDPEIPF@?$DM?1tag?$DO?$AA@ 1006d58c     RapportXml.obj
 0002:00003594       ??_C@_09HPHOLKJH@?7?7?7?$DMteam?$DO?$AA@ 1006d594     RapportXml.obj
 0002:000035a0       ??_C@_0L@MBABMOOG@?7?7?$DM?1teams?$DO?$AA@ 1006d5a0     RapportXml.obj
 0002:000035ac       ??_C@_09KENDJKKM@?7?7?$DMteams?$DO?$AA@ 1006d5ac     RapportXml.obj
 0002:000035b8       ??_C@_09DDKJBKC@?7?$DM?1match?$DO?$AA@ 1006d5b8     RapportXml.obj
 0002:000035c4       ??_C@_0BA@EHEAIAEM@?7?7?$DMtagcutround?$DO?$AA@ 1006d5c4     RapportXml.obj
 0002:000035d4       ??_C@_0P@EEKAMAMN@?$DM?1tagcutround?$DO?$AA@ 1006d5d4     RapportXml.obj
 0002:000035e4       ??_C@_07JELOOJAP@?7?7?$DMmap?$DO?$AA@ 1006d5e4     RapportXml.obj
 0002:000035ec       ??_C@_06MKGAIPD@?$DM?1map?$DO?$AA@ 1006d5ec     RapportXml.obj
 0002:000035f4       ??_C@_07CHDPNEMP@?7?7?$DMnom?$DO?$AA@ 1006d5f4     RapportXml.obj
 0002:000035fc       ??_C@_08EPPMAGHH@?5versus?5?$AA@ 1006d5fc     RapportXml.obj
 0002:00003608       ??_C@_06LPCHDFDD@?$DM?1nom?$DO?$AA@ 1006d608     RapportXml.obj
 0002:00003610       ??_C@_07DAGCHOIL@?7?7?$DMfin?$DO?$AA@ 1006d610     RapportXml.obj
 0002:00003618       ??_C@_06KIHKJPHH@?$DM?1fin?$DO?$AA@ 1006d618     RapportXml.obj
 0002:00003620       ??_C@_09BEEPBFEH@?7?7?$DMdebut?$DO?$AA@ 1006d620     RapportXml.obj
 0002:0000362c       ??_C@_08HLELPBAA@?$DM?1debut?$DO?$AA@ 1006d62c     RapportXml.obj
 0002:00003638       ??_C@_08BJGKLPML@?7?7?$DMdate?$DO?$AA@ 1006d638     RapportXml.obj
 0002:00003644       ??_C@_07KNPJBJBN@?$DM?1date?$DO?$AA@ 1006d644     RapportXml.obj
 0002:0000364c       ??_C@_08GMDOHFOF@?7?$DMmatch?$DO?$AA@ 1006d64c     RapportXml.obj
 0002:00003658       ??_C@_08CHKJDBIO@?$CFd?1?$CFm?1?$CFY?$AA@ 1006d658     RapportXml.obj
 0002:0000366c       ??_C@_08MANLKGDL@attacker?$AA@ 1006d66c     EventListener.obj
 0002:00003678       ??_C@_06IHAGGOEE@userid?$AA@ 1006d678     EventListener.obj
 0002:00003680       ??_C@_06MKEJMLBF@winner?$AA@ 1006d680     EventListener.obj
 0002:0000368c       ??_7?$basic_istringstream@DU?$char_traits@D@std@@V?$allocator@D@2@@std@@6B@ 1006d68c     EventListener.obj
 0002:00003694       ??_7CSSMatchPlayerPropException@@6B@ 1006d694     EventListener.obj
 0002:0000369c       ??_C@_0BP@CIIHJFAK@Un?5AddListener?5retourne?5faux?5?$CB?$AA@ 1006d69c     EventListener.obj
 0002:000036bc       ??_C@_0N@IMADPPLI@player_spawn?$AA@ 1006d6bc     EventListener.obj
 0002:000036cc       ??_C@_0BA@GOENBCJB@bomb_beginplant?$AA@ 1006d6cc     EventListener.obj
 0002:000036dc       ??_C@_0M@OFONCGLO@item_pickup?$AA@ 1006d6dc     EventListener.obj
 0002:000036e8       ??_C@_0N@GOMMMMLG@player_death?$AA@ 1006d6e8     EventListener.obj
 0002:000036f8       ??_C@_0M@BPEDIGGH@player_team?$AA@ 1006d6f8     EventListener.obj
 0002:00003704       ??_C@_0BC@KCAFEGAM@player_changename?$AA@ 1006d704     EventListener.obj
 0002:00003718       ??_C@_0L@LCMDBMAK@player_say?$AA@ 1006d718     EventListener.obj
 0002:00003724       ??_C@_0BC@PCMCGAHO@player_disconnect?$AA@ 1006d724     EventListener.obj
 0002:00003738       ??_C@_09DECMHOPL@round_end?$AA@ 1006d738     EventListener.obj
 0002:00003744       ??_C@_0M@JENCMODK@round_start?$AA@ 1006d744     EventListener.obj
 0002:00003750       ??_C@_0CC@EOMGEIDE@?4?2EventListener?2EventListener?4cp@ 1006d750     EventListener.obj
 0002:00003774       ??_C@_0BC@CFLGPCIP@use?5weapon_knife?6?$AA@ 1006d774     EventListener.obj
 0002:00003788       ??_C@_05BIPCPIBA@knife?$AA@ 1006d788     EventListener.obj
 0002:00003790       ??_C@_04NHONDGDE@item?$AA@ 1006d790     EventListener.obj
 0002:00003798       ??_C@_0CL@KAPCABDJ@RAPPEL?5?$CB?5Le?5mot?5de?5passe?5du?5serv@ 1006d798     EventListener.obj
 0002:000037c4       ??_C@_0BO@JCKMPDLF@?$AB?5quitte?5le?5match?5?$CB?5?$CImotif?5?3?5?$AA@ 1006d7c4     EventListener.obj
 0002:000037e4       ??_C@_06CEHAOENB@reason?$AA@ 1006d7e4     EventListener.obj
 0002:000037ec       ??_C@_0DC@IJLHCCLE@Changement?5de?5situation?0?5red?C?$KJte@ 1006d7ec     EventListener.obj
 0002:00003820       ??_C@_07NFIJAMJP@oldteam?$AA@ 1006d820     EventListener.obj
 0002:00003828       ??_C@_04KADBPNCB@team?$AA@ 1006d828     EventListener.obj
 0002:00003830       ??_C@_0DF@CFEKKHN@La?5pose?5du?5C4?5pendant?5le?5Strats?5@ 1006d830     EventListener.obj
 0002:00003868       ??_C@_0DK@NKEBKFGI@La?5pose?5du?5C4?5pendant?5le?5round?5a@ 1006d868     EventListener.obj
 0002:000038a4       ??_C@_0BB@DJPFMGKM@use?5weapon_knife?$AA@ 1006d8a4     EventListener.obj
 0002:000038b8       ??_C@_0CD@FGEFHAEK@Changement?5de?5tag?0?5red?C?$KJtection?4@ 1006d8b8     EventListener.obj
 0002:000038dc       ??_C@_07GNAIFCPP@newname?$AA@ 1006d8dc     EventListener.obj
 0002:000038e4       ??_C@_07LBHIGHIH@oldname?$AA@ 1006d8e4     EventListener.obj
 0002:000038ec       ??_C@_0CL@BGMNADJ@Impossible?5de?5trouver?5l?8offset?5d@ 1006d8ec     EventListener.obj
 0002:00003918       ??_C@_0GC@FDKILELA@c?3?2cygwin?2home?2nicolas?2cssmatch?2@ 1006d918     EventListener.obj
 0002:0000397c       ??_8?$basic_istringstream@DU?$char_traits@D@std@@V?$allocator@D@2@@std@@7B@ 1006d97c     EventListener.obj
 0002:00003984       ??_C@_0DJ@KKKPEFFI@Cette?5fonctionnalit?C?$KJ?5n?8est?5disp@ 1006d984     EventListener.obj
 0002:000039c0       ??_C@_0CA@LEAHOMOG@Toutes?5les?5teams?5sont?5pr?C?$KKtes?5?$CB?$AA@ 1006d9c0     EventListener.obj
 0002:000039e0       ??_C@_0CA@LOLMNFJJ@?$AB?5sont?5d?C?$KJj?C?$KA?5d?C?$KJclar?C?$KJs?5pr?C?$KKts?$AA@ 1006d9e0     EventListener.obj
 0002:00003a00       ??_C@_07IDMDJACH@?$CBteamct?$AA@ 1006da00     EventListener.obj
 0002:00003a08       ??_C@_06ECPONBKE@?$CBteamt?$AA@ 1006da08     EventListener.obj
 0002:00003a10       ??_C@_05GLLMDLIO@ready?$AA@ 1006da10     EventListener.obj
 0002:00003a18       ??_C@_03GJMIECHF@?$CBgo?$AA@ 1006da18     EventListener.obj
 0002:00003a1c       ??_C@_07GMLLFOGJ@?$CBscores?$AA@ 1006da1c     EventListener.obj
 0002:00003a24       ??_C@_06HEMHKENC@?$CBscore?$AA@ 1006da24     EventListener.obj
 0002:00003a2c       ??_C@_04CIMGMMMG@text?$AA@ 1006da2c     EventListener.obj
 0002:00003a34       ??_C@_0BL@HDGJPBAD@?$AECutRound?5?$CB?5GO?5?$CB?5GO?5?$CB?5GO?5?$CB?$AA@ 1006da34     EventListener.obj
 0002:00003a50       ??_C@_0P@DEEPPLOA@?$AEStrats?5Time?5?$CB?$AA@ 1006da50     EventListener.obj
 0002:00003a60       __real@3f000000            1006da60     EventListener.obj
 0002:00003a64       ??_C@_07HGGENBJO@?6Round?5?$AA@ 1006da64     EventListener.obj
 0002:00003a6c       ??_C@_07JPGGLGAA@status?6?$AA@ 1006da6c     EventListener.obj
 0002:00003a80       ??_7SayHook@@6B@           1006da80     SayHook.obj
 0002:00003ab4       ??_C@_03BANJEMDJ@say?$AA@  1006dab4     SayHook.obj
 0002:00003ab8       ??_C@_0BO@OAMEOCOA@?$FLCSSMatch?$FN?5?3?5say?5hook?5command?$AA@ 1006dab8     SayHook.obj
 0002:00003ad8       ??_C@_0EF@DKNFNHBE@Impossible?5de?5hooker?5la?5commande@ 1006dad8     SayHook.obj
 0002:00003b20       ??_C@_0EE@MBIHGBHO@Impossible?5de?5hooker?5la?5commande@ 1006db20     SayHook.obj
 0002:00003b64       ??_C@_0BP@EIBLOLNN@Tu?5n?8es?5pas?5arbitre?5du?5match?5?$CB?$AA@ 1006db64     SayHook.obj
 0002:00003b84       ??_C@_0BN@NOPCIFKB@Aucun?5match?5n?8est?5en?5cours?5?$CB?$AA@ 1006db84     SayHook.obj
 0002:00003ba4       ??_C@_0BG@OLNNHNLP@?$CBteamt?5Le?5Nouveau?5Tag?$AA@ 1006dba4     SayHook.obj
 0002:00003bbc       ??_C@_0CL@CFNEFIGM@Le?5nouveau?5tag?5de?5la?5team?5terror@ 1006dbbc     SayHook.obj
 0002:00003be8       ??_C@_0CA@EECEIDGG@Il?5n?8y?5a?5aucun?5match?5en?5cours?5?$CB?$AA@ 1006dbe8     SayHook.obj
 0002:00003c08       ??_C@_0BH@ODMFOINE@?$CBteamct?5Le?5Nouveau?5Tag?$AA@ 1006dc08     SayHook.obj
 0002:00003c20       ??_C@_0DA@CBCBONHE@Le?5nouveau?5tag?5de?5la?5team?5anti?9t@ 1006dc20     SayHook.obj
 0002:00003c50       ??_C@_0CO@JCOAMPJA@Veuillez?5sp?C?$KJcifier?5le?5nouveau?5t@ 1006dc50     SayHook.obj
 0002:00003c8c       ??_7SayTeamHook@@6B@       1006dc8c     SayTeamHook.obj
 0002:00003cc0       ??_C@_08NBFNGOHN@say_team?$AA@ 1006dcc0     SayTeamHook.obj
 0002:00003ccc       ??_C@_0BG@KCNKKGDD@say_team?5hook?5command?$AA@ 1006dccc     SayTeamHook.obj
 0002:00003ce8       ??_C@_0EK@MPJACBAA@Impossible?5de?5hooker?5la?5commande@ 1006dce8     SayTeamHook.obj
 0002:00003d38       ??_C@_0EJ@ILLFCCCJ@Impossible?5de?5hooker?5la?5commande@ 1006dd38     SayTeamHook.obj
 0002:00003d8c       ??_C@_0BM@DJIDCABD@?4?2PlayerProp?2PlayerProp?4cpp?$AA@ 1006dd8c     PlayerProp.obj
 0002:00003db0       ?nanmask@@3HB              1006ddb0     mathlib:mathlib_base.obj
 0002:00003e78       __real@3f76800000000000    1006de78     mathlib:mathlib_base.obj
 0002:00003e80       __real@4066c16c20000000    1006de80     mathlib:mathlib_base.obj
 0002:00003e88       __real@3ff0000000000000    1006de88     mathlib:mathlib_base.obj
 0002:00003e90       __real@3e80000000000000    1006de90     mathlib:mathlib_base.obj
 0002:00003e98       __real@3f70000000000000    1006de98     mathlib:mathlib_base.obj
 0002:00003ea0       __real@400921fb54442d18    1006dea0     mathlib:mathlib_base.obj
 0002:00003ea8       __real@358637bd            1006dea8     mathlib:mathlib_base.obj
 0002:00003eb0       __real@4010000000000000    1006deb0     mathlib:mathlib_base.obj
 0002:00003eb8       __real@404ca5dc00000000    1006deb8     mathlib:mathlib_base.obj
 0002:00003ec0       __real@3a83126f            1006dec0     mathlib:mathlib_base.obj
 0002:00003ec8       __real@4076800000000000    1006dec8     mathlib:mathlib_base.obj
 0002:00003ed0       __real@4066800000000000    1006ded0     mathlib:mathlib_base.obj
 0002:00003ed8       __real@42b40000            1006ded8     mathlib:mathlib_base.obj
 0002:00003edc       __real@43870000            1006dedc     mathlib:mathlib_base.obj
 0002:00003ee0       __real@3f91df46a0000000    1006dee0     mathlib:mathlib_base.obj
 0002:00003ee8       __real@bff0000000000000    1006dee8     mathlib:mathlib_base.obj
 0002:00003ef0       __real@c7c34f80            1006def0     mathlib:mathlib_base.obj
 0002:00003ef4       __real@47c34f80            1006def4     mathlib:mathlib_base.obj
 0002:00003ef8       __real@40019999a0000000    1006def8     mathlib:mathlib_base.obj
 0002:00003f00       __real@3fdd1745c0000000    1006df00     mathlib:mathlib_base.obj
 0002:00003f08       __real@406fe00000000000    1006df08     mathlib:mathlib_base.obj
 0002:00003f10       __real@3fee666660000000    1006df10     mathlib:mathlib_base.obj
 0002:00003f18       __real@408ff80000000000    1006df18     mathlib:mathlib_base.obj
 0002:00003f20       __real@bff7154ca0000000    1006df20     mathlib:mathlib_base.obj
 0002:00003f28       __real@3fe0000000000000    1006df28     mathlib:mathlib_base.obj
 0002:00003f30       __real@3ff921fb54442d18    1006df30     mathlib:mathlib_base.obj
 0002:00003f38       __real@3eb0c6f7a0000000    1006df38     mathlib:mathlib_base.obj
 0002:00003f40       __real@43340000            1006df40     mathlib:mathlib_base.obj
 0002:00003f48       __real@c014000000000000    1006df48     mathlib:mathlib_base.obj
 0002:00003f50       __real@c008000000000000    1006df50     mathlib:mathlib_base.obj
 0002:00003f58       __real@4008000000000000    1006df58     mathlib:mathlib_base.obj
 0002:00003f60       __real@bfe0000000000000    1006df60     mathlib:mathlib_base.obj
 0002:00003f68       __real@4018000000000000    1006df68     mathlib:mathlib_base.obj
 0002:00003f70       __real@c000000000000000    1006df70     mathlib:mathlib_base.obj
 0002:00003f78       __real@3fe5555560000000    1006df78     mathlib:mathlib_base.obj
 0002:00003f80       __real@c018000000000000    1006df80     mathlib:mathlib_base.obj
 0002:00003f88       __real@3fc5555560000000    1006df88     mathlib:mathlib_base.obj
 0002:00003f90       __real@3ff4000000000000    1006df90     mathlib:mathlib_base.obj
 0002:00003f98       __real@3fe8000000000000    1006df98     mathlib:mathlib_base.obj
 0002:00003fa0       __real@3f400000            1006dfa0     mathlib:mathlib_base.obj
 0002:00003fa4       __real@3727c5ac            1006dfa4     mathlib:mathlib_base.obj
 0002:00003fa8       __real@c3340000            1006dfa8     mathlib:mathlib_base.obj
 0002:00003fac       __real@c6800000            1006dfac     mathlib:mathlib_base.obj
 0002:00003fb0       __real@405fc00000000000    1006dfb0     mathlib:mathlib_base.obj
 0002:00003fb8       __real@3f800001            1006dfb8     mathlib:mathlib_base.obj
 0002:00003fc0       __real@3f50000000000000    1006dfc0     mathlib:mathlib_base.obj
 0002:00003fc8       __real@3e800000            1006dfc8     mathlib:mathlib_base.obj
 0002:00003fd0       __real@3fec000000000000    1006dfd0     mathlib:mathlib_base.obj
 0002:00003fd8       __real@3fc0000000000000    1006dfd8     mathlib:mathlib_base.obj
 0002:00003fe0       __real@3fb3333333333333    1006dfe0     mathlib:mathlib_base.obj
 0002:00003fe8       __real@3d4ccccd            1006dfe8     mathlib:mathlib_base.obj
 0002:00003fec       __real@3e000000            1006dfec     mathlib:mathlib_base.obj
 0002:00003ff0       __real@3fa999999999999a    1006dff0     mathlib:mathlib_base.obj
 0002:00003ff8       __real@437f0000            1006dff8     mathlib:mathlib_base.obj
 0002:00004000       ??_7ConCommandBase@@6B@    1006e000     tier1:convar.obj
 0002:0000402c       ??_7ConVar@@6B@            1006e02c     tier1:convar.obj
 0002:00004074       ??_C@_02NJPGOMH@?$CFf?$AA@ 1006e074     tier1:convar.obj
 0002:00004078       ??_C@_02DPKJAMEF@?$CFd?$AA@ 1006e078     tier1:convar.obj
 0002:00004080       ??_7ConCommand@@6B@        1006e080     tier1:convar.obj
 0002:000040b4       ??_C@_08PNLNEKOB@kernel32?$AA@ 1006e0b4     tier1:interface.obj
 0002:000040c0       ??_C@_0BC@KNBMEBEO@IsDebuggerPresent?$AA@ 1006e0c0     tier1:interface.obj
 0002:000040d4       ??_C@_04HLONOPDM@?4dll?$AA@ 1006e0d4     tier1:interface.obj
 0002:000040dc       ??_C@_0BM@OIEJAJOK@Module?5?$CFs?5is?5a?5debug?5build?6?$AA@ 1006e0dc     tier1:interface.obj
 0002:000040f8       ??_C@_0L@EJCNAOMG@BuiltDebug?$AA@ 1006e0f8     tier1:interface.obj
 0002:00004104       ??_C@_0M@OJHILNKA@?9allowdebug?$AA@ 1006e104     tier1:interface.obj
 0002:00004110       ??_C@_09ILGMALND@?$CFs?1bin?1?$CFs?$AA@ 1006e110     tier1:interface.obj
 0002:0000411c       ??_C@_0BA@OBHPCBFP@CreateInterface?$AA@ 1006e11c     tier1:interface.obj
 0002:00004130       __real@41f0000000000000    1006e130     tier1:bitbuf.obj
 0002:00004138       __real@3fa0000000000000    1006e138     tier1:bitbuf.obj
 0002:00004140       __real@3f40020040080100    1006e140     tier1:bitbuf.obj
 0002:00004148       __real@4f800000            1006e148     tier1:bitbuf.obj
 0002:00004150       __real@4040000000000000    1006e150     tier1:bitbuf.obj
 0002:00004158       __real@bd000000            1006e158     tier1:bitbuf.obj
 0002:0000415c       __real@3d000000            1006e15c     tier1:bitbuf.obj
 0002:00004160       __real@409ffc0000000000    1006e160     tier1:bitbuf.obj
 0002:00004168       __real@bf40020040080100    1006e168     tier1:bitbuf.obj
 0002:00004170       __real@4050400000000000    1006e170     tier1:strtools.obj
 0002:00004178       __real@4024000000000000    1006e178     tier1:strtools.obj
 0002:00004180       __real@4058400000000000    1006e180     tier1:strtools.obj
 0002:00004188       __real@4048000000000000    1006e188     tier1:strtools.obj
 0002:00004190       __real@4030000000000000    1006e190     tier1:strtools.obj
 0002:00004198       ??_C@_0CH@DNILKGJA@V_AppendSlash?3?5ran?5out?5of?5space?5@ 1006e198     tier1:strtools.obj
 0002:000041c0       ??_C@_08BIBOIFBG@?$CF?$CF?4?$CFif?$CFs?$AA@ 1006e1c0     tier1:strtools.obj
 0002:000041cc       ??_C@_04EMEGLOCB@?$CFi?$CFs?$AA@ 1006e1cc     tier1:strtools.obj
 0002:000041d8       __real@3ee4f8b588e368f1    1006e1d8     tier1:strtools.obj
 0002:000041e0       ??_C@_06LCIDCBMH@?5bytes?$AA@ 1006e1e0     tier1:strtools.obj
 0002:000041e8       ??_C@_03MAAJMAHL@?5KB?$AA@ 1006e1e8     tier1:strtools.obj
 0002:000041ec       ??_C@_03MEIELMMJ@?5MB?$AA@ 1006e1ec     tier1:strtools.obj
 0002:000041f0       __real@447a0000            1006e1f0     tier1:strtools.obj
 0002:000041f4       __real@44800000            1006e1f4     tier1:strtools.obj
 0002:000041f8       ??_C@_04OHGLKFFN@?$CF03d?$AA@ 1006e1f8     tier1:strtools.obj
 0002:00004200       ??_C@_05CMAMCNEC@?$CF03d?0?$AA@ 1006e200     tier1:strtools.obj
 0002:00004208       ??_C@_03DPLIHHLN@?$CFd?0?$AA@ 1006e208     tier1:strtools.obj
 0002:0000420c       ??_C@_04NOJCDH@?$CF02x?$AA@ 1006e20c     tier1:strtools.obj
 0002:00004214       ??_C@_03OOAAEEIB@?4?$CFc?$AA@ 1006e214     tier1:strtools.obj
 0002:00004218       ??_C@_02CEGDFPFP@?4?2?$AA@ 1006e218     tier1:strtools.obj
 0002:0000421c       ??_C@_02CAHBHFGK@?4?1?$AA@ 1006e21c     tier1:strtools.obj
 0002:00004220       ??_C@_0DB@FOILCOJM@V_MakeAbsolutePath?3?5tried?5to?5?$CC?4?4@ 1006e220     tier1:strtools.obj
 0002:00004254       ??_C@_0CE@INIPJBEP@V_MakeAbsolutePath?3?5_getcwd?5fail@ 1006e254     tier1:strtools.obj
 0002:0000427c       ??_7type_info@@6B@         1006e27c     LIBCMT:typinfo.obj
 0002:00004284       ??_7exception@std@@6B@     1006e284     LIBCMT:stdexcpt.obj
 0002:0000428c       ??_C@_0BC@EOODALEL@Unknown?5exception?$AA@ 1006e28c     LIBCMT:stdexcpt.obj
 0002:000042a4       ??_7bad_cast@std@@6B@      1006e2a4     LIBCMT:stdexcpt.obj
 0002:000042b0       ??_7bad_typeid@std@@6B@    1006e2b0     LIBCMT:stdexcpt.obj
 0002:000042bc       ??_7__non_rtti_object@std@@6B@ 1006e2bc     LIBCMT:stdexcpt.obj
 0002:000042c4       __FPinit                   1006e2c4     LIBCMT:fpinit.obj
 0002:000042c8       __FPmtinit                 1006e2c8     LIBCMT:fpinit.obj
 0002:000042cc       __FPmtterm                 1006e2cc     LIBCMT:fpinit.obj
 0002:000042f0       ??_C@_08JCCMCCIL@HH?3mm?3ss?$AA@ 1006e2f0     LIBCMT:strftime.obj
 0002:000042fc       ??_C@_0BE@CKGJFCPC@dddd?0?5MMMM?5dd?0?5yyyy?$AA@ 1006e2fc     LIBCMT:strftime.obj
 0002:00004310       ??_C@_08BPBNCDIB@MM?1dd?1yy?$AA@ 1006e310     LIBCMT:strftime.obj
 0002:0000431c       ??_C@_02CJNFDJBF@PM?$AA@   1006e31c     LIBCMT:strftime.obj
 0002:00004320       ??_C@_02DEDBPAFC@AM?$AA@   1006e320     LIBCMT:strftime.obj
 0002:00004324       ??_C@_08EDHMEBNP@December?$AA@ 1006e324     LIBCMT:strftime.obj
 0002:00004330       ??_C@_08HCHEGEOA@November?$AA@ 1006e330     LIBCMT:strftime.obj
 0002:0000433c       ??_C@_07JJNFCEND@October?$AA@ 1006e33c     LIBCMT:strftime.obj
 0002:00004344       ??_C@_09BHHEALKD@September?$AA@ 1006e344     LIBCMT:strftime.obj
 0002:00004350       ??_C@_06LBBHFDDG@August?$AA@ 1006e350     LIBCMT:strftime.obj
 0002:00004358       ??_C@_04MIEPOIFP@July?$AA@ 1006e358     LIBCMT:strftime.obj
 0002:00004360       ??_C@_04CNLMGBGM@June?$AA@ 1006e360     LIBCMT:strftime.obj
 0002:00004368       ??_C@_05DMJDNLEJ@April?$AA@ 1006e368     LIBCMT:strftime.obj
 0002:00004370       ??_C@_05HPCKOFNC@March?$AA@ 1006e370     LIBCMT:strftime.obj
 0002:00004378       ??_C@_08GNJGEPFN@February?$AA@ 1006e378     LIBCMT:strftime.obj
 0002:00004384       ??_C@_07CGJPFGJA@January?$AA@ 1006e384     LIBCMT:strftime.obj
 0002:0000438c       ??_C@_03MKABNOCG@Dec?$AA@  1006e38c     LIBCMT:strftime.obj
 0002:00004390       ??_C@_03JPJOFNIA@Nov?$AA@  1006e390     LIBCMT:strftime.obj
 0002:00004394       ??_C@_03BMAOKBAD@Oct?$AA@  1006e394     LIBCMT:strftime.obj
 0002:00004398       ??_C@_03GGCAPAJC@Sep?$AA@  1006e398     LIBCMT:strftime.obj
 0002:0000439c       ??_C@_03IFJFEIGA@Aug?$AA@  1006e39c     LIBCMT:strftime.obj
 0002:000043a0       ??_C@_03LBGABGKK@Jul?$AA@  1006e3a0     LIBCMT:strftime.obj
 0002:000043a4       ??_C@_03IDFGHECI@Jun?$AA@  1006e3a4     LIBCMT:strftime.obj
 0002:000043a8       ??_C@_03CNMDKL@May?$AA@    1006e3a8     LIBCMT:strftime.obj
 0002:000043ac       ??_C@_03LEOLGMJP@Apr?$AA@  1006e3ac     LIBCMT:strftime.obj
 0002:000043b0       ??_C@_03ODNJBKGA@Mar?$AA@  1006e3b0     LIBCMT:strftime.obj
 0002:000043b4       ??_C@_03HJBDCHOM@Feb?$AA@  1006e3b4     LIBCMT:strftime.obj
 0002:000043b8       ??_C@_03JIHJHPIE@Jan?$AA@  1006e3b8     LIBCMT:strftime.obj
 0002:000043bc       ??_C@_08INBOOONO@Saturday?$AA@ 1006e3bc     LIBCMT:strftime.obj
 0002:000043c8       ??_C@_06JECMNKMI@Friday?$AA@ 1006e3c8     LIBCMT:strftime.obj
 0002:000043d0       ??_C@_08HACCIKIA@Thursday?$AA@ 1006e3d0     LIBCMT:strftime.obj
 0002:000043dc       ??_C@_09DLIGFAKA@Wednesday?$AA@ 1006e3dc     LIBCMT:strftime.obj
 0002:000043e8       ??_C@_07BAAGCFCM@Tuesday?$AA@ 1006e3e8     LIBCMT:strftime.obj
 0002:000043f0       ??_C@_06JLEDEDGH@Monday?$AA@ 1006e3f0     LIBCMT:strftime.obj
 0002:000043f8       ??_C@_06OOPIFAJ@Sunday?$AA@ 1006e3f8     LIBCMT:strftime.obj
 0002:00004400       ??_C@_03FEFJNEK@Sat?$AA@   1006e400     LIBCMT:strftime.obj
 0002:00004404       ??_C@_03IDIOELNC@Fri?$AA@  1006e404     LIBCMT:strftime.obj
 0002:00004408       ??_C@_03IOFIKPDN@Thu?$AA@  1006e408     LIBCMT:strftime.obj
 0002:0000440c       ??_C@_03MHOMLAJA@Wed?$AA@  1006e40c     LIBCMT:strftime.obj
 0002:00004410       ??_C@_03NAGEINEP@Tue?$AA@  1006e410     LIBCMT:strftime.obj
 0002:00004414       ??_C@_03PDAGKDH@Mon?$AA@   1006e414     LIBCMT:strftime.obj
 0002:00004418       ??_C@_03KOEHGMDN@Sun?$AA@  1006e418     LIBCMT:strftime.obj
 0002:0000441c       ??_C@_03EBAPMIKO@a?1p?$AA@ 1006e41c     LIBCMT:strftime.obj
 0002:00004420       ??_C@_05JAMEPDIN@am?1pm?$AA@ 1006e420     LIBCMT:strftime.obj
 0002:00004428       __pRawDllMain              1006e428     LIBCMT:dllcrt0.obj
 0002:00004428       __pDefaultRawDllMain       1006e428     LIBCMT:dllcrt0.obj
 0002:00004480       __pDestructExceptionObject 1006e480     LIBCMT:frame.obj
 0002:00004488       ??_7bad_exception@std@@6B@ 1006e488     LIBCMT:frame.obj
 0002:00004490       ??_C@_0O@DPKOEFFH@bad?5exception?$AA@ 1006e490     LIBCMT:frame.obj
 0002:000044a0       ??_C@_0O@NLDKAIKN@EncodePointer?$AA@ 1006e4a0     LIBCMT:tidtable.obj
 0002:000044b0       ??_C@_0N@NHGLKGEC@KERNEL32?4DLL?$AA@ 1006e4b0     LIBCMT:tidtable.obj
 0002:000044c0       ??_C@_0O@KBPMFGHI@DecodePointer?$AA@ 1006e4c0     LIBCMT:tidtable.obj
 0002:000044d0       ??_C@_07PEJMOBNF@FlsFree?$AA@ 1006e4d0     LIBCMT:tidtable.obj
 0002:000044d8       ??_C@_0M@JCPCPOEF@FlsSetValue?$AA@ 1006e4d8     LIBCMT:tidtable.obj
 0002:000044e4       ??_C@_0M@GDNOONDI@FlsGetValue?$AA@ 1006e4e4     LIBCMT:tidtable.obj
 0002:000044f0       ??_C@_08KNHFBNJ@FlsAlloc?$AA@ 1006e4f0     LIBCMT:tidtable.obj
 0002:00004504       ??_C@_1O@CEDCILHN@?$AA?$CI?$AAn?$AAu?$AAl?$AAl?$AA?$CJ?$AA?$AA@ 1006e504     LIBCMT:output.obj
 0002:00004514       ??_C@_06OJHGLDPL@?$CInull?$CJ?$AA@ 1006e514     LIBCMT:output.obj
 0002:00004520       ___lookuptable             1006e520     LIBCMT:output.obj
 0002:0000457c       ??_C@_0P@GGKDKEEG@runtime?5error?5?$AA@ 1006e57c     LIBCMT:crt0msg.obj
 0002:0000458c       ??_C@_02PCIJFNDE@?$AN?6?$AA@ 1006e58c     LIBCMT:crt0msg.obj
 0002:00004590       ??_C@_0O@MJNIPGOH@TLOSS?5error?$AN?6?$AA@ 1006e590     LIBCMT:crt0msg.obj
 0002:000045a0       ??_C@_0N@BONNPDHF@SING?5error?$AN?6?$AA@ 1006e5a0     LIBCMT:crt0msg.obj
 0002:000045b0       ??_C@_0P@MBDAJNE@DOMAIN?5error?$AN?6?$AA@ 1006e5b0     LIBCMT:crt0msg.obj
 0002:000045c0       ??_C@_0JL@DFDOOABL@R6034?$AN?6An?5application?5has?5made?5a@ 1006e5c0     LIBCMT:crt0msg.obj
 0002:00004660       ??_C@_0PH@EPAFIJ@R6033?$AN?6?9?5Attempt?5to?5use?5MSIL?5cod@ 1006e660     LIBCMT:crt0msg.obj
 0002:00004758       ??_C@_0DD@BKEEABMM@R6032?$AN?6?9?5not?5enough?5space?5for?5lo@ 1006e758     LIBCMT:crt0msg.obj
 0002:00004790       ??_C@_0GD@OFKILIED@R6031?$AN?6?9?5Attempt?5to?5initialize?5t@ 1006e790     LIBCMT:crt0msg.obj
 0002:000047f4       ??_C@_0BP@LPMHJOKI@R6030?$AN?6?9?5CRT?5not?5initialized?$AN?6?$AA@ 1006e7f4     LIBCMT:crt0msg.obj
 0002:00004814       ??_C@_0CF@KJDAIALP@R6028?$AN?6?9?5unable?5to?5initialize?5he@ 1006e814     LIBCMT:crt0msg.obj
 0002:0000483c       ??_C@_0DF@GAKBPDFP@R6027?$AN?6?9?5not?5enough?5space?5for?5lo@ 1006e83c     LIBCMT:crt0msg.obj
 0002:00004874       ??_C@_0DF@IBLNNAIG@R6026?$AN?6?9?5not?5enough?5space?5for?5st@ 1006e874     LIBCMT:crt0msg.obj
 0002:000048ac       ??_C@_0CG@IOHKGFNJ@R6025?$AN?6?9?5pure?5virtual?5function?5c@ 1006e8ac     LIBCMT:crt0msg.obj
 0002:000048d4       ??_C@_0DF@JIJJFJDC@R6024?$AN?6?9?5not?5enough?5space?5for?5_o@ 1006e8d4     LIBCMT:crt0msg.obj
 0002:0000490c       ??_C@_0CJ@EGEJHFME@R6019?$AN?6?9?5unable?5to?5open?5console?5@ 1006e90c     LIBCMT:crt0msg.obj
 0002:00004938       ??_C@_0CB@GNHNIELH@R6018?$AN?6?9?5unexpected?5heap?5error?$AN?6@ 1006e938     LIBCMT:crt0msg.obj
 0002:0000495c       ??_C@_0CN@FOLDKNG@R6017?$AN?6?9?5unexpected?5multithread?5@ 1006e95c     LIBCMT:crt0msg.obj
 0002:0000498c       ??_C@_0CM@FAHFJNHO@R6016?$AN?6?9?5not?5enough?5space?5for?5th@ 1006e98c     LIBCMT:crt0msg.obj
 0002:000049b8       ??_C@_0JG@LBKMGKLD@?$AN?6This?5application?5has?5requested@ 1006e9b8     LIBCMT:crt0msg.obj
 0002:00004a50       ??_C@_0CM@FLCNIPKK@R6009?$AN?6?9?5not?5enough?5space?5for?5en@ 1006ea50     LIBCMT:crt0msg.obj
 0002:00004a7c       ??_C@_0CK@KMMJOAPP@R6008?$AN?6?9?5not?5enough?5space?5for?5ar@ 1006ea7c     LIBCMT:crt0msg.obj
 0002:00004aa8       ??_C@_0CF@HOHMHDEK@R6002?$AN?6?9?5floating?5point?5not?5load@ 1006eaa8     LIBCMT:crt0msg.obj
 0002:00004ad0       ??_C@_0CF@GOGNBNAK@Microsoft?5Visual?5C?$CL?$CL?5Runtime?5Lib@ 1006ead0     LIBCMT:crt0msg.obj
 0002:00004af8       ??_C@_02PHMGELLB@?6?6?$AA@ 1006eaf8     LIBCMT:crt0msg.obj
 0002:00004afc       ??_C@_03KHICJKCI@?4?4?4?$AA@ 1006eafc     LIBCMT:crt0msg.obj
 0002:00004b00       ??_C@_0BH@DNAGHKFM@?$DMprogram?5name?5unknown?$DO?$AA@ 1006eb00     LIBCMT:crt0msg.obj
 0002:00004b18       ??_C@_0BK@OFGJDLJJ@Runtime?5Error?$CB?6?6Program?3?5?$AA@ 1006eb18     LIBCMT:crt0msg.obj
 0002:00004b34       ??_C@_05KLBDPFGC@e?$CL000?$AA@ 1006eb34     LIBCMT:cvt.obj
 0002:00004b40       __real@4150017ec0000000    1006eb40     LIBCMT:testfdiv.obj
 0002:00004b48       __real@4147ffff80000000    1006eb48     LIBCMT:testfdiv.obj
 0002:00004b50       ??_C@_0BK@NHEOCAHP@IsProcessorFeaturePresent?$AA@ 1006eb50     LIBCMT:testfdiv.obj
 0002:00004b6c       ??_C@_08CPNIBGIE@KERNEL32?$AA@ 1006eb6c     LIBCMT:testfdiv.obj
 0002:00004b78       ??_C@_07LCBHPJJN@LC_TIME?$AA@ 1006eb78     LIBCMT:setlocal.obj
 0002:00004b80       ??_C@_0L@DLHIECNL@LC_NUMERIC?$AA@ 1006eb80     LIBCMT:setlocal.obj
 0002:00004b8c       ??_C@_0M@MIENIKLA@LC_MONETARY?$AA@ 1006eb8c     LIBCMT:setlocal.obj
 0002:00004b98       ??_C@_08EADHIDAD@LC_CTYPE?$AA@ 1006eb98     LIBCMT:setlocal.obj
 0002:00004ba4       ??_C@_0L@KFJHEKIK@LC_COLLATE?$AA@ 1006eba4     LIBCMT:setlocal.obj
 0002:00004bb0       ??_C@_06NEFDFEKB@LC_ALL?$AA@ 1006ebb0     LIBCMT:setlocal.obj
 0002:00004bb8       ___lc_category             1006ebb8     LIBCMT:setlocal.obj
 0002:00004c80       ??_C@_03EGDHDPFD@_?4?0?$AA@ 1006ec80     LIBCMT:setlocal.obj
 0002:00004c84       ??_C@_01ICJEACDI@?$DL?$AA@ 1006ec84     LIBCMT:setlocal.obj
 0002:00004c88       ??_C@_02BALPLPBG@?$DN?$DL?$AA@ 1006ec88     LIBCMT:setlocal.obj
 0002:00004c8c       ??_C@_02CLFPBFFP@TZ?$AA@   1006ec8c     LIBCMT:tzset.obj
 0002:00004c90       ___dnames                  1006ec90     LIBCMT:timeset.obj
 0002:00004ca8       ___mnames                  1006eca8     LIBCMT:timeset.obj
 0002:00004cd0       ??_C@_0P@MIGLKIOC@CorExitProcess?$AA@ 1006ecd0     LIBCMT:crt0dat.obj
 0002:00004ce0       ??_C@_0M@MBOPBNBK@mscoree?4dll?$AA@ 1006ece0     LIBCMT:crt0dat.obj
 0002:00006518       __DEFAULT_CW_in_mem        10070518     LIBCMT:common.obj
 0002:0000651a       __pi_by_2_to_61            1007051a     LIBCMT:common.obj
 0002:0000d168       ??_C@_03IIINPABG@tan?$AA@  10077168     LIBCMT:libm_error.obj
 0002:0000d16c       ??_C@_03LALBNOCG@cos?$AA@  1007716c     LIBCMT:libm_error.obj
 0002:0000d170       ??_C@_03BLEJJJBH@sin?$AA@  10077170     LIBCMT:libm_error.obj
 0002:0000d174       ??_C@_04EHEDPDJG@modf?$AA@ 10077174     LIBCMT:libm_error.obj
 0002:0000d17c       ??_C@_05PBJFFIGL@floor?$AA@ 1007717c     LIBCMT:libm_error.obj
 0002:0000d184       ??_C@_04GFPJNGEK@ceil?$AA@ 10077184     LIBCMT:libm_error.obj
 0002:0000d18c       ??_C@_04MLLJIGOK@atan?$AA@ 1007718c     LIBCMT:libm_error.obj
 0002:0000d194       ??_C@_05EOHGHCHD@exp10?$AA@ 10077194     LIBCMT:libm_error.obj
 0002:0000d19c       ??_C@_04PDIFKINK@acos?$AA@ 1007719c     LIBCMT:libm_error.obj
 0002:0000d1a4       ??_C@_04FIHNOPOL@asin?$AA@ 100771a4     LIBCMT:libm_error.obj
 0002:0000d1ac       ??_C@_03MGHMBJCF@log?$AA@  100771ac     LIBCMT:libm_error.obj
 0002:0000d1b0       ??_C@_05HGHHAHAP@log10?$AA@ 100771b0     LIBCMT:libm_error.obj
 0002:0000d1b8       ??_C@_03KHJOGHMM@exp?$AA@  100771b8     LIBCMT:libm_error.obj
 0002:0000d1bc       ??_C@_03JGHBODFD@pow?$AA@  100771bc     LIBCMT:libm_error.obj
 0002:0000d1c0       ??_C@_13NOLLCAOD@?$AA?$AA?$AA?$AA@ 100771c0     LIBCMT:a_map.obj
 0002:0000d1c4       ??_C@_0BK@CFCOFLF@?5Complete?5Object?5Locator?8?$AA@ 100771c4     LIBCMT:undname.obj
 0002:0000d1e0       ??_C@_0BN@MECKDCOJ@?5Class?5Hierarchy?5Descriptor?8?$AA@ 100771e0     LIBCMT:undname.obj
 0002:0000d200       ??_C@_0BD@LGICGFMM@?5Base?5Class?5Array?8?$AA@ 10077200     LIBCMT:undname.obj
 0002:0000d214       ??_C@_0BM@LDKODKLH@?5Base?5Class?5Descriptor?5at?5?$CI?$AA@ 10077214     LIBCMT:undname.obj
 0002:0000d230       ??_C@_0BC@DAFEJGAK@?5Type?5Descriptor?8?$AA@ 10077230     LIBCMT:undname.obj
 0002:0000d244       ??_C@_0BM@PMGGMLDN@?$GAlocal?5static?5thread?5guard?8?$AA@ 10077244     LIBCMT:undname.obj
 0002:0000d260       ??_C@_0CL@FGIJHLCE@?$GAmanaged?5vector?5copy?5constructor@ 10077260     LIBCMT:undname.obj
 0002:0000d28c       ??_C@_0CJ@GJELGAMM@?$GAvector?5vbase?5copy?5constructor?5i@ 1007728c     LIBCMT:undname.obj
 0002:0000d2b8       ??_C@_0CD@CGAJBKEJ@?$GAvector?5copy?5constructor?5iterato@ 100772b8     LIBCMT:undname.obj
 0002:0000d2dc       ??_C@_0CB@PDBIFEP@?$GAdynamic?5atexit?5destructor?5for?5?8@ 100772dc     LIBCMT:undname.obj
 0002:0000d300       ??_C@_0BL@CLIPGLGB@?$GAdynamic?5initializer?5for?5?8?$AA@ 10077300     LIBCMT:undname.obj
 0002:0000d31c       ??_C@_0CM@FCBBDIGB@?$GAeh?5vector?5vbase?5copy?5constructo@ 1007731c     LIBCMT:undname.obj
 0002:0000d348       ??_C@_0CG@HLDDJMAG@?$GAeh?5vector?5copy?5constructor?5iter@ 10077348     LIBCMT:undname.obj
 0002:0000d370       ??_C@_0CF@IMGKMJNO@?$GAmanaged?5vector?5destructor?5itera@ 10077370     LIBCMT:undname.obj
 0002:0000d398       ??_C@_0CG@CFDHKGGD@?$GAmanaged?5vector?5constructor?5iter@ 10077398     LIBCMT:undname.obj
 0002:0000d3c0       ??_C@_0BN@CKNJLHMB@?$GAplacement?5delete?$FL?$FN?5closure?8?$AA@ 100773c0     LIBCMT:undname.obj
 0002:0000d3e0       ??_C@_0BL@CNOONJFP@?$GAplacement?5delete?5closure?8?$AA@ 100773e0     LIBCMT:undname.obj
 0002:0000d3fc       ??_C@_0P@HJKNJFNN@?$GAomni?5callsig?8?$AA@ 100773fc     LIBCMT:undname.obj
 0002:0000d40c       ??_C@_09LBNFPBCA@?5delete?$FL?$FN?$AA@ 1007740c     LIBCMT:undname.obj
 0002:0000d418       ??_C@_06FHBGPFGH@?5new?$FL?$FN?$AA@ 10077418     LIBCMT:undname.obj
 0002:0000d420       ??_C@_0CE@IIHCMGGL@?$GAlocal?5vftable?5constructor?5closu@ 10077420     LIBCMT:undname.obj
 0002:0000d444       ??_C@_0BA@KKLDJDLB@?$GAlocal?5vftable?8?$AA@ 10077444     LIBCMT:undname.obj
 0002:0000d454       ??_C@_05KHLCHHI@?$GARTTI?$AA@ 10077454     LIBCMT:undname.obj
 0002:0000d45c       ??_C@_03KLGMFNMG@?$GAEH?$AA@ 1007745c     LIBCMT:undname.obj
 0002:0000d460       ??_C@_0BA@KBCDOMBN@?$GAudt?5returning?8?$AA@ 10077460     LIBCMT:undname.obj
 0002:0000d470       ??_C@_0BL@LLKPOHJI@?$GAcopy?5constructor?5closure?8?$AA@ 10077470     LIBCMT:undname.obj
 0002:0000d48c       ??_C@_0CH@OOJPLCPH@?$GAeh?5vector?5vbase?5constructor?5ite@ 1007748c     LIBCMT:undname.obj
 0002:0000d4b4       ??_C@_0CA@GCEOPDGL@?$GAeh?5vector?5destructor?5iterator?8?$AA@ 100774b4     LIBCMT:undname.obj
 0002:0000d4d4       ??_C@_0CB@JONCMFFK@?$GAeh?5vector?5constructor?5iterator?8@ 100774d4     LIBCMT:undname.obj
 0002:0000d4f8       ??_C@_0BL@NILFHHPC@?$GAvirtual?5displacement?5map?8?$AA@ 100774f8     LIBCMT:undname.obj
 0002:0000d514       ??_C@_0CE@IKBNEHA@?$GAvector?5vbase?5constructor?5iterat@ 10077514     LIBCMT:undname.obj
 0002:0000d538       ??_C@_0BN@LFPFMEDL@?$GAvector?5destructor?5iterator?8?$AA@ 10077538     LIBCMT:undname.obj
 0002:0000d558       ??_C@_0BO@PFGOCPJJ@?$GAvector?5constructor?5iterator?8?$AA@ 10077558     LIBCMT:undname.obj
 0002:0000d578       ??_C@_0BN@IMDCHIKM@?$GAscalar?5deleting?5destructor?8?$AA@ 10077578     LIBCMT:undname.obj
 0002:0000d598       ??_C@_0BO@OBMKPJIG@?$GAdefault?5constructor?5closure?8?$AA@ 10077598     LIBCMT:undname.obj
 0002:0000d5b8       ??_C@_0BN@DEGPLNFK@?$GAvector?5deleting?5destructor?8?$AA@ 100775b8     LIBCMT:undname.obj
 0002:0000d5d8       ??_C@_0BD@JDLKDPAB@?$GAvbase?5destructor?8?$AA@ 100775d8     LIBCMT:undname.obj
 0002:0000d5ec       ??_C@_08OBABFOLI@?$GAstring?8?$AA@ 100775ec     LIBCMT:undname.obj
 0002:0000d5f8       ??_C@_0BF@KDPPACIK@?$GAlocal?5static?5guard?8?$AA@ 100775f8     LIBCMT:undname.obj
 0002:0000d610       ??_C@_08LLFFHHDJ@?$GAtypeof?8?$AA@ 10077610     LIBCMT:undname.obj
 0002:0000d61c       ??_C@_07FEEIOKP@?$GAvcall?8?$AA@ 1007761c     LIBCMT:undname.obj
 0002:0000d624       ??_C@_09BLBHBJP@?$GAvbtable?8?$AA@ 10077624     LIBCMT:undname.obj
 0002:0000d630       ??_C@_09IFPLHPGF@?$GAvftable?8?$AA@ 10077630     LIBCMT:undname.obj
 0002:0000d63c       ??_C@_02MHEGNOJ@?$FO?$DN?$AA@ 1007763c     LIBCMT:undname.obj
 0002:0000d640       ??_C@_02DHLNPPGH@?$HM?$DN?$AA@ 10077640     LIBCMT:undname.obj
 0002:0000d644       ??_C@_02FGJGFEAB@?$CG?$DN?$AA@ 10077644     LIBCMT:undname.obj
 0002:0000d648       ??_C@_03CDNPDDLA@?$DM?$DM?$DN?$AA@ 10077648     LIBCMT:undname.obj
 0002:0000d64c       ??_C@_03IKFCCPFF@?$DO?$DO?$DN?$AA@ 1007764c     LIBCMT:undname.obj
 0002:0000d650       ??_C@_02FENAOKFI@?$CF?$DN?$AA@ 10077650     LIBCMT:undname.obj
 0002:0000d654       ??_C@_02FJEHGPIO@?1?$DN?$AA@ 10077654     LIBCMT:undname.obj
 0002:0000d658       ??_C@_02FKMDLLOA@?9?$DN?$AA@ 10077658     LIBCMT:undname.obj
 0002:0000d65c       ??_C@_02FOEOMHFC@?$CL?$DN?$AA@ 1007765c     LIBCMT:undname.obj
 0002:0000d660       ??_C@_02FPIMKNGF@?$CK?$DN?$AA@ 10077660     LIBCMT:undname.obj
 0002:0000d664       ??_C@_02NONPIBCD@?$HM?$HM?$AA@ 10077664     LIBCMT:undname.obj
 0002:0000d668       ??_C@_02PPKAJPJL@?$CG?$CG?$AA@ 10077668     LIBCMT:undname.obj
 0002:0000d66c       ??_C@_01DNKMNLPK@?$HM?$AA@ 1007766c     LIBCMT:undname.obj
 0002:0000d670       ??_C@_01JKBOJNNK@?$FO?$AA@ 10077670     LIBCMT:undname.obj
 0002:0000d674       ??_C@_01PJKLJHI@?$HO?$AA@  10077674     LIBCMT:undname.obj
 0002:0000d678       ??_C@_02HCKGKOFO@?$CI?$CJ?$AA@ 10077678     LIBCMT:undname.obj
 0002:0000d67c       ??_C@_01IHBHIGKO@?0?$AA@   1007767c     LIBCMT:undname.obj
 0002:0000d680       ??_C@_02EEKDKGMJ@?$DO?$DN?$AA@ 10077680     LIBCMT:undname.obj
 0002:0000d684       ??_C@_01PPODPGHN@?$DO?$AA@ 10077684     LIBCMT:undname.obj
 0002:0000d688       ??_C@_02EHCHHCKH@?$DM?$DN?$AA@ 10077688     LIBCMT:undname.obj
 0002:0000d68c       ??_C@_01FGNFDNOH@?$CF?$AA@ 1007768c     LIBCMT:undname.obj
 0002:0000d690       ??_C@_03MNHNFDLC@?9?$DO?$CK?$AA@ 10077690     LIBCMT:undname.obj
 0002:0000d694       ??_C@_01MIFGBAGJ@?$CL?$AA@ 10077694     LIBCMT:undname.obj
 0002:0000d698       ??_C@_02BAABKJLB@?9?9?$AA@ 10077698     LIBCMT:undname.obj
 0002:0000d69c       ??_C@_02ECNGHCIF@?$CL?$CL?$AA@ 1007769c     LIBCMT:undname.obj
 0002:0000d6a0       ??_C@_01NBENCBCI@?$CK?$AA@ 100776a0     LIBCMT:undname.obj
 0002:0000d6a4       ??_C@_08LHJFAFGD@operator?$AA@ 100776a4     LIBCMT:undname.obj
 0002:0000d6b0       ??_C@_02GPECMEKF@?$FL?$FN?$AA@ 100776b0     LIBCMT:undname.obj
 0002:0000d6b4       ??_C@_02FDNJECIE@?$CB?$DN?$AA@ 100776b4     LIBCMT:undname.obj
 0002:0000d6b8       ??_C@_02EGOFBIJA@?$DN?$DN?$AA@ 100776b8     LIBCMT:undname.obj
 0002:0000d6bc       ??_C@_01DCLJPIOD@?$CB?$AA@ 100776bc     LIBCMT:undname.obj
 0002:0000d6c0       ??_C@_02FODMEDOG@?$DM?$DM?$AA@ 100776c0     LIBCMT:undname.obj
 0002:0000d6c4       ??_C@_02GPIOPFAK@?$DO?$DO?$AA@ 100776c4     LIBCMT:undname.obj
 0002:0000d6c8       ??_C@_07FPCDHGMM@?5delete?$AA@ 100776c8     LIBCMT:undname.obj
 0002:0000d6d0       ??_C@_04NIHEBCM@?5new?$AA@ 100776d0     LIBCMT:undname.obj
 0002:0000d6d8       ??_C@_0M@GFIIJFMG@__unaligned?$AA@ 100776d8     LIBCMT:undname.obj
 0002:0000d6e4       ??_C@_0L@PILCLIHE@__restrict?$AA@ 100776e4     LIBCMT:undname.obj
 0002:0000d6f0       ??_C@_07JOMMBBKO@__ptr64?$AA@ 100776f0     LIBCMT:undname.obj
 0002:0000d6f8       ??_C@_09HIJEGCPM@__clrcall?$AA@ 100776f8     LIBCMT:undname.obj
 0002:0000d704       ??_C@_0L@JMKHOMEK@__fastcall?$AA@ 10077704     LIBCMT:undname.obj
 0002:0000d710       ??_C@_0L@NPHFGOKO@__thiscall?$AA@ 10077710     LIBCMT:undname.obj
 0002:0000d71c       ??_C@_09IFJBGAPI@__stdcall?$AA@ 1007771c     LIBCMT:undname.obj
 0002:0000d728       ??_C@_08GHMPAG@__pascal?$AA@ 10077728     LIBCMT:undname.obj
 0002:0000d734       ??_C@_07KOLFKCDI@__cdecl?$AA@ 10077734     LIBCMT:undname.obj
 0002:0000d73c       ??_C@_08EHJDFFNH@__based?$CI?$AA@ 1007773c     LIBCMT:undname.obj
 0002:0000d8cc       ??_7DNameNode@@6B@         100778cc     LIBCMT:undname.obj
 0002:0000d8dc       ??_7charNode@@6B@          100778dc     LIBCMT:undname.obj
 0002:0000d8ec       ??_7pDNameNode@@6B@        100778ec     LIBCMT:undname.obj
 0002:0000d8fc       ??_7DNameStatusNode@@6B@   100778fc     LIBCMT:undname.obj
 0002:0000d90c       ??_7pcharNode@@6B@         1007790c     LIBCMT:undname.obj
 0002:0000d918       ??_C@_04OKOHEJBO@?5?$DP?$DP?5?$AA@ 10077918     LIBCMT:undname.obj
 0002:0000d920       ??_C@_06EEGAIFAK@?$HLflat?$HN?$AA@ 10077920     LIBCMT:undname.obj
 0002:0000d928       ??_C@_05JIBOFOHK@?$HLfor?5?$AA@ 10077928     LIBCMT:undname.obj
 0002:0000d930       ??_C@_0BN@IBLMMFAP@?$GAnon?9type?9template?9parameter?$AA@ 10077930     LIBCMT:undname.obj
 0002:0000d950       ??_C@_09EBBEKKIH@unsigned?5?$AA@ 10077950     LIBCMT:undname.obj
 0002:0000d95c       ??_C@_05CJIMAING@long?5?$AA@ 1007795c     LIBCMT:undname.obj
 0002:0000d964       ??_C@_04LAHKHJMA@int?5?$AA@ 10077964     LIBCMT:undname.obj
 0002:0000d96c       ??_C@_06EHJMALKF@short?5?$AA@ 1007796c     LIBCMT:undname.obj
 0002:0000d974       ??_C@_05CIHEBHNO@char?5?$AA@ 10077974     LIBCMT:undname.obj
 0002:0000d97c       ??_C@_04GKJNKENE@void?$AA@ 1007797c     LIBCMT:undname.obj
 0002:0000d984       ??_C@_0L@EGPHHEKN@?$DMellipsis?$DO?$AA@ 10077984     LIBCMT:undname.obj
 0002:0000d990       ??_C@_0M@ELJOJFFH@?0?$DMellipsis?$DO?$AA@ 10077990     LIBCMT:undname.obj
 0002:0000d99c       ??_C@_04EENFHACM@?0?4?4?4?$AA@ 1007799c     LIBCMT:undname.obj
 0002:0000d9a4       ??_C@_07HDJPLPEK@?5throw?$CI?$AA@ 100779a4     LIBCMT:undname.obj
 0002:0000d9ac       ??_C@_02GOGNNPBN@?$CJ?$FL?$AA@ 100779ac     LIBCMT:undname.obj
 0002:0000d9b0       ??_C@_02MDINNEEG@s?5?$AA@  100779b0     LIBCMT:undname.obj
 0002:0000d9b4       ??_C@_0BE@EODMJLIF@?$GAtemplate?9parameter?$AA@ 100779b4     LIBCMT:undname.obj
 0002:0000d9c8       ??_C@_01GEODFPGF@?8?$AA@   100779c8     LIBCMT:undname.obj
 0002:0000d9cc       ??_C@_04HIBGFPH@NULL?$AA@  100779cc     LIBCMT:undname.obj
 0002:0000d9d4       ??_C@_0O@GKABPPIF@cli?3?3pin_ptr?$DM?$AA@ 100779d4     LIBCMT:undname.obj
 0002:0000d9e4       ??_C@_0M@EALIELKG@cli?3?3array?$DM?$AA@ 100779e4     LIBCMT:undname.obj
 0002:0000d9f0       ??_C@_05BEFAKPML@void?5?$AA@ 100779f0     LIBCMT:undname.obj
 0002:0000d9f8       ??_C@_02OHHJMEON@?8?8?$AA@ 100779f8     LIBCMT:undname.obj
 0002:0000d9fc       ??_C@_0BG@JNJLAMPM@?$GAanonymous?5namespace?8?$AA@ 100779fc     LIBCMT:undname.obj
 0002:0000da14       ??_C@_01NLNLIGKH@?$GA?$AA@ 10077a14     LIBCMT:undname.obj
 0002:0000da18       ??_C@_0O@KHGCOMHP@generic?9type?9?$AA@ 10077a18     LIBCMT:undname.obj
 0002:0000da28       ??_C@_0BE@JAEOCHPE@template?9parameter?9?$AA@ 10077a28     LIBCMT:undname.obj
 0002:0000da3c       ??_C@_02MOLJINC@?3?3?$AA@  10077a3c     LIBCMT:undname.obj
 0002:0000da40       ??_C@_0P@GCIFDJCJ@?$GAunknown?5ecsu?8?$AA@ 10077a40     LIBCMT:undname.obj
 0002:0000da50       ??_C@_06MOJHIBMG@union?5?$AA@ 10077a50     LIBCMT:undname.obj
 0002:0000da58       ??_C@_07DIBCDNGL@struct?5?$AA@ 10077a58     LIBCMT:undname.obj
 0002:0000da60       ??_C@_06LJBABKPM@class?5?$AA@ 10077a60     LIBCMT:undname.obj
 0002:0000da68       ??_C@_05LJGMCFOG@enum?5?$AA@ 10077a68     LIBCMT:undname.obj
 0002:0000da70       ??_C@_08KOFANOFK@coclass?5?$AA@ 10077a70     LIBCMT:undname.obj
 0002:0000da7c       ??_C@_0N@DLIEFKNA@cointerface?5?$AA@ 10077a7c     LIBCMT:undname.obj
 0002:0000da8c       ??_C@_02KCKGHPCA@?$CJ?5?$AA@ 10077a8c     LIBCMT:undname.obj
 0002:0000da90       ??_C@_0M@DHNBOJMP@extern?5?$CCC?$CC?5?$AA@ 10077a90     LIBCMT:undname.obj
 0002:0000da9c       ??_C@_08KJLFOPNE@?$FLthunk?$FN?3?$AA@ 10077a9c     LIBCMT:undname.obj
 0002:0000daa8       ??_C@_08GPDDCMKI@public?3?5?$AA@ 10077aa8     LIBCMT:undname.obj
 0002:0000dab4       ??_C@_0M@GAIFPFIP@protected?3?5?$AA@ 10077ab4     LIBCMT:undname.obj
 0002:0000dac0       ??_C@_09LAPHOOG@private?3?5?$AA@ 10077ac0     LIBCMT:undname.obj
 0002:0000dacc       ??_C@_08NIEOINHE@virtual?5?$AA@ 10077acc     LIBCMT:undname.obj
 0002:0000dad8       ??_C@_07PGOEDBHP@static?5?$AA@ 10077ad8     LIBCMT:undname.obj
 0002:0000dae0       ??_C@_0DA@HGFJFBBE@?$GAtemplate?5static?5data?5member?5des@ 10077ae0     LIBCMT:undname.obj
 0002:0000db10       ??_C@_0DB@ILEFOCIJ@?$GAtemplate?5static?5data?5member?5con@ 10077b10     LIBCMT:undname.obj
 0002:0000db44       ??_C@_0CB@KJDOOODE@?$GAlocal?5static?5destructor?5helper?8@ 10077b44     LIBCMT:undname.obj
 0002:0000db68       ??_C@_0L@HNGCOGAE@?$GAadjustor?$HL?$AA@ 10077b68     LIBCMT:undname.obj
 0002:0000db74       ??_C@_0L@GHPFDFH@?$GAvtordisp?$HL?$AA@ 10077b74     LIBCMT:undname.obj
 0002:0000db80       ??_C@_0N@CBHHHENL@?$GAvtordispex?$HL?$AA@ 10077b80     LIBCMT:undname.obj
 0002:0000db90       ??_C@_02IGFCGPIL@?$HN?8?$AA@ 10077b90     LIBCMT:undname.obj
 0002:0000db94       ??_C@_03OPGICMGF@?$HN?8?5?$AA@ 10077b94     LIBCMT:undname.obj
 0002:0000db98       ??_C@_06LIJLOJAG@const?5?$AA@ 10077b98     LIBCMT:undname.obj
 0002:0000dba0       ??_C@_09GAIEOBLP@volatile?5?$AA@ 10077ba0     LIBCMT:undname.obj
 0002:0000dbac       ??_C@_04HEJADOOB@CV?3?5?$AA@ 10077bac     LIBCMT:undname.obj
 0002:0000dbb4       ??_C@_08PABEKFH@volatile?$AA@ 10077bb4     LIBCMT:undname.obj
 0002:0000dbc0       ??_C@_09EFNPDFFP@?5volatile?$AA@ 10077bc0     LIBCMT:undname.obj
 0002:0000dbcc       ??_C@_05BNCCCJPP@const?$AA@ 10077bcc     LIBCMT:undname.obj
 0002:0000dbd4       ??_C@_07EDHNAJHC@signed?5?$AA@ 10077bd4     LIBCMT:undname.obj
 0002:0000dbdc       ??_C@_06BNJCAIGJ@double?$AA@ 10077bdc     LIBCMT:undname.obj
 0002:0000dbe4       ??_C@_04DDKJGDCM@bool?$AA@ 10077be4     LIBCMT:undname.obj
 0002:0000dbec       ??_C@_07CLGGIAMF@wchar_t?$AA@ 10077bec     LIBCMT:undname.obj
 0002:0000dbf4       ??_C@_07NFANNNEC@UNKNOWN?$AA@ 10077bf4     LIBCMT:undname.obj
 0002:0000dbfc       ??_C@_08GAHOLHEO@__int128?$AA@ 10077bfc     LIBCMT:undname.obj
 0002:0000dc08       ??_C@_07OFLPPHGP@__int32?$AA@ 10077c08     LIBCMT:undname.obj
 0002:0000dc10       ??_C@_07LFCOJCAC@__int64?$AA@ 10077c10     LIBCMT:undname.obj
 0002:0000dc18       ??_C@_07ICFHOGAF@__int16?$AA@ 10077c18     LIBCMT:undname.obj
 0002:0000dc20       ??_C@_06GCICPBLB@__w64?5?$AA@ 10077c20     LIBCMT:undname.obj
 0002:0000dc28       ??_C@_06EBGKOKIG@__int8?$AA@ 10077c28     LIBCMT:undname.obj
 0002:0000dc30       ??_C@_05KNFBNCOH@float?$AA@ 10077c30     LIBCMT:undname.obj
 0002:0000dc38       ??_C@_04GOKPGOLB@long?$AA@ 10077c38     LIBCMT:undname.obj
 0002:0000dc40       ??_C@_03JBIPMCLC@int?$AA@  10077c40     LIBCMT:undname.obj
 0002:0000dc44       ??_C@_05BFKKPKCG@short?$AA@ 10077c44     LIBCMT:undname.obj
 0002:0000dc4c       ??_C@_04ENMBGAPA@char?$AA@ 10077c4c     LIBCMT:undname.obj
 0002:0000dc54       ??_C@_0BI@DFKBFLJE@GetProcessWindowStation?$AA@ 10077c54     LIBCMT:crtmbox.obj
 0002:0000dc6c       ??_C@_0BK@CIDNPOGP@GetUserObjectInformationA?$AA@ 10077c6c     LIBCMT:crtmbox.obj
 0002:0000dc88       ??_C@_0BD@HHGDFDBJ@GetLastActivePopup?$AA@ 10077c88     LIBCMT:crtmbox.obj
 0002:0000dc9c       ??_C@_0BA@HNOPNCHB@GetActiveWindow?$AA@ 10077c9c     LIBCMT:crtmbox.obj
 0002:0000dcac       ??_C@_0M@CHKKJDAI@MessageBoxA?$AA@ 10077cac     LIBCMT:crtmbox.obj
 0002:0000dcb8       ??_C@_0L@NDEGIDAG@USER32?4DLL?$AA@ 10077cb8     LIBCMT:crtmbox.obj
 0002:0000dcc8       ___newctype                10077cc8     LIBCMT:ctype.obj
 0002:0000dfc8       __wctype                   10077fc8     LIBCMT:ctype.obj
 0002:0000e1d0       ___newclmap                100781d0     LIBCMT:ctype.obj
 0002:0000e350       ___newcumap                10078350     LIBCMT:ctype.obj
 0002:0000e4d0       ??_C@_0O@FMJNFNKE@united?9states?$AA@ 100784d0     LIBCMT:getqloc.obj
 0002:0000e4e0       ??_C@_0P@NDHFFKCA@united?9kingdom?$AA@ 100784e0     LIBCMT:getqloc.obj
 0002:0000e4f0       ??_C@_0BC@HHDADLGF@trinidad?5?$CG?5tobago?$AA@ 100784f0     LIBCMT:getqloc.obj
 0002:0000e504       ??_C@_0M@IOAEBDAC@south?9korea?$AA@ 10078504     LIBCMT:getqloc.obj
 0002:0000e510       ??_C@_0N@FIELFKIJ@south?9africa?$AA@ 10078510     LIBCMT:getqloc.obj
 0002:0000e520       ??_C@_0M@OPNDHCMC@south?5korea?$AA@ 10078520     LIBCMT:getqloc.obj
 0002:0000e52c       ??_C@_0N@MDEOEPFI@south?5africa?$AA@ 1007852c     LIBCMT:getqloc.obj
 0002:0000e53c       ??_C@_06FKAPCJLB@slovak?$AA@ 1007853c     LIBCMT:getqloc.obj
 0002:0000e544       ??_C@_0M@EFJANOAL@puerto?9rico?$AA@ 10078544     LIBCMT:getqloc.obj
 0002:0000e550       ??_C@_08PGOJKDAI@pr?9china?$AA@ 10078550     LIBCMT:getqloc.obj
 0002:0000e55c       ??_C@_08JHDOMCMI@pr?5china?$AA@ 1007855c     LIBCMT:getqloc.obj
 0002:0000e568       ??_C@_02JHCHFBLL@nz?$AA@   10078568     LIBCMT:getqloc.obj
 0002:0000e56c       ??_C@_0M@LINHDHKP@new?9zealand?$AA@ 1007856c     LIBCMT:getqloc.obj
 0002:0000e578       ??_C@_09IIIPPBDB@hong?9kong?$AA@ 10078578     LIBCMT:getqloc.obj
 0002:0000e584       ??_C@_07HJLCKBG@holland?$AA@ 10078584     LIBCMT:getqloc.obj
 0002:0000e58c       ??_C@_0O@LEHGMHAG@great?5britain?$AA@ 1007858c     LIBCMT:getqloc.obj
 0002:0000e59c       ??_C@_07FACOMELA@england?$AA@ 1007859c     LIBCMT:getqloc.obj
 0002:0000e5a4       ??_C@_05JIHCEICB@czech?$AA@ 100785a4     LIBCMT:getqloc.obj
 0002:0000e5ac       ??_C@_05BBJOBLGB@china?$AA@ 100785ac     LIBCMT:getqloc.obj
 0002:0000e5b4       ??_C@_07GPKPHICP@britain?$AA@ 100785b4     LIBCMT:getqloc.obj
 0002:0000e5bc       ??_C@_07MHIPBHMG@america?$AA@ 100785bc     LIBCMT:getqloc.obj
 0002:0000e5c4       ??_C@_03KIALPMKC@usa?$AA@  100785c4     LIBCMT:getqloc.obj
 0002:0000e5c8       ??_C@_02FGJGKGGD@us?$AA@   100785c8     LIBCMT:getqloc.obj
 0002:0000e5cc       ??_C@_02NEINDODK@uk?$AA@   100785cc     LIBCMT:getqloc.obj
 0002:0000e5d0       ??_C@_05JMPCFJFJ@swiss?$AA@ 100785d0     LIBCMT:getqloc.obj
 0002:0000e5d8       ??_C@_0BA@HLOCPIOD@swedish?9finland?$AA@ 100785d8     LIBCMT:getqloc.obj
 0002:0000e5e8       ??_C@_0BC@PKCNIABK@spanish?9venezuela?$AA@ 100785e8     LIBCMT:getqloc.obj
 0002:0000e5fc       ??_C@_0BA@GBHHMIJI@spanish?9uruguay?$AA@ 100785fc     LIBCMT:getqloc.obj
 0002:0000e60c       ??_C@_0BE@BHDOHPMC@spanish?9puerto?5rico?$AA@ 1007860c     LIBCMT:getqloc.obj
 0002:0000e620       ??_C@_0N@KMOIDGGN@spanish?9peru?$AA@ 10078620     LIBCMT:getqloc.obj
 0002:0000e630       ??_C@_0BB@HMHLPGPH@spanish?9paraguay?$AA@ 10078630     LIBCMT:getqloc.obj
 0002:0000e644       ??_C@_0P@MCPKNGFD@spanish?9panama?$AA@ 10078644     LIBCMT:getqloc.obj
 0002:0000e654       ??_C@_0BC@IHOHGAIL@spanish?9nicaragua?$AA@ 10078654     LIBCMT:getqloc.obj
 0002:0000e668       ??_C@_0P@KLMJDNFJ@spanish?9modern?$AA@ 10078668     LIBCMT:getqloc.obj
 0002:0000e678       ??_C@_0BA@BPAPGBCM@spanish?9mexican?$AA@ 10078678     LIBCMT:getqloc.obj
 0002:0000e688       ??_C@_0BB@PDECHHHE@spanish?9honduras?$AA@ 10078688     LIBCMT:getqloc.obj
 0002:0000e69c       ??_C@_0BC@KLHKFGDB@spanish?9guatemala?$AA@ 1007869c     LIBCMT:getqloc.obj
 0002:0000e6b0       ??_C@_0BE@MFOOKJAI@spanish?9el?5salvador?$AA@ 100786b0     LIBCMT:getqloc.obj
 0002:0000e6c4       ??_C@_0BA@FCOKFPFC@spanish?9ecuador?$AA@ 100786c4     LIBCMT:getqloc.obj
 0002:0000e6d4       ??_C@_0BL@PLMGIMOO@spanish?9dominican?5republic?$AA@ 100786d4     LIBCMT:getqloc.obj
 0002:0000e6f0       ??_C@_0BD@HLGDNMHB@spanish?9costa?5rica?$AA@ 100786f0     LIBCMT:getqloc.obj
 0002:0000e704       ??_C@_0BB@PKCBKCPE@spanish?9colombia?$AA@ 10078704     LIBCMT:getqloc.obj
 0002:0000e718       ??_C@_0O@MCBIJGNE@spanish?9chile?$AA@ 10078718     LIBCMT:getqloc.obj
 0002:0000e728       ??_C@_0BA@BEFEIGJJ@spanish?9bolivia?$AA@ 10078728     LIBCMT:getqloc.obj
 0002:0000e738       ??_C@_0BC@EMECMPD@spanish?9argentina?$AA@ 10078738     LIBCMT:getqloc.obj
 0002:0000e74c       ??_C@_0BF@EALFLENP@portuguese?9brazilian?$AA@ 1007874c     LIBCMT:getqloc.obj
 0002:0000e764       ??_C@_0BC@HBLEBLNN@norwegian?9nynorsk?$AA@ 10078764     LIBCMT:getqloc.obj
 0002:0000e778       ??_C@_0BB@HMACDDCK@norwegian?9bokmal?$AA@ 10078778     LIBCMT:getqloc.obj
 0002:0000e78c       ??_C@_09BAFFPPHE@norwegian?$AA@ 1007878c     LIBCMT:getqloc.obj
 0002:0000e798       ??_C@_0O@EAJFJDFG@italian?9swiss?$AA@ 10078798     LIBCMT:getqloc.obj
 0002:0000e7a8       ??_C@_0O@CNOMPGD@irish?9english?$AA@ 100787a8     LIBCMT:getqloc.obj
 0002:0000e7b8       ??_C@_0N@EDHBGCKG@german?9swiss?$AA@ 100787b8     LIBCMT:getqloc.obj
 0002:0000e7c8       ??_C@_0BC@JACMHNBP@german?9luxembourg?$AA@ 100787c8     LIBCMT:getqloc.obj
 0002:0000e7dc       ??_C@_0BE@HBGMGFEG@german?9lichtenstein?$AA@ 100787dc     LIBCMT:getqloc.obj
 0002:0000e7f0       ??_C@_0BA@HKKBIBKL@german?9austrian?$AA@ 100787f0     LIBCMT:getqloc.obj
 0002:0000e800       ??_C@_0N@GCAEPEBK@french?9swiss?$AA@ 10078800     LIBCMT:getqloc.obj
 0002:0000e810       ??_C@_0BC@DJFJJCK@french?9luxembourg?$AA@ 10078810     LIBCMT:getqloc.obj
 0002:0000e824       ??_C@_0BA@NNCEDFIC@french?9canadian?$AA@ 10078824     LIBCMT:getqloc.obj
 0002:0000e834       ??_C@_0P@CMPOCLM@french?9belgian?$AA@ 10078834     LIBCMT:getqloc.obj
 0002:0000e844       ??_C@_0M@GHHDJOK@english?9usa?$AA@ 10078844     LIBCMT:getqloc.obj
 0002:0000e850       ??_C@_0L@PLDJKEIL@english?9us?$AA@ 10078850     LIBCMT:getqloc.obj
 0002:0000e85c       ??_C@_0L@HJCCDMNC@english?9uk?$AA@ 1007885c     LIBCMT:getqloc.obj
 0002:0000e868       ??_C@_0BK@CKLIAGJB@english?9trinidad?5y?5tobago?$AA@ 10078868     LIBCMT:getqloc.obj
 0002:0000e884       ??_C@_0BF@JMJMGNNF@english?9south?5africa?$AA@ 10078884     LIBCMT:getqloc.obj
 0002:0000e89c       ??_C@_0L@DKIIFDFD@english?9nz?$AA@ 1007889c     LIBCMT:getqloc.obj
 0002:0000e8a8       ??_C@_0BA@ONHGJCLH@english?9jamaica?$AA@ 100788a8     LIBCMT:getqloc.obj
 0002:0000e8b8       ??_C@_0M@HJBGHOPO@english?9ire?$AA@ 100788b8     LIBCMT:getqloc.obj
 0002:0000e8c4       ??_C@_0BC@LFEKMIFB@english?9caribbean?$AA@ 100788c4     LIBCMT:getqloc.obj
 0002:0000e8d8       ??_C@_0M@OLDPFKHI@english?9can?$AA@ 100788d8     LIBCMT:getqloc.obj
 0002:0000e8e4       ??_C@_0P@OMDEHBMP@english?9belize?$AA@ 100788e4     LIBCMT:getqloc.obj
 0002:0000e8f4       ??_C@_0M@KFHFPFED@english?9aus?$AA@ 100788f4     LIBCMT:getqloc.obj
 0002:0000e900       ??_C@_0BB@MNMBKDFE@english?9american?$AA@ 10078900     LIBCMT:getqloc.obj
 0002:0000e914       ??_C@_0O@KIDLNNBA@dutch?9belgian?$AA@ 10078914     LIBCMT:getqloc.obj
 0002:0000e924       ??_C@_0BE@JBKABBMH@chinese?9traditional?$AA@ 10078924     LIBCMT:getqloc.obj
 0002:0000e938       ??_C@_0BC@MJJMPKCG@chinese?9singapore?$AA@ 10078938     LIBCMT:getqloc.obj
 0002:0000e94c       ??_C@_0BD@FDKADDCP@chinese?9simplified?$AA@ 1007894c     LIBCMT:getqloc.obj
 0002:0000e960       ??_C@_0BB@DBEFDDME@chinese?9hongkong?$AA@ 10078960     LIBCMT:getqloc.obj
 0002:0000e974       ??_C@_07DHNMFMCI@chinese?$AA@ 10078974     LIBCMT:getqloc.obj
 0002:0000e97c       ??_C@_03FNDDCHI@chi?$AA@   1007897c     LIBCMT:getqloc.obj
 0002:0000e980       ??_C@_03BMMIADDJ@chh?$AA@  10078980     LIBCMT:getqloc.obj
 0002:0000e984       ??_C@_08OAIPJDGI@canadian?$AA@ 10078984     LIBCMT:getqloc.obj
 0002:0000e990       ??_C@_07HBPMNPNJ@belgian?$AA@ 10078990     LIBCMT:getqloc.obj
 0002:0000e998       ??_C@_0L@OEKOPBEL@australian?$AA@ 10078998     LIBCMT:getqloc.obj
 0002:0000e9a4       ??_C@_0BB@MEIMBEDG@american?9english?$AA@ 100789a4     LIBCMT:getqloc.obj
 0002:0000e9b8       ??_C@_0BB@DFMDPDGB@american?5english?$AA@ 100789b8     LIBCMT:getqloc.obj
 0002:0000e9cc       ??_C@_08IJLOKOLL@american?$AA@ 100789cc     LIBCMT:getqloc.obj
 0002:0000e9d8       ___rg_language             100789d8     LIBCMT:getqloc.obj
 0002:0000ebe0       ___rg_country              10078be0     LIBCMT:getqloc.obj
 0002:0000ec98       ___rglangidNotDefault      10078c98     LIBCMT:getqloc.obj
 0002:0000ecac       ??_C@_03NFKLAGEF@OCP?$AA@  10078cac     LIBCMT:getqloc.obj
 0002:0000ecb0       ??_C@_03DFHEHBHG@ACP?$AA@  10078cb0     LIBCMT:getqloc.obj
 0002:0000ecb4       ??_C@_0BC@NFIEMBLL@Norwegian?9Nynorsk?$AA@ 10078cb4     LIBCMT:getqloc.obj
 0002:0000ecc8       ___lookuptable_s           10078cc8     LIBCMT:outputs.obj
 0002:0000ed24       ??_C@_0BC@JEAENNKH@SystemFunction036?$AA@ 10078d24     LIBCMT:rand_s.obj
 0002:0000ed38       ??_C@_0N@JJPEKNFO@ADVAPI32?4DLL?$AA@ 10078d38     LIBCMT:rand_s.obj
 0002:0000ed48       ??_C@_0CG@PKBDLMEO@InitializeCriticalSectionAndSpin@ 10078d48     LIBCMT:initcrit.obj
 0002:0000ed70       ??_C@_0N@MDJJJHMB@kernel32?4dll?$AA@ 10078d70     LIBCMT:initcrit.obj
 0002:0000ed80       ??_C@_0L@KDOEJCKC@_nextafter?$AA@ 10078d80     LIBCMT:fpexcept.obj
 0002:0000ed8c       ??_C@_05JGDBENOH@_logb?$AA@ 10078d8c     LIBCMT:fpexcept.obj
 0002:0000ed94       ??_C@_03ONILCKOB@_yn?$AA@  10078d94     LIBCMT:fpexcept.obj
 0002:0000ed98       ??_C@_03NAKIGLHK@_y1?$AA@  10078d98     LIBCMT:fpexcept.obj
 0002:0000ed9c       ??_C@_03MJLDFKDL@_y0?$AA@  10078d9c     LIBCMT:fpexcept.obj
 0002:0000eda0       ??_C@_05GKKHEGJL@frexp?$AA@ 10078da0     LIBCMT:fpexcept.obj
 0002:0000eda8       ??_C@_04KEPJIHGP@fmod?$AA@ 10078da8     LIBCMT:fpexcept.obj
 0002:0000edb0       ??_C@_06MEIMCGCF@_hypot?$AA@ 10078db0     LIBCMT:fpexcept.obj
 0002:0000edb8       ??_C@_05KBKMEMPO@_cabs?$AA@ 10078db8     LIBCMT:fpexcept.obj
 0002:0000edc0       ??_C@_05CEJMAHNP@ldexp?$AA@ 10078dc0     LIBCMT:fpexcept.obj
 0002:0000edc8       ??_C@_04ODHECPBC@fabs?$AA@ 10078dc8     LIBCMT:fpexcept.obj
 0002:0000edd0       ??_C@_04EIAKFFMI@sqrt?$AA@ 10078dd0     LIBCMT:fpexcept.obj
 0002:0000edd8       ??_C@_05KNGEOGJB@atan2?$AA@ 10078dd8     LIBCMT:fpexcept.obj
 0002:0000ede0       ??_C@_04FJHINJAO@tanh?$AA@ 10078de0     LIBCMT:fpexcept.obj
 0002:0000ede8       ??_C@_04HPJJNFIM@cosh?$AA@ 10078de8     LIBCMT:fpexcept.obj
 0002:0000edf0       ??_C@_04COOMCNPB@sinh?$AA@ 10078df0     LIBCMT:fpexcept.obj
 0002:0000edf8       ??_C@_06IMKFLFPG@1?$CDQNAN?$AA@ 10078df8     LIBCMT:x10fout.obj
 0002:0000ee00       ??_C@_05DNEBIAHO@1?$CDINF?$AA@ 10078e00     LIBCMT:x10fout.obj
 0002:0000ee08       ??_C@_05PHHOCPM@1?$CDIND?$AA@ 10078e08     LIBCMT:x10fout.obj
 0002:0000ee10       ??_C@_06PGGFOGJG@1?$CDSNAN?$AA@ 10078e10     LIBCMT:x10fout.obj
 0002:0000ee18       ??_C@_06GDENEHCP@CONIN$?$AA@ 10078e18     LIBCMT:initcon.obj
 0002:0000ee20       ??_C@_07GPDNMNG@CONOUT$?$AA@ 10078e20     LIBCMT:initcon.obj
 0002:0000ee2c       ??_7_Locimp@locale@std@@6B@ 10078e2c     libcpmt:locale0.obj
 0002:0000ee30       ?_BADOFF@std@@3JB          10078e30     libcpmt:ios.obj
 0002:0000ee38       ??_7invalid_argument@std@@6B@ 10078e38     libcpmt:string.obj
 0002:0000ee44       ??_7out_of_range@std@@6B@  10078e44     libcpmt:string.obj
 0002:0000ee4c       ??_C@_0BA@JFNIOLAK@string?5too?5long?$AA@ 10078e4c     libcpmt:string.obj
 0002:0000ee5c       ??_C@_0BI@CFPLBAOH@invalid?5string?5position?$AA@ 10078e5c     libcpmt:string.obj
 0002:0000ee74       ??_C@_0BI@ILCMCLF@invalid?5string?5argument?$AA@ 10078e74     libcpmt:string.obj
 0002:0000ee8c       ??_C@_13BPINEIPE@?$AAr?$AA?$AA@ 10078e8c     libcpmt:fiopen.obj
 0002:0000eecc       ??_C@_13CIFDLIMG@?$AAw?$AA?$AA@ 10078ecc     libcpmt:fiopen.obj
 0002:0000eed0       ??_C@_13FNCBLAIF@?$AAa?$AA?$AA@ 10078ed0     libcpmt:fiopen.obj
 0002:0000eed4       ??_C@_15JJPIMNBO@?$AAr?$AAb?$AA?$AA@ 10078ed4     libcpmt:fiopen.obj
 0002:0000eedc       ??_C@_15MJDFFMKN@?$AAw?$AAb?$AA?$AA@ 10078edc     libcpmt:fiopen.obj
 0002:0000eee4       ??_C@_15BMLKLNCL@?$AAa?$AAb?$AA?$AA@ 10078ee4     libcpmt:fiopen.obj
 0002:0000eeec       ??_C@_15HPOENKKJ@?$AAr?$AA?$CL?$AA?$AA@ 10078eec     libcpmt:fiopen.obj
 0002:0000eef4       ??_C@_15CPCJELBK@?$AAw?$AA?$CL?$AA?$AA@ 10078ef4     libcpmt:fiopen.obj
 0002:0000eefc       ??_C@_15PKKGKKJM@?$AAa?$AA?$CL?$AA?$AA@ 10078efc     libcpmt:fiopen.obj
 0002:0000ef04       ??_C@_17IIOMHMAG@?$AAr?$AA?$CL?$AAb?$AA?$AA@ 10078f04     libcpmt:fiopen.obj
 0002:0000ef0c       ??_C@_17MAAMHCGC@?$AAw?$AA?$CL?$AAb?$AA?$AA@ 10078f0c     libcpmt:fiopen.obj
 0002:0000ef14       ??_C@_17HKNIEKMO@?$AAa?$AA?$CL?$AAb?$AA?$AA@ 10078f14     libcpmt:fiopen.obj
 0002:0000ef80       __load_config_used         10078f80     LIBCMT:loadcfg.obj
 0002:0000f040       ??_R4IConCommandBaseAccessor@@6B@ 10079040     serverplugin_convar.obj
 0002:0000f054       ??_R3IConCommandBaseAccessor@@8 10079054     serverplugin_convar.obj
 0002:0000f064       ??_R2IConCommandBaseAccessor@@8 10079064     serverplugin_convar.obj
 0002:0000f06c       ??_R1A@?0A@EA@IConCommandBaseAccessor@@8 1007906c     serverplugin_convar.obj
 0002:0000f088       ??_R4CPluginConVarAccessor@@6B@ 10079088     serverplugin_convar.obj
 0002:0000f09c       ??_R3CPluginConVarAccessor@@8 1007909c     serverplugin_convar.obj
 0002:0000f0ac       ??_R2CPluginConVarAccessor@@8 100790ac     serverplugin_convar.obj
 0002:0000f0b8       ??_R1A@?0A@EA@CPluginConVarAccessor@@8 100790b8     serverplugin_convar.obj
 0002:0000f0d4       ??_R4bad_alloc@std@@6B@    100790d4     API.obj
 0002:0000f0e8       ??_R3bad_alloc@std@@8      100790e8     API.obj
 0002:0000f0f8       ??_R2bad_alloc@std@@8      100790f8     API.obj
 0002:0000f104       ??_R1A@?0A@EA@bad_alloc@std@@8 10079104     API.obj
 0002:0000f120       ??_R1A@?0A@EA@exception@std@@8 10079120     API.obj
 0002:0000f13c       ??_R3exception@std@@8      1007913c     API.obj
 0002:0000f14c       ??_R2exception@std@@8      1007914c     API.obj
 0002:0000f154       ??_R4facet@locale@std@@6B@ 10079154     API.obj
 0002:0000f168       ??_R3facet@locale@std@@8   10079168     API.obj
 0002:0000f178       ??_R2facet@locale@std@@8   10079178     API.obj
 0002:0000f180       ??_R1A@?0A@EA@facet@locale@std@@8 10079180     API.obj
 0002:0000f19c       ??_R4ctype_base@std@@6B@   1007919c     API.obj
 0002:0000f1b0       ??_R3ctype_base@std@@8     100791b0     API.obj
 0002:0000f1c0       ??_R2ctype_base@std@@8     100791c0     API.obj
 0002:0000f1cc       ??_R1A@?0A@EA@ctype_base@std@@8 100791cc     API.obj
 0002:0000f1e8       ??_R4ios_base@std@@6B@     100791e8     API.obj
 0002:0000f1fc       ??_R3ios_base@std@@8       100791fc     API.obj
 0002:0000f20c       ??_R2ios_base@std@@8       1007920c     API.obj
 0002:0000f218       ??_R1A@?0A@EA@ios_base@std@@8 10079218     API.obj
 0002:0000f234       ??_R13?0A@EA@?$_Iosb@H@std@@8 10079234     API.obj
 0002:0000f250       ??_R3?$_Iosb@H@std@@8      10079250     API.obj
 0002:0000f260       ??_R2?$_Iosb@H@std@@8      10079260     API.obj
 0002:0000f268       ??_R1A@?0A@EA@?$_Iosb@H@std@@8 10079268     API.obj
 0002:0000f284       ??_R4?$basic_ostream@DU?$char_traits@D@std@@@std@@6B@ 10079284     API.obj
 0002:0000f298       ??_R3?$basic_ostream@DU?$char_traits@D@std@@@std@@8 10079298     API.obj
 0002:0000f2a8       ??_R2?$basic_ostream@DU?$char_traits@D@std@@@std@@8 100792a8     API.obj
 0002:0000f2bc       ??_R1A@?0A@EA@?$basic_ostream@DU?$char_traits@D@std@@@std@@8 100792bc     API.obj
 0002:0000f2d8       ??_R1A@A@3FA@?$basic_ios@DU?$char_traits@D@std@@@std@@8 100792d8     API.obj
 0002:0000f2f4       ??_R3?$basic_ios@DU?$char_traits@D@std@@@std@@8 100792f4     API.obj
 0002:0000f304       ??_R2?$basic_ios@DU?$char_traits@D@std@@@std@@8 10079304     API.obj
 0002:0000f314       ??_R1A@?0A@EA@?$basic_ios@DU?$char_traits@D@std@@@std@@8 10079314     API.obj
 0002:0000f330       ??_R1A@A@3EA@ios_base@std@@8 10079330     API.obj
 0002:0000f34c       ??_R13A@3EA@?$_Iosb@H@std@@8 1007934c     API.obj
 0002:0000f368       ??_R4?$basic_ios@DU?$char_traits@D@std@@@std@@6B@ 10079368     API.obj
 0002:0000f37c       ??_R4?$basic_streambuf@DU?$char_traits@D@std@@@std@@6B@ 1007937c     API.obj
 0002:0000f390       ??_R3?$basic_streambuf@DU?$char_traits@D@std@@@std@@8 10079390     API.obj
 0002:0000f3a0       ??_R2?$basic_streambuf@DU?$char_traits@D@std@@@std@@8 100793a0     API.obj
 0002:0000f3a8       ??_R1A@?0A@EA@?$basic_streambuf@DU?$char_traits@D@std@@@std@@8 100793a8     API.obj
 0002:0000f3c4       ??_R4?$basic_stringbuf@DU?$char_traits@D@std@@V?$allocator@D@2@@std@@6B@ 100793c4     API.obj
 0002:0000f3d8       ??_R3?$basic_stringbuf@DU?$char_traits@D@std@@V?$allocator@D@2@@std@@8 100793d8     API.obj
 0002:0000f3e8       ??_R2?$basic_stringbuf@DU?$char_traits@D@std@@V?$allocator@D@2@@std@@8 100793e8     API.obj
 0002:0000f3f4       ??_R1A@?0A@EA@?$basic_stringbuf@DU?$char_traits@D@std@@V?$allocator@D@2@@std@@8 100793f4     API.obj
 0002:0000f410       ??_R4?$basic_ostringstream@DU?$char_traits@D@std@@V?$allocator@D@2@@std@@6B@ 10079410     API.obj
 0002:0000f424       ??_R3?$basic_ostringstream@DU?$char_traits@D@std@@V?$allocator@D@2@@std@@8 10079424     API.obj
 0002:0000f434       ??_R2?$basic_ostringstream@DU?$char_traits@D@std@@V?$allocator@D@2@@std@@8 10079434     API.obj
 0002:0000f44c       ??_R1A@?0A@EA@?$basic_ostringstream@DU?$char_traits@D@std@@V?$allocator@D@2@@std@@8 1007944c     API.obj
 0002:0000f468       ??_R4runtime_error@std@@6B@ 10079468     API.obj
 0002:0000f47c       ??_R3runtime_error@std@@8  1007947c     API.obj
 0002:0000f48c       ??_R2runtime_error@std@@8  1007948c     API.obj
 0002:0000f498       ??_R1A@?0A@EA@runtime_error@std@@8 10079498     API.obj
 0002:0000f4b4       ??_R4failure@ios_base@std@@6B@ 100794b4     API.obj
 0002:0000f4c8       ??_R3failure@ios_base@std@@8 100794c8     API.obj
 0002:0000f4d8       ??_R2failure@ios_base@std@@8 100794d8     API.obj
 0002:0000f4e8       ??_R1A@?0A@EA@failure@ios_base@std@@8 100794e8     API.obj
 0002:0000f504       ??_R4?$ctype@D@std@@6B@    10079504     API.obj
 0002:0000f518       ??_R3?$ctype@D@std@@8      10079518     API.obj
 0002:0000f528       ??_R2?$ctype@D@std@@8      10079528     API.obj
 0002:0000f538       ??_R1A@?0A@EA@?$ctype@D@std@@8 10079538     API.obj
 0002:0000f554       ??_R4CSSMatchApiException@@6B@ 10079554     API.obj
 0002:0000f568       ??_R3CSSMatchApiException@@8 10079568     API.obj
 0002:0000f578       ??_R2CSSMatchApiException@@8 10079578     API.obj
 0002:0000f584       ??_R1A@?0A@EA@CSSMatchApiException@@8 10079584     API.obj
 0002:0000f5a0       ??_R4?$num_put@DV?$ostreambuf_iterator@DU?$char_traits@D@std@@@std@@@std@@6B@ 100795a0     API.obj
 0002:0000f5b4       ??_R3?$num_put@DV?$ostreambuf_iterator@DU?$char_traits@D@std@@@std@@@std@@8 100795b4     API.obj
 0002:0000f5c4       ??_R2?$num_put@DV?$ostreambuf_iterator@DU?$char_traits@D@std@@@std@@@std@@8 100795c4     API.obj
 0002:0000f5d0       ??_R1A@?0A@EA@?$num_put@DV?$ostreambuf_iterator@DU?$char_traits@D@std@@@std@@@std@@8 100795d0     API.obj
 0002:0000f5ec       ??_R4?$numpunct@D@std@@6B@ 100795ec     API.obj
 0002:0000f600       ??_R3?$numpunct@D@std@@8   10079600     API.obj
 0002:0000f610       ??_R2?$numpunct@D@std@@8   10079610     API.obj
 0002:0000f61c       ??_R1A@?0A@EA@?$numpunct@D@std@@8 1007961c     API.obj
 0002:0000f638       ??_R4IRecipientFilter@@6B@ 10079638     MRecipientFilter.obj
 0002:0000f64c       ??_R3IRecipientFilter@@8   1007964c     MRecipientFilter.obj
 0002:0000f65c       ??_R2IRecipientFilter@@8   1007965c     MRecipientFilter.obj
 0002:0000f664       ??_R1A@?0A@EA@IRecipientFilter@@8 10079664     MRecipientFilter.obj
 0002:0000f680       ??_R4MRecipientFilter@@6B@ 10079680     MRecipientFilter.obj
 0002:0000f694       ??_R3MRecipientFilter@@8   10079694     MRecipientFilter.obj
 0002:0000f6a4       ??_R2MRecipientFilter@@8   100796a4     MRecipientFilter.obj
 0002:0000f6b0       ??_R1A@?0A@EA@MRecipientFilter@@8 100796b0     MRecipientFilter.obj
 0002:0000f6cc       ??_R4logic_error@std@@6B@  100796cc     Match.obj
 0002:0000f6e0       ??_R3logic_error@std@@8    100796e0     Match.obj
 0002:0000f6f0       ??_R2logic_error@std@@8    100796f0     Match.obj
 0002:0000f6fc       ??_R1A@?0A@EA@logic_error@std@@8 100796fc     Match.obj
 0002:0000f718       ??_R4length_error@std@@6B@ 10079718     Match.obj
 0002:0000f72c       ??_R3length_error@std@@8   1007972c     Match.obj
 0002:0000f73c       ??_R2length_error@std@@8   1007973c     Match.obj
 0002:0000f74c       ??_R1A@?0A@EA@length_error@std@@8 1007974c     Match.obj
 0002:0000f768       ??_R4CSSMatchMatchException@@6B@ 10079768     Match.obj
 0002:0000f77c       ??_R3CSSMatchMatchException@@8 1007977c     Match.obj
 0002:0000f78c       ??_R2CSSMatchMatchException@@8 1007978c     Match.obj
 0002:0000f798       ??_R1A@?0A@EA@CSSMatchMatchException@@8 10079798     Match.obj
 0002:0000f7b4       ??_R4CSSMatchConfigurationException@@6B@ 100797b4     Configuration.obj
 0002:0000f7c8       ??_R3CSSMatchConfigurationException@@8 100797c8     Configuration.obj
 0002:0000f7d8       ??_R2CSSMatchConfigurationException@@8 100797d8     Configuration.obj
 0002:0000f7e4       ??_R1A@?0A@EA@CSSMatchConfigurationException@@8 100797e4     Configuration.obj
 0002:0000f800       ??_R4IGameEventListener2@@6B@ 10079800     CSSMatch.obj
 0002:0000f814       ??_R3IGameEventListener2@@8 10079814     CSSMatch.obj
 0002:0000f824       ??_R2IGameEventListener2@@8 10079824     CSSMatch.obj
 0002:0000f82c       ??_R1A@?0A@EA@IGameEventListener2@@8 1007982c     CSSMatch.obj
 0002:0000f848       ??_R4IServerPluginCallbacks@@6B@ 10079848     CSSMatch.obj
 0002:0000f85c       ??_R3IServerPluginCallbacks@@8 1007985c     CSSMatch.obj
 0002:0000f86c       ??_R2IServerPluginCallbacks@@8 1007986c     CSSMatch.obj
 0002:0000f874       ??_R1A@?0A@EA@IServerPluginCallbacks@@8 10079874     CSSMatch.obj
 0002:0000f890       ??_R4EventListener@@6B@    10079890     CSSMatch.obj
 0002:0000f8a4       ??_R3EventListener@@8      100798a4     CSSMatch.obj
 0002:0000f8b4       ??_R2EventListener@@8      100798b4     CSSMatch.obj
 0002:0000f8c0       ??_R1A@?0A@EA@EventListener@@8 100798c0     CSSMatch.obj
 0002:0000f8dc       ??_R4CSSMatch@@6B@         100798dc     CSSMatch.obj
 0002:0000f8f0       ??_R3CSSMatch@@8           100798f0     CSSMatch.obj
 0002:0000f900       ??_R2CSSMatch@@8           10079900     CSSMatch.obj
 0002:0000f90c       ??_R1A@?0A@EA@CSSMatch@@8  1007990c     CSSMatch.obj
 0002:0000f928       ??_R4CSSMatchTVException@@6B@ 10079928     EnregistrementTV.obj
 0002:0000f93c       ??_R3CSSMatchTVException@@8 1007993c     EnregistrementTV.obj
 0002:0000f94c       ??_R2CSSMatchTVException@@8 1007994c     EnregistrementTV.obj
 0002:0000f958       ??_R1A@?0A@EA@CSSMatchTVException@@8 10079958     EnregistrementTV.obj
 0002:0000f974       ??_R4codecvt_base@std@@6B@ 10079974     Menu.obj
 0002:0000f988       ??_R3codecvt_base@std@@8   10079988     Menu.obj
 0002:0000f998       ??_R2codecvt_base@std@@8   10079998     Menu.obj
 0002:0000f9a4       ??_R1A@?0A@EA@codecvt_base@std@@8 100799a4     Menu.obj
 0002:0000f9c0       ??_R4?$basic_istream@DU?$char_traits@D@std@@@std@@6B@ 100799c0     Menu.obj
 0002:0000f9d4       ??_R3?$basic_istream@DU?$char_traits@D@std@@@std@@8 100799d4     Menu.obj
 0002:0000f9e4       ??_R2?$basic_istream@DU?$char_traits@D@std@@@std@@8 100799e4     Menu.obj
 0002:0000f9f8       ??_R1A@?0A@EA@?$basic_istream@DU?$char_traits@D@std@@@std@@8 100799f8     Menu.obj
 0002:0000fa14       ??_R4?$basic_filebuf@DU?$char_traits@D@std@@@std@@6B@ 10079a14     Menu.obj
 0002:0000fa28       ??_R3?$basic_filebuf@DU?$char_traits@D@std@@@std@@8 10079a28     Menu.obj
 0002:0000fa38       ??_R2?$basic_filebuf@DU?$char_traits@D@std@@@std@@8 10079a38     Menu.obj
 0002:0000fa44       ??_R1A@?0A@EA@?$basic_filebuf@DU?$char_traits@D@std@@@std@@8 10079a44     Menu.obj
 0002:0000fa60       ??_R4CSSMatchMenuException@@6B@ 10079a60     Menu.obj
 0002:0000fa74       ??_R3CSSMatchMenuException@@8 10079a74     Menu.obj
 0002:0000fa84       ??_R2CSSMatchMenuException@@8 10079a84     Menu.obj
 0002:0000fa90       ??_R1A@?0A@EA@CSSMatchMenuException@@8 10079a90     Menu.obj
 0002:0000faac       ??_R4?$basic_ifstream@DU?$char_traits@D@std@@@std@@6B@ 10079aac     Menu.obj
 0002:0000fac0       ??_R3?$basic_ifstream@DU?$char_traits@D@std@@@std@@8 10079ac0     Menu.obj
 0002:0000fad0       ??_R2?$basic_ifstream@DU?$char_traits@D@std@@@std@@8 10079ad0     Menu.obj
 0002:0000fae8       ??_R1A@?0A@EA@?$basic_ifstream@DU?$char_traits@D@std@@@std@@8 10079ae8     Menu.obj
 0002:0000fb04       ??_R4?$codecvt@DDH@std@@6B@ 10079b04     Menu.obj
 0002:0000fb18       ??_R3?$codecvt@DDH@std@@8  10079b18     Menu.obj
 0002:0000fb28       ??_R2?$codecvt@DDH@std@@8  10079b28     Menu.obj
 0002:0000fb38       ??_R1A@?0A@EA@?$codecvt@DDH@std@@8 10079b38     Menu.obj
 0002:0000fb54       ??_R4Rapport@@6B@          10079b54     Rapport.obj
 0002:0000fb68       ??_R3Rapport@@8            10079b68     Rapport.obj
 0002:0000fb78       ??_R2Rapport@@8            10079b78     Rapport.obj
 0002:0000fb80       ??_R1A@?0A@EA@Rapport@@8   10079b80     Rapport.obj
 0002:0000fb9c       ??_R4RapportXml@@6B@       10079b9c     RapportXml.obj
 0002:0000fbb0       ??_R3RapportXml@@8         10079bb0     RapportXml.obj
 0002:0000fbc0       ??_R2RapportXml@@8         10079bc0     RapportXml.obj
 0002:0000fbcc       ??_R1A@?0A@EA@RapportXml@@8 10079bcc     RapportXml.obj
 0002:0000fbe8       ??_R4?$basic_ofstream@DU?$char_traits@D@std@@@std@@6B@ 10079be8     RapportXml.obj
 0002:0000fbfc       ??_R3?$basic_ofstream@DU?$char_traits@D@std@@@std@@8 10079bfc     RapportXml.obj
 0002:0000fc0c       ??_R2?$basic_ofstream@DU?$char_traits@D@std@@@std@@8 10079c0c     RapportXml.obj
 0002:0000fc24       ??_R1A@?0A@EA@?$basic_ofstream@DU?$char_traits@D@std@@@std@@8 10079c24     RapportXml.obj
 0002:0000fc40       ??_R4?$basic_istringstream@DU?$char_traits@D@std@@V?$allocator@D@2@@std@@6B@ 10079c40     EventListener.obj
 0002:0000fc54       ??_R3?$basic_istringstream@DU?$char_traits@D@std@@V?$allocator@D@2@@std@@8 10079c54     EventListener.obj
 0002:0000fc64       ??_R2?$basic_istringstream@DU?$char_traits@D@std@@V?$allocator@D@2@@std@@8 10079c64     EventListener.obj
 0002:0000fc7c       ??_R1A@?0A@EA@?$basic_istringstream@DU?$char_traits@D@std@@V?$allocator@D@2@@std@@8 10079c7c     EventListener.obj
 0002:0000fc98       ??_R4CSSMatchPlayerPropException@@6B@ 10079c98     EventListener.obj
 0002:0000fcac       ??_R3CSSMatchPlayerPropException@@8 10079cac     EventListener.obj
 0002:0000fcbc       ??_R2CSSMatchPlayerPropException@@8 10079cbc     EventListener.obj
 0002:0000fcc8       ??_R1A@?0A@EA@CSSMatchPlayerPropException@@8 10079cc8     EventListener.obj
 0002:0000fce4       ??_R4SayHook@@6B@          10079ce4     SayHook.obj
 0002:0000fcf8       ??_R3SayHook@@8            10079cf8     SayHook.obj
 0002:0000fd08       ??_R2SayHook@@8            10079d08     SayHook.obj
 0002:0000fd18       ??_R1A@?0A@EA@SayHook@@8   10079d18     SayHook.obj
 0002:0000fd34       ??_R1A@?0A@EA@ConCommand@@8 10079d34     SayHook.obj
 0002:0000fd50       ??_R3ConCommand@@8         10079d50     SayHook.obj
 0002:0000fd60       ??_R2ConCommand@@8         10079d60     SayHook.obj
 0002:0000fd6c       ??_R1A@?0A@EA@ConCommandBase@@8 10079d6c     SayHook.obj
 0002:0000fd88       ??_R3ConCommandBase@@8     10079d88     SayHook.obj
 0002:0000fd98       ??_R2ConCommandBase@@8     10079d98     SayHook.obj
 0002:0000fda0       ??_R4SayTeamHook@@6B@      10079da0     SayTeamHook.obj
 0002:0000fdb4       ??_R3SayTeamHook@@8        10079db4     SayTeamHook.obj
 0002:0000fdc4       ??_R2SayTeamHook@@8        10079dc4     SayTeamHook.obj
 0002:0000fdd4       ??_R1A@?0A@EA@SayTeamHook@@8 10079dd4     SayTeamHook.obj
 0002:0000fdf0       ??_R4ConCommandBase@@6B@   10079df0     tier1:convar.obj
 0002:0000fe04       ??_R4ConVar@@6B@           10079e04     tier1:convar.obj
 0002:0000fe18       ??_R3ConVar@@8             10079e18     tier1:convar.obj
 0002:0000fe28       ??_R2ConVar@@8             10079e28     tier1:convar.obj
 0002:0000fe34       ??_R1A@?0A@EA@ConVar@@8    10079e34     tier1:convar.obj
 0002:0000fe50       ??_R4ConCommand@@6B@       10079e50     tier1:convar.obj
 0002:0000fe64       ??_R4type_info@@6B@        10079e64     LIBCMT:typinfo.obj
 0002:0000fe78       ??_R3type_info@@8          10079e78     LIBCMT:typinfo.obj
 0002:0000fe88       ??_R2type_info@@8          10079e88     LIBCMT:typinfo.obj
 0002:0000fe90       ??_R1A@?0A@EA@type_info@@8 10079e90     LIBCMT:typinfo.obj
 0002:0000feac       ??_R4exception@std@@6B@    10079eac     LIBCMT:stdexcpt.obj
 0002:0000fec0       ??_R4bad_cast@std@@6B@     10079ec0     LIBCMT:stdexcpt.obj
 0002:0000fed4       ??_R3bad_cast@std@@8       10079ed4     LIBCMT:stdexcpt.obj
 0002:0000fee4       ??_R2bad_cast@std@@8       10079ee4     LIBCMT:stdexcpt.obj
 0002:0000fef0       ??_R1A@?0A@EA@bad_cast@std@@8 10079ef0     LIBCMT:stdexcpt.obj
 0002:0000ff0c       ??_R4bad_typeid@std@@6B@   10079f0c     LIBCMT:stdexcpt.obj
 0002:0000ff20       ??_R3bad_typeid@std@@8     10079f20     LIBCMT:stdexcpt.obj
 0002:0000ff30       ??_R2bad_typeid@std@@8     10079f30     LIBCMT:stdexcpt.obj
 0002:0000ff3c       ??_R1A@?0A@EA@bad_typeid@std@@8 10079f3c     LIBCMT:stdexcpt.obj
 0002:0000ff58       ??_R4__non_rtti_object@std@@6B@ 10079f58     LIBCMT:stdexcpt.obj
 0002:0000ff6c       ??_R3__non_rtti_object@std@@8 10079f6c     LIBCMT:stdexcpt.obj
 0002:0000ff7c       ??_R2__non_rtti_object@std@@8 10079f7c     LIBCMT:stdexcpt.obj
 0002:0000ff8c       ??_R1A@?0A@EA@__non_rtti_object@std@@8 10079f8c     LIBCMT:stdexcpt.obj
 0002:0000ffa8       ??_R4bad_exception@std@@6B@ 10079fa8     LIBCMT:frame.obj
 0002:0000ffbc       ??_R3bad_exception@std@@8  10079fbc     LIBCMT:frame.obj
 0002:0000ffcc       ??_R2bad_exception@std@@8  10079fcc     LIBCMT:frame.obj
 0002:0000ffd8       ??_R1A@?0A@EA@bad_exception@std@@8 10079fd8     LIBCMT:frame.obj
 0002:0000fff4       ??_R4DNameNode@@6B@        10079ff4     LIBCMT:undname.obj
 0002:00010008       ??_R3DNameNode@@8          1007a008     LIBCMT:undname.obj
 0002:00010018       ??_R2DNameNode@@8          1007a018     LIBCMT:undname.obj
 0002:00010020       ??_R1A@?0A@EA@DNameNode@@8 1007a020     LIBCMT:undname.obj
 0002:0001003c       ??_R4charNode@@6B@         1007a03c     LIBCMT:undname.obj
 0002:00010050       ??_R3charNode@@8           1007a050     LIBCMT:undname.obj
 0002:00010060       ??_R2charNode@@8           1007a060     LIBCMT:undname.obj
 0002:0001006c       ??_R1A@?0A@EA@charNode@@8  1007a06c     LIBCMT:undname.obj
 0002:00010088       ??_R4pDNameNode@@6B@       1007a088     LIBCMT:undname.obj
 0002:0001009c       ??_R3pDNameNode@@8         1007a09c     LIBCMT:undname.obj
 0002:000100ac       ??_R2pDNameNode@@8         1007a0ac     LIBCMT:undname.obj
 0002:000100b8       ??_R1A@?0A@EA@pDNameNode@@8 1007a0b8     LIBCMT:undname.obj
 0002:000100d4       ??_R4DNameStatusNode@@6B@  1007a0d4     LIBCMT:undname.obj
 0002:000100e8       ??_R3DNameStatusNode@@8    1007a0e8     LIBCMT:undname.obj
 0002:000100f8       ??_R2DNameStatusNode@@8    1007a0f8     LIBCMT:undname.obj
 0002:00010104       ??_R1A@?0A@EA@DNameStatusNode@@8 1007a104     LIBCMT:undname.obj
 0002:00010120       ??_R4pcharNode@@6B@        1007a120     LIBCMT:undname.obj
 0002:00010134       ??_R3pcharNode@@8          1007a134     LIBCMT:undname.obj
 0002:00010144       ??_R2pcharNode@@8          1007a144     LIBCMT:undname.obj
 0002:00010150       ??_R1A@?0A@EA@pcharNode@@8 1007a150     LIBCMT:undname.obj
 0002:0001016c       ??_R4_Locimp@locale@std@@6B@ 1007a16c     libcpmt:locale0.obj
 0002:00010180       ??_R3_Locimp@locale@std@@8 1007a180     libcpmt:locale0.obj
 0002:00010190       ??_R2_Locimp@locale@std@@8 1007a190     libcpmt:locale0.obj
 0002:0001019c       ??_R1A@?0A@EA@_Locimp@locale@std@@8 1007a19c     libcpmt:locale0.obj
 0002:000101b8       ??_R4invalid_argument@std@@6B@ 1007a1b8     libcpmt:string.obj
 0002:000101cc       ??_R3invalid_argument@std@@8 1007a1cc     libcpmt:string.obj
 0002:000101dc       ??_R2invalid_argument@std@@8 1007a1dc     libcpmt:string.obj
 0002:000101ec       ??_R1A@?0A@EA@invalid_argument@std@@8 1007a1ec     libcpmt:string.obj
 0002:00010208       ??_R4out_of_range@std@@6B@ 1007a208     libcpmt:string.obj
 0002:0001021c       ??_R3out_of_range@std@@8   1007a21c     libcpmt:string.obj
 0002:0001022c       ??_R2out_of_range@std@@8   1007a22c     libcpmt:string.obj
 0002:0001023c       ??_R1A@?0A@EA@out_of_range@std@@8 1007a23c     libcpmt:string.obj
 0002:00010260       ___safe_se_handler_table   1007a260     <linker-defined>
 0002:00010760       ___rtc_iaa                 1007a760     LIBCMT:initsect.obj
 0002:00010764       ___rtc_izz                 1007a764     LIBCMT:initsect.obj
 0002:00010768       ___rtc_taa                 1007a768     LIBCMT:initsect.obj
 0002:0001076c       ___rtc_tzz                 1007a76c     LIBCMT:initsect.obj
 0002:000107c8       __TI2?AVbad_alloc@std@@    1007a7c8     API.obj
 0002:000107d8       __CTA2?AVbad_alloc@std@@   1007a7d8     API.obj
 0002:000107e4       __CT??_R0?AVbad_alloc@std@@@8??0bad_alloc@std@@QAE@ABV01@@Z12 1007a7e4     API.obj
 0002:00010800       __CT??_R0?AVexception@std@@@8??0exception@std@@QAE@ABV01@@Z12 1007a800     API.obj
 0002:00010a38       __TI2?AVruntime_error@std@@ 1007aa38     API.obj
 0002:00010a9c       __CTA2?AVruntime_error@std@@ 1007aa9c     API.obj
 0002:00010aa8       __CT??_R0?AVruntime_error@std@@@8??0runtime_error@std@@QAE@ABV01@@Z40 1007aaa8     API.obj
 0002:00010b48       __TI3?AVfailure@ios_base@std@@ 1007ab48     API.obj
 0002:00010b94       __CTA3?AVfailure@ios_base@std@@ 1007ab94     API.obj
 0002:00010ba4       __CT??_R0?AVfailure@ios_base@std@@@8??0failure@ios_base@std@@QAE@ABV012@@Z40 1007aba4     API.obj
 0002:00010c30       __TI2?AVCSSMatchApiException@@ 1007ac30     API.obj
 0002:00010c74       __CTA2?AVCSSMatchApiException@@ 1007ac74     API.obj
 0002:00010c80       __CT??_R0?AVCSSMatchApiException@@@8??0CSSMatchApiException@@QAE@ABV0@@Z40 1007ac80     API.obj
 0002:00011168       __TI2?AVbad_cast@std@@     1007b168     API.obj
 0002:000111a4       __CTA2?AVbad_cast@std@@    1007b1a4     API.obj
 0002:000111b0       __CT??_R0?AVbad_cast@std@@@8??0bad_cast@std@@QAE@ABV01@@Z12 1007b1b0     API.obj
 0002:00011e88       __TI3?AVlength_error@std@@ 1007be88     Match.obj
 0002:00011ec4       __CTA3?AVlength_error@std@@ 1007bec4     Match.obj
 0002:00011ed4       __CT??_R0?AVlength_error@std@@@8??0length_error@std@@QAE@ABV01@@Z40 1007bed4     Match.obj
 0002:00011ef0       __CT??_R0?AVlogic_error@std@@@8??0logic_error@std@@QAE@ABV01@@Z40 1007bef0     Match.obj
 0002:00012010       __TI2?AVCSSMatchMatchException@@ 1007c010     Match.obj
 0002:0001204c       __CTA2?AVCSSMatchMatchException@@ 1007c04c     Match.obj
 0002:00012058       __CT??_R0?AVCSSMatchMatchException@@@8??0CSSMatchMatchException@@QAE@ABV0@@Z40 1007c058     Match.obj
 0002:00012994       __TI2?AVCSSMatchConfigurationException@@ 1007c994     Configuration.obj
 0002:000129f0       __CTA2?AVCSSMatchConfigurationException@@ 1007c9f0     Configuration.obj
 0002:000129fc       __CT??_R0?AVCSSMatchConfigurationException@@@8??0CSSMatchConfigurationException@@QAE@ABV0@@Z40 1007c9fc     Configuration.obj
 0002:00012e4c       __TI2?AVCSSMatchTVException@@ 1007ce4c     EnregistrementTV.obj
 0002:00012eb0       __CTA2?AVCSSMatchTVException@@ 1007ceb0     EnregistrementTV.obj
 0002:00012ebc       __CT??_R0?AVCSSMatchTVException@@@8??0CSSMatchTVException@@QAE@ABV0@@Z40 1007cebc     EnregistrementTV.obj
 0002:00013208       __TI2?AVCSSMatchMenuException@@ 1007d208     Menu.obj
 0002:0001324c       __CTA2?AVCSSMatchMenuException@@ 1007d24c     Menu.obj
 0002:00013258       __CT??_R0?AVCSSMatchMenuException@@@8??0CSSMatchMenuException@@QAE@ABV0@@Z40 1007d258     Menu.obj
 0002:00015bd0       __TI2?AVCSSMatchPlayerPropException@@ 1007fbd0     EventListener.obj
 0002:00015c70       __CTA2?AVCSSMatchPlayerPropException@@ 1007fc70     EventListener.obj
 0002:00015c7c       __CT??_R0?AVCSSMatchPlayerPropException@@@8??0CSSMatchPlayerPropException@@QAE@ABV0@@Z40 1007fc7c     EventListener.obj
 0002:0001688c       __TI2?AVbad_exception@std@@ 1008088c     LIBCMT:frame.obj
 0002:0001689c       __CTA2?AVbad_exception@std@@ 1008089c     LIBCMT:frame.obj
 0002:000168a8       __CT??_R0?AVbad_exception@std@@@8??0bad_exception@std@@QAE@ABV01@@Z12 100808a8     LIBCMT:frame.obj
 0002:00017084       __TI3?AVout_of_range@std@@ 10081084     libcpmt:string.obj
 0002:000170c0       __CTA3?AVout_of_range@std@@ 100810c0     libcpmt:string.obj
 0002:000170d0       __CT??_R0?AVout_of_range@std@@@8??0out_of_range@std@@QAE@ABV01@@Z40 100810d0     libcpmt:string.obj
 0002:000170ec       __TI3?AVinvalid_argument@std@@ 100810ec     libcpmt:string.obj
 0002:00017128       __CTA3?AVinvalid_argument@std@@ 10081128     libcpmt:string.obj
 0002:00017138       __CT??_R0?AVinvalid_argument@std@@@8??0invalid_argument@std@@QAE@ABV01@@Z40 10081138     libcpmt:string.obj
 0002:00017274       __IMPORT_DESCRIPTOR_KERNEL32 10081274     kernel32:KERNEL32.dll
 0002:00017288       __IMPORT_DESCRIPTOR_tier0  10081288     tier0:tier0.dll
 0002:0001729c       __IMPORT_DESCRIPTOR_vstdlib 1008129c     vstdlib:vstdlib.dll
 0002:000172b0       __NULL_IMPORT_DESCRIPTOR   100812b0     kernel32:KERNEL32.dll
 0003:00000000       __amblksiz                 10082000     memoverride.obj
 0003:00000004       __crtheap                  10082004     memoverride.obj
 0003:00000008       ___active_heap             10082008     memoverride.obj
 0003:0000000c       __crtDbgFlag               1008200c     memoverride.obj
 0003:00000010       __crtAssertBusy            10082010     memoverride.obj
 0003:00000014       ??_R0?AVIConCommandBaseAccessor@@@8 10082014     serverplugin_convar.obj
 0003:0000003c       ??_R0?AVCPluginConVarAccessor@@@8 1008203c     serverplugin_convar.obj
 0003:00000060       ?g_ConVarAccessor@@3VCPluginConVarAccessor@@A 10082060     serverplugin_convar.obj
 0003:00000068       ?maxplayers@Api@@2HA       10082068     API.obj
 0003:00000078       ??_R0?AVbad_alloc@std@@@8  10082078     API.obj
 0003:00000094       ??_R0?AVexception@std@@@8  10082094     API.obj
 0003:000000b0       ??_R0?AVfacet@locale@std@@@8 100820b0     API.obj
 0003:000000d0       ??_R0?AUctype_base@std@@@8 100820d0     API.obj
 0003:000000f0       ??_R0?AVios_base@std@@@8   100820f0     API.obj
 0003:0000010c       ??_R0?AV?$_Iosb@H@std@@@8  1008210c     API.obj
 0003:00000128       ??_R0?AV?$basic_ostream@DU?$char_traits@D@std@@@std@@@8 10082128     API.obj
 0003:00000164       ??_R0?AV?$basic_ios@DU?$char_traits@D@std@@@std@@@8 10082164     API.obj
 0003:0000019c       ??_R0?AV?$basic_streambuf@DU?$char_traits@D@std@@@std@@@8 1008219c     API.obj
 0003:000001d8       ??_R0?AV?$basic_stringbuf@DU?$char_traits@D@std@@V?$allocator@D@2@@std@@@8 100821d8     API.obj
 0003:00000228       ??_R0?AV?$basic_ostringstream@DU?$char_traits@D@std@@V?$allocator@D@2@@std@@@8 10082228     API.obj
 0003:0000027c       ??_R0?AVruntime_error@std@@@8 1008227c     API.obj
 0003:0000029c       ??_R0?AVfailure@ios_base@std@@@8 1008229c     API.obj
 0003:000002c0       ??_R0?AV?$ctype@D@std@@@8  100822c0     API.obj
 0003:000002dc       ??_R0?AVCSSMatchApiException@@@8 100822dc     API.obj
 0003:00000300       ??_R0?AVbad_cast@std@@@8   10082300     API.obj
 0003:00000320       ??_R0?AV?$num_put@DV?$ostreambuf_iterator@DU?$char_traits@D@std@@@std@@@std@@@8 10082320     API.obj
 0003:00000374       ??_R0?AV?$numpunct@D@std@@@8 10082374     API.obj
 0003:000003a4       ??_R0?AVIRecipientFilter@@@8 100823a4     MRecipientFilter.obj
 0003:000003c4       ??_R0?AVMRecipientFilter@@@8 100823c4     MRecipientFilter.obj
 0003:000003f4       ??_R0?AVlogic_error@std@@@8 100823f4     Match.obj
 0003:00000414       ??_R0?AVlength_error@std@@@8 10082414     Match.obj
 0003:00000434       ??_R0?AVCSSMatchMatchException@@@8 10082434     Match.obj
 0003:0000045c       ??_R0?AVCSSMatchTVException@@@8 1008245c     Match.obj
 0003:00000480       ??_R0?AVCSSMatchConfigurationException@@@8 10082480     Match.obj
 0003:000004d0       ??_R0?AVIGameEventListener2@@@8 100824d0     CSSMatch.obj
 0003:000004f4       ??_R0?AVIServerPluginCallbacks@@@8 100824f4     CSSMatch.obj
 0003:0000051c       ??_R0?AVEventListener@@@8  1008251c     CSSMatch.obj
 0003:00000538       ??_R0?AVCSSMatch@@@8       10082538     CSSMatch.obj
 0003:000005a0       ??_R0?AVcodecvt_base@std@@@8 100825a0     Menu.obj
 0003:000005c0       ??_R0?AV?$basic_istream@DU?$char_traits@D@std@@@std@@@8 100825c0     Menu.obj
 0003:000005fc       ??_R0?AV?$basic_filebuf@DU?$char_traits@D@std@@@std@@@8 100825fc     Menu.obj
 0003:00000638       ??_R0?AVCSSMatchMenuException@@@8 10082638     Menu.obj
 0003:0000065c       ??_R0?AV?$basic_ifstream@DU?$char_traits@D@std@@@std@@@8 1008265c     Menu.obj
 0003:00000698       ??_R0?AV?$codecvt@DDH@std@@@8 10082698     Menu.obj
 0003:00000758       ??_R0?AVRapport@@@8        10082758     Rapport.obj
 0003:00000780       ??_R0?AVRapportXml@@@8     10082780     RapportXml.obj
 0003:0000079c       ??_R0?AV?$basic_ofstream@DU?$char_traits@D@std@@@std@@@8 1008279c     RapportXml.obj
 0003:000007e8       ??_R0?AV?$basic_istringstream@DU?$char_traits@D@std@@V?$allocator@D@2@@std@@@8 100827e8     EventListener.obj
 0003:0000083c       ??_R0?AVCSSMatchPlayerPropException@@@8 1008283c     EventListener.obj
 0003:00000878       ??_R0?AVSayHook@@@8        10082878     SayHook.obj
 0003:00000890       ??_R0?AVConCommand@@@8     10082890     SayHook.obj
 0003:000008ac       ??_R0?AVConCommandBase@@@8 100828ac     SayHook.obj
 0003:000008dc       ??_R0?AVSayTeamHook@@@8    100828dc     SayTeamHook.obj
 0003:00000908       _pfSqrt                    10082908     mathlib:mathlib_base.obj
 0003:0000090c       ?pfRSqrt@@3P6AMM@ZA        1008290c     mathlib:mathlib_base.obj
 0003:00000910       ?pfRSqrtFast@@3P6AMM@ZA    10082910     mathlib:mathlib_base.obj
 0003:00000914       ?pfVectorNormalize@@3P6IMAAVVector@@@ZA 10082914     mathlib:mathlib_base.obj
 0003:00000918       ?pfVectorNormalizeFast@@3P6IXAAVVector@@@ZA 10082918     mathlib:mathlib_base.obj
 0003:0000091c       ?pfInvRSquared@@3P6AMPBM@ZA 1008291c     mathlib:mathlib_base.obj
 0003:00000920       ?pfFastSinCos@@3P6AXMPAM0@ZA 10082920     mathlib:mathlib_base.obj
 0003:00000924       ?pfFastCos@@3P6AMM@ZA      10082924     mathlib:mathlib_base.obj
 0003:00000930       ?vec3_invalid@@3VVector@@B 10082930     mathlib:mathlib_base.obj
 0003:00000944       ??_R0?AVConVar@@@8         10082944     tier1:convar.obj
 0003:00000970       ___security_cookie         10082970     LIBCMT:gs_cookie.obj
 0003:00000974       ___security_cookie_complement 10082974     LIBCMT:gs_cookie.obj
 0003:00000984       ??_R0?AVtype_info@@@8      10082984     LIBCMT:typinfo.obj
 0003:000009a4       ??_R0?AVbad_typeid@std@@@8 100829a4     LIBCMT:stdexcpt.obj
 0003:000009c4       ??_R0?AV__non_rtti_object@std@@@8 100829c4     LIBCMT:stdexcpt.obj
 0003:000009e8       __fltused                  100829e8     LIBCMT:fpinit.obj
 0003:000009ec       __ldused                   100829ec     LIBCMT:fpinit.obj
 0003:000009f0       ?__pMyUnhandledExceptionFilter@@3PAXA 100829f0     LIBCMT:throw.obj
 0003:000009f4       ___lconv_static_decimal    100829f4     LIBCMT:lconv.obj
 0003:000009f8       ___lconv_c                 100829f8     LIBCMT:lconv.obj
 0003:00000a28       ___lconv                   10082a28     LIBCMT:lconv.obj
 0003:00000a30       ___lc_time_c               10082a30     LIBCMT:strftime.obj
 0003:00000ae8       ___lc_time_curr            10082ae8     LIBCMT:strftime.obj
 0003:00000b20       __OP_FMODjmptab            10082b20     LIBCMT:87fmod.obj
 0003:00000b80       __half                     10082b80     LIBCMT:pow.obj
 0003:00000bb8       ??_R0?AVbad_exception@std@@@8 10082bb8     LIBCMT:frame.obj
 0003:00000bd8       ___flsindex                10082bd8     LIBCMT:tidtable.obj
 0003:00000bdc       ___getvalueindex           10082bdc     LIBCMT:tidtable.obj
 0003:00000be0       ___nullstring              10082be0     LIBCMT:output.obj
 0003:00000be4       ___wnullstring             10082be4     LIBCMT:output.obj
 0003:00000d60       ___abort_behavior          10082d60     LIBCMT:abort.obj
 0003:00000e20       __cfltcvt_tab              10082e20     LIBCMT:cmiscdat.obj
 0003:00000e4c       ___globallocalestatus      10082e4c     LIBCMT:glstatus.obj
 0003:00000e50       ___clocalestr              10082e50     LIBCMT:nlsdata2.obj
 0003:00000e58       ___initiallocinfo          10082e58     LIBCMT:nlsdata2.obj
 0003:00000f30       ___ptlocinfo               10082f30     LIBCMT:nlsdata2.obj
 0003:00000f34       ___lc_clike                10082f34     LIBCMT:nlsdata2.obj
 0003:00000f38       ___initiallocalestructinfo 10082f38     LIBCMT:nlsdata2.obj
 0003:00000f40       __lpdays                   10082f40     LIBCMT:days.obj
 0003:00000f74       __days                     10082f74     LIBCMT:days.obj
 0003:00000fc8       __timezone                 10082fc8     LIBCMT:timeset.obj
 0003:00000fcc       __daylight                 10082fcc     LIBCMT:timeset.obj
 0003:00000fd0       __dstbias                  10082fd0     LIBCMT:timeset.obj
 0003:00001058       __tzname                   10083058     LIBCMT:timeset.obj
 0003:00001060       ___initialmbcinfo          10083060     LIBCMT:mbctype.obj
 0003:00001280       __mbctype                  10083280     LIBCMT:mbctype.obj
 0003:00001388       __mbcasemap                10083388     LIBCMT:mbctype.obj
 0003:00001488       ___ptmbcinfo               10083488     LIBCMT:mbctype.obj
 0003:00001580       __aexit_rtn                10083580     LIBCMT:crt0dat.obj
 0003:00001588       __iob                      10083588     LIBCMT:_file.obj
 0003:00001808       ___badioinfo               10083808     LIBCMT:ioinit.obj
 0003:00001950       __XcptActTab               10083950     LIBCMT:winxfltr.obj
 0003:000019c8       __First_FPE_Indx           100839c8     LIBCMT:winxfltr.obj
 0003:000019cc       __Num_FPE                  100839cc     LIBCMT:winxfltr.obj
 0003:000019d0       __XcptActTabSize           100839d0     LIBCMT:winxfltr.obj
 0003:000019d4       __XcptActTabCount          100839d4     LIBCMT:winxfltr.obj
 0003:000019e0       __indefinite               100839e0     LIBCMT:87disp.obj
 0003:000019ea       __piby2                    100839ea     LIBCMT:87disp.obj
 0003:00001a10       __OP_ATAN2jmptab           10083a10     LIBCMT:87triga.obj
 0003:00001bc0       __infinity                 10083bc0     LIBCMT:87tran.obj
 0003:00001bca       __minfinity                10083bca     LIBCMT:87tran.obj
 0003:00001bd4       __logemax                  10083bd4     LIBCMT:87tran.obj
 0003:00001bfa       __OP_EXPjmptab             10083bfa     LIBCMT:87tran.obj
 0003:00001c30       __NLG_Destination          10083c30     LIBCMT:exsup.obj
 0003:00001c40       ??_R0?AVDNameNode@@@8      10083c40     LIBCMT:undname.obj
 0003:00001c58       ??_R0?AVcharNode@@@8       10083c58     LIBCMT:undname.obj
 0003:00001c70       ??_R0?AVpDNameNode@@@8     10083c70     LIBCMT:undname.obj
 0003:00001c8c       ??_R0?AVDNameStatusNode@@@8 10083c8c     LIBCMT:undname.obj
 0003:00001cac       ??_R0?AVpcharNode@@@8      10083cac     LIBCMT:undname.obj
 0003:00001cd0       __pctype                   10083cd0     LIBCMT:ctype.obj
 0003:00001cd4       __pwctype                  10083cd4     LIBCMT:ctype.obj
 0003:00001cd8       ___mb_cur_max              10083cd8     LIBCMT:nlsdata1.obj
 0003:00001cdc       ___decimal_point           10083cdc     LIBCMT:nlsdata1.obj
 0003:00001ce0       ___decimal_point_length    10083ce0     LIBCMT:nlsdata1.obj
 0003:00001cf0       __lookuptrailbytes         10083cf0     LIBCMT:read.obj
 0003:00001df8       __d_inf                    10083df8     LIBCMT:util.obj
 0003:00001e00       __d_ind                    10083e00     LIBCMT:util.obj
 0003:00001e08       __d_max                    10083e08     LIBCMT:util.obj
 0003:00001e10       __d_min                    10083e10     LIBCMT:util.obj
 0003:00001e18       __d_mzero                  10083e18     LIBCMT:util.obj
 0003:00001e20       __matherr_flag             10083e20     LIBCMT:matherr.obj
 0003:00001f60       __pow10pos                 10083f60     LIBCMT:constpow.obj
 0003:000020c0       __pow10neg                 100840c0     LIBCMT:constpow.obj
 0003:0000221c       __coninpfh                 1008421c     LIBCMT:initcon.obj
 0003:00002220       __confh                    10084220     LIBCMT:initcon.obj
 0003:00002238       ??_R0?AV_Locimp@locale@std@@@8 10084238     libcpmt:locale0.obj
 0003:00002260       ?_Sync@ios_base@std@@0_NA  10084260     libcpmt:ios.obj
 0003:00002268       ??_R0?AVinvalid_argument@std@@@8 10084268     libcpmt:string.obj
 0003:0000228c       ??_R0?AVout_of_range@std@@@8 1008428c     libcpmt:string.obj
 0003:00002300       ?_PJP_CPP_Copyright@@3PADA 10084300     libcpmt:iosptrs.obj
 0003:00002360       __crtBreakAlloc            10084360     memoverride.obj
 0003:00002364       ?_pfnDumpClient@@3P6AXPAXI@ZA 10084364     memoverride.obj
 0003:00002368       ___crtDebugCheckCount      10084368     memoverride.obj
 0003:0000236c       ___crtDebugFillThreshold   1008436c     memoverride.obj
 0003:0000278c       ?engine@Api@@2PAVIVEngineServer@@A 1008478c     API.obj
 0003:00002790       ?filesystem@Api@@2PAVIFileSystem@@A 10084790     API.obj
 0003:00002794       ?gameeventmanager@Api@@2PAVIGameEventManager2@@A 10084794     API.obj
 0003:00002798       ?playerinfomanager@Api@@2PAVIPlayerInfoManager@@A 10084798     API.obj
 0003:0000279c       ?helpers@Api@@2PAVIServerPluginHelpers@@A 1008479c     API.obj
 0003:000027a0       ?gpGlobals@Api@@2PAVCGlobalVars@@A 100847a0     API.obj
 0003:000027a4       ?cvars@Api@@2PAVICvar@@A   100847a4     API.obj
 0003:000027a8       ?serverDll@Api@@2PAVIServerGameDLL@@A 100847a8     API.obj
 0003:000027b4       ?_Psave@?$_Facetptr@V?$ctype@D@std@@@std@@2PBVfacet@locale@2@B 100847b4     API.obj
 0003:000027b8       ?_Psave@?$_Facetptr@V?$num_put@DV?$ostreambuf_iterator@DU?$char_traits@D@std@@@std@@@std@@@std@@2PBVfacet@locale@2@B 100847b8     API.obj
 0003:000027bc       ?_Psave@?$_Facetptr@V?$numpunct@D@std@@@std@@2PBVfacet@locale@2@B 100847bc     API.obj
 0003:000027c0       ?id@?$num_put@DV?$ostreambuf_iterator@DU?$char_traits@D@std@@@std@@@std@@2V0locale@2@A 100847c0     API.obj
 0003:000027c4       ?id@?$numpunct@D@std@@2V0locale@2@A 100847c4     API.obj
 0003:000027e0       ?instance@CSSMatch@@0PAV1@A 100847e0     CSSMatch.obj
 0003:000027ec       ?g_sayHook@@3VSayHook@@A   100847ec     CSSMatch.obj
 0003:00002824       ?g_sayTeamHook@@3VSayTeamHook@@A 10084824     CSSMatch.obj
 0003:00002850       ?sv_cheats@ConVars@@2PAVConVar@@A 10084850     ConVars.obj
 0003:00002854       ?sv_alltalk@ConVars@@2PAVConVar@@A 10084854     ConVars.obj
 0003:00002858       ?hostname@ConVars@@2PAVConVar@@A 10084858     ConVars.obj
 0003:0000285c       ?sv_password@ConVars@@2PAVConVar@@A 1008485c     ConVars.obj
 0003:00002860       ?tv_enable@ConVars@@2PAVConVar@@A 10084860     ConVars.obj
 0003:00002870       ?cssmatch_manches@ConVars@@2VConVar@@A 10084870     ConVars.obj
 0003:000028b8       ?cssmatch_end_manche@ConVars@@2VConVar@@A 100848b8     ConVars.obj
 0003:00002900       ?cssmatch_rounds@ConVars@@2VConVar@@A 10084900     ConVars.obj
 0003:00002948       ?cssmatch_sourcetv_path@ConVars@@2VConVar@@A 10084948     ConVars.obj
 0003:00002990       ?cssmatch_cutround@ConVars@@2VConVar@@A 10084990     ConVars.obj
 0003:000029d8       ?cssmatch_sourcetv@ConVars@@2VConVar@@A 100849d8     ConVars.obj
 0003:00002a20       ?cssmatch_password@ConVars@@2VConVar@@A 10084a20     ConVars.obj
 0003:00002a68       ?cssmatch_advanced@ConVars@@2VConVar@@A 10084a68     ConVars.obj
 0003:00002ab0       ?cssmatch_end_cutround@ConVars@@2VConVar@@A 10084ab0     ConVars.obj
 0003:00002af8       ?cssmatch_cutround_allows_c4@ConVars@@2VConVar@@A 10084af8     ConVars.obj
 0003:00002b40       ?cssmatch_hostname@ConVars@@2VConVar@@A 10084b40     ConVars.obj
 0003:00002b88       ?cssmatch_version@ConVars@@2VConVar@@A 10084b88     ConVars.obj
 0003:00002bd0       ?cssmatch_strats_time@ConVars@@2VConVar@@A 10084bd0     ConVars.obj
 0003:00002c18       ?cssmatch_default_config@ConVars@@2VConVar@@A 10084c18     ConVars.obj
 0003:00002c74       ?_Stinit@?1??_Init@?$basic_filebuf@DU?$char_traits@D@std@@@std@@IAEXPAU_iobuf@@W4_Initfl@23@@Z@4HA 10084c74     Menu.obj
 0003:00002c78       ?_Psave@?$_Facetptr@V?$codecvt@DDH@std@@@std@@2PBVfacet@locale@2@B 10084c78     Menu.obj
 0003:00002c84       ?retour@Menu@@0VLigne@@B   10084c84     Menu.obj
 0003:00002ca4       ?suivant@Menu@@0VLigne@@B  10084ca4     Menu.obj
 0003:00002cc4       ?id@?$codecvt@DDH@std@@2V0locale@2@A 10084cc4     Menu.obj
 0003:00002cf0       ?menus@GestionMenus@@0PAV1@A 10084cf0     GestionMenus.obj
 0003:00002cfc       ?phase_cutround@GestionMenus@@2VMenu@@A 10084cfc     GestionMenus.obj
 0003:00002d38       ?administration@GestionMenus@@2VMenu@@A 10084d38     GestionMenus.obj
 0003:00002d74       ?admin_ban@GestionMenus@@2VMenu@@A 10084d74     GestionMenus.obj
 0003:00002db0       ?admin_swap@GestionMenus@@2VMenu@@A 10084db0     GestionMenus.obj
 0003:00002dec       ?cutround_question@GestionMenus@@2VMenu@@A 10084dec     GestionMenus.obj
 0003:00002e28       ?strats_question@GestionMenus@@2VMenu@@A 10084e28     GestionMenus.obj
 0003:00002e64       ?admin_kick@GestionMenus@@2VMenu@@A 10084e64     GestionMenus.obj
 0003:00002ea0       ?admin_spec@GestionMenus@@2VMenu@@A 10084ea0     GestionMenus.obj
 0003:00002edc       ?admin_ban_time@GestionMenus@@2VMenu@@A 10084edc     GestionMenus.obj
 0003:00002f18       ?phase_off@GestionMenus@@2VMenu@@A 10084f18     GestionMenus.obj
 0003:00002f54       ?phase_strats@GestionMenus@@2VMenu@@A 10084f54     GestionMenus.obj
 0003:00002f90       ?admin_changelevel@GestionMenus@@2VMenu@@A 10084f90     GestionMenus.obj
 0003:00002fcc       ?configurations@GestionMenus@@2VMenu@@A 10084fcc     GestionMenus.obj
 0003:00003008       ?phase_match@GestionMenus@@2VMenu@@A 10085008     GestionMenus.obj
 0003:00003044       ?decompte@Decompte@@0PAV1@A 10085044     Decompte.obj
 0003:00003050       ?playerlist@GestionJoueurs@@0PAV1@A 10085050     GestionJoueurs.obj
 0003:00003668       ?lineartolightmap@@3PAEA   10085668     mathlib:mathlib_base.obj
 0003:00004a68       ?SinCosTable@@3PAMA        10086a68     mathlib:mathlib_base.obj
 0003:00006e68       ?power2_n@@3PAMA           10088e68     mathlib:mathlib_base.obj
 0003:00007668       ?lineartovertex@@3PAMA     10089668     mathlib:mathlib_base.obj
 0003:0000b778       ?vec3_origin@@3VVector@@B  1008d778     mathlib:mathlib_base.obj
 0003:0000b784       ?vec3_angle@@3VQAngle@@B   1008d784     mathlib:mathlib_base.obj
 0003:0000b794       ?s_pConCommandBases@ConCommandBase@@1PAV1@A 1008d794     tier1:convar.obj
 0003:0000b798       ?s_pAccessor@ConCommandBase@@1PAVIConCommandBaseAccessor@@A 1008d798     tier1:convar.obj
 0003:0000b79c       ?s_pInterfaceRegs@InterfaceReg@@2PAV1@A 1008d79c     tier1:interface.obj
 0003:0000b7a8       ?g_BitWriteMasks@@3PAY0CB@KA 1008d7a8     tier1:bitbuf.obj
 0003:0000c828       ?g_ExtraMasks@@3PAKA       1008e828     tier1:bitbuf.obj
 0003:0000c8b4       ?g_BitWriteMasksInit@@3VCBitWriteMasksInit@@A 1008e8b4     tier1:bitbuf.obj
 0003:0000cac4       ___fastflag                1008eac4     LIBCMT:fpinit.obj
 0003:0000cac8       __adjust_fdiv              1008eac8     LIBCMT:fpinit.obj
 0003:0000cacc       ___pInvalidArgHandler      1008eacc     LIBCMT:invarg.obj
 0003:0000cad0       ___lconv_static_null       1008ead0     LIBCMT:lconv.obj
 0003:0000cad8       __aenvptr                  1008ead8     LIBCMT:dllcrt0.obj
 0003:0000cadc       __wenvptr                  1008eadc     LIBCMT:dllcrt0.obj
 0003:0000cae0       ___error_mode              1008eae0     LIBCMT:dllcrt0.obj
 0003:0000cae4       ___app_type                1008eae4     LIBCMT:dllcrt0.obj
 0003:0000cae8       _gpFlsAlloc                1008eae8     LIBCMT:tidtable.obj
 0003:0000caec       _gpFlsGetValue             1008eaec     LIBCMT:tidtable.obj
 0003:0000caf0       _gpFlsSetValue             1008eaf0     LIBCMT:tidtable.obj
 0003:0000caf4       _gpFlsFree                 1008eaf4     LIBCMT:tidtable.obj
 0003:0000caf8       ?__pInconsistency@@3P6AXXZA 1008eaf8     LIBCMT:hooks.obj
 0003:0000d14c       ___pPurecall               1008f14c     LIBCMT:inithelp.obj
 0003:0000d158       ___locale_changed          1008f158     LIBCMT:setlocal.obj
 0003:0000d15c       ___lc_handle               1008f15c     LIBCMT:nlsdata2.obj
 0003:0000d174       ___lc_codepage             1008f174     LIBCMT:nlsdata2.obj
 0003:0000d178       ___lc_collate_cp           1008f178     LIBCMT:nlsdata2.obj
 0003:0000d23c       ___mbulinfo                1008f23c     LIBCMT:mbctype.obj
 0003:0000d248       ___mbcodepage              1008f248     LIBCMT:mbctype.obj
 0003:0000d24c       ___ismbcodepage            1008f24c     LIBCMT:mbctype.obj
 0003:0000d250       ___mblcid                  1008f250     LIBCMT:mbctype.obj
 0003:0000d254       __umaskval                 1008f254     LIBCMT:crt0dat.obj
 0003:0000d258       __osplatform               1008f258     LIBCMT:crt0dat.obj
 0003:0000d25c       __osver                    1008f25c     LIBCMT:crt0dat.obj
 0003:0000d260       __winver                   1008f260     LIBCMT:crt0dat.obj
 0003:0000d264       __winmajor                 1008f264     LIBCMT:crt0dat.obj
 0003:0000d268       __winminor                 1008f268     LIBCMT:crt0dat.obj
 0003:0000d26c       ___argc                    1008f26c     LIBCMT:crt0dat.obj
 0003:0000d270       ___argv                    1008f270     LIBCMT:crt0dat.obj
 0003:0000d274       ___wargv                   1008f274     LIBCMT:crt0dat.obj
 0003:0000d278       __environ                  1008f278     LIBCMT:crt0dat.obj
 0003:0000d27c       ___initenv                 1008f27c     LIBCMT:crt0dat.obj
 0003:0000d280       __wenviron                 1008f280     LIBCMT:crt0dat.obj
 0003:0000d284       ___winitenv                1008f284     LIBCMT:crt0dat.obj
 0003:0000d288       __pgmptr                   1008f288     LIBCMT:crt0dat.obj
 0003:0000d28c       __wpgmptr                  1008f28c     LIBCMT:crt0dat.obj
 0003:0000d290       __exitflag                 1008f290     LIBCMT:crt0dat.obj
 0003:0000d294       __C_Termination_Done       1008f294     LIBCMT:crt0dat.obj
 0003:0000d298       __C_Exit_Done              1008f298     LIBCMT:crt0dat.obj
 0003:0000d29c       __cflush                   1008f29c     LIBCMT:_file.obj
 0003:0000d51c       ?pArgList@UnDecorator@@0PAVReplicator@@A 1008f51c     LIBCMT:undname.obj
 0003:0000d520       ?pZNameList@UnDecorator@@0PAVReplicator@@A 1008f520     LIBCMT:undname.obj
 0003:0000d524       ?pTemplateArgList@UnDecorator@@0PAVReplicator@@A 1008f524     LIBCMT:undname.obj
 0003:0000d528       ?gName@UnDecorator@@0PBDB  1008f528     LIBCMT:undname.obj
 0003:0000d52c       ?name@UnDecorator@@0PBDB   1008f52c     LIBCMT:undname.obj
 0003:0000d530       ?outputString@UnDecorator@@0PADA 1008f530     LIBCMT:undname.obj
 0003:0000d534       ?maxStringLength@UnDecorator@@0HA 1008f534     LIBCMT:undname.obj
 0003:0000d538       ?disableFlags@UnDecorator@@0KA 1008f538     LIBCMT:undname.obj
 0003:0000d53c       ?m_pGetParameter@UnDecorator@@0P6APADJ@ZA 1008f53c     LIBCMT:undname.obj
 0003:0000d540       ?fExplicitTemplateParams@UnDecorator@@0_NA 1008f540     LIBCMT:undname.obj
 0003:0000d541       ?fGetTemplateArgumentList@UnDecorator@@0_NA 1008f541     LIBCMT:undname.obj
 0003:0000d574       __outputformat             1008f574     LIBCMT:outputformat.obj
 0003:0000d584       ?_pnhHeap@@3P6AHI@ZA       1008f584     LIBCMT:handler.obj
 0003:0000d588       __stdbuf                   1008f588     LIBCMT:_sftbuf.obj
 0003:0000d604       ?_Clocptr@_Locimp@locale@std@@0PAV123@A 1008f604     libcpmt:locale0.obj
 0003:0000d608       ?_Id_cnt@id@locale@std@@0HA 1008f608     libcpmt:locale0.obj
 0003:0000d60c       ?id@?$ctype@D@std@@2V0locale@2@A 1008f60c     libcpmt:locale0.obj
 0003:0000d610       ?id@?$codecvt@GDH@std@@2V0locale@2@A 1008f610     libcpmt:locale0.obj
 0003:0000d614       ?id@?$ctype@_W@std@@2V0locale@2@A 1008f614     libcpmt:locale0.obj
 0003:0000d618       ?id@?$codecvt@_WDH@std@@2V0locale@2@A 1008f618     libcpmt:locale0.obj
 0003:0000d620       ?id@?$ctype@G@std@@2V0locale@2@A 1008f620     libcpmt:locale0.obj
 0003:0000d628       ?_Fpz@std@@3_JA            1008f628     libcpmt:ios.obj
 0003:0000d630       ?_Index@ios_base@std@@0HA  1008f630     libcpmt:ios.obj
 0003:0000d760       ?_Ptr_cin@std@@3PAV?$basic_istream@DU?$char_traits@D@std@@@1@A 1008f760     libcpmt:iosptrs.obj
 0003:0000d764       ?_Ptr_cout@std@@3PAV?$basic_ostream@DU?$char_traits@D@std@@@1@A 1008f764     libcpmt:iosptrs.obj
 0003:0000d768       ?_Ptr_cerr@std@@3PAV?$basic_ostream@DU?$char_traits@D@std@@@1@A 1008f768     libcpmt:iosptrs.obj
 0003:0000d76c       ?_Ptr_clog@std@@3PAV?$basic_ostream@DU?$char_traits@D@std@@@1@A 1008f76c     libcpmt:iosptrs.obj
 0003:0000d770       ?_Ptr_wcin@std@@3PAV?$basic_istream@_WU?$char_traits@_W@std@@@1@A 1008f770     libcpmt:iosptrs.obj
 0003:0000d774       ?_Ptr_wcout@std@@3PAV?$basic_ostream@_WU?$char_traits@_W@std@@@1@A 1008f774     libcpmt:iosptrs.obj
 0003:0000d778       ?_Ptr_wcerr@std@@3PAV?$basic_ostream@_WU?$char_traits@_W@std@@@1@A 1008f778     libcpmt:iosptrs.obj
 0003:0000d77c       ?_Ptr_wclog@std@@3PAV?$basic_ostream@_WU?$char_traits@_W@std@@@1@A 1008f77c     libcpmt:iosptrs.obj
 0003:0000d7ac       __commode                  1008f7ac     LIBCMT:ncommode.obj
 0003:0000d7b0       __fmode                    1008f7b0     LIBCMT:txtmode.obj
 0003:0000d7b8       __pmatherr                 1008f7b8     <common>
 0003:0000d7bc       __nhandle                  1008f7bc     <common>
 0003:0000d7c0       ___pioinfo                 1008f7c0     <common>
 0003:0000d8c0       ___piob                    1008f8c0     <common>
 0003:0000d8e0       __bufin                    1008f8e0     <common>
 0003:0000e8e0       __nstream                  100908e0     <common>
 0003:0000e8e4       ___env_initialized         100908e4     <common>
 0003:0000e8e8       ___onexitend               100908e8     <common>
 0003:0000e8ec       ___onexitbegin             100908ec     <common>
 0003:0000e8f0       ___mbctype_initialized     100908f0     <common>
 0003:0000e8f4       ___dyn_tls_init_callback   100908f4     <common>
 0003:0000e8f8       ___setlc_active            100908f8     <common>
 0003:0000e8fc       ___unguarded_readlc_active 100908fc     <common>
 0003:0000e900       __debugger_hook_dummy      10090900     <common>
 0003:0000e904       ___use_sse2_mathfcns       10090904     <common>
 0003:0000e908       ___sse2_available          10090908     <common>
 0003:0000e90c       __acmdln                   1009090c     <common>

 entry point at        0001:0003a2c1

 Static symbols

 0001:fffff000       __unwindfunclet$??$use_facet@V?$ctype@D@std@@@std@@YAABV?$ctype@D@0@ABVlocale@0@@Z$0 10000000 f   Timer.obj
 0001:fffff000       __unwindfunclet$??0_Locinfo@std@@QAE@PBD@Z$0 10000000 f   Team.obj
 0001:fffff000       __ehhandler$?_Copy@?$basic_string@DU?$char_traits@D@std@@V?$allocator@D@2@@std@@IAEXII@Z 10000000 f   PlayerProp.obj
 0001:fffff000       __unwindfunclet$??$?HDU?$char_traits@D@std@@V?$allocator@D@1@@std@@YA?AV?$basic_string@DU?$char_traits@D@std@@V?$allocator@D@2@@0@ABV10@0@Z$0 10000000 f   PlayerProp.obj
 0001:fffff000       __unwindfunclet$??0runtime_error@std@@QAE@ABV?$basic_string@DU?$char_traits@D@std@@V?$allocator@D@2@@1@@Z$0 10000000 f   Team.obj
 0001:fffff000       __unwindfunclet$??$?HDU?$char_traits@D@std@@V?$allocator@D@1@@std@@YA?AV?$basic_string@DU?$char_traits@D@std@@V?$allocator@D@2@@0@ABV10@PBD@Z$0 10000000 f   PlayerProp.obj
 0001:fffff000       __unwindfunclet$??0runtime_error@std@@QAE@ABV01@@Z$0 10000000 f   Team.obj
 0001:fffff000       __unwindfunclet$??0?$ctype@D@std@@QAE@PBF_NI@Z$0 10000000 f   Team.obj
 0001:fffff000       __unwindfunclet$??0CSSMatchPlayerPropException@@QAE@ABV?$basic_string@DU?$char_traits@D@std@@V?$allocator@D@2@@std@@@Z$0 10000000 f   PlayerProp.obj
 0001:fffff000       __unwindfunclet$?_Getcat@?$ctype@D@std@@SAIPAPBVfacet@locale@2@@Z$0 10000000 f   Team.obj
 0001:fffff000       __ehhandler$?_Copy@?$basic_string@DU?$char_traits@D@std@@V?$allocator@D@2@@std@@IAEXII@Z 10000000 f   libcpmt:locale0.obj
 0001:fffff000       __unwindfunclet$??0?$num_put@DV?$ostreambuf_iterator@DU?$char_traits@D@std@@@std@@@std@@QAE@I@Z$0 10000000 f   Timer.obj
 0001:fffff000       __unwindfunclet$?clear@ios_base@std@@QAEXH_N@Z$0 10000000 f   Timer.obj
 0001:fffff000       __unwindfunclet$?clear@ios_base@std@@QAEXH_N@Z$0 10000000 f   Team.obj
 0001:fffff000       __unwindfunclet$??0logic_error@std@@QAE@ABV01@@Z$0 10000000 f   libcpmt:string.obj
 0001:fffff000       __unwindfunclet$??1_Locinfo@std@@QAE@XZ$0 10000000 f   Team.obj
 0001:fffff000       __unwindfunclet$??0CSSMatchPlayerPropException@@QAE@ABV0@@Z$0 10000000 f   PlayerProp.obj
 0001:fffff000       __unwindfunclet$??$use_facet@V?$ctype@D@std@@@std@@YAABV?$ctype@D@0@ABVlocale@0@@Z$0 10000000 f   Team.obj
 0001:fffff000       __unwindfunclet$??0logic_error@std@@QAE@ABV?$basic_string@DU?$char_traits@D@std@@V?$allocator@D@2@@1@@Z$0 10000000 f   libcpmt:string.obj
 0001:fffff000       __ehhandler$?_Copy@?$basic_string@DU?$char_traits@D@std@@V?$allocator@D@2@@std@@IAEXII@Z 10000000 f   libcpmt:string.obj
 0001:fffff000       __unwindfunclet$??0?$num_put@DV?$ostreambuf_iterator@DU?$char_traits@D@std@@@std@@@std@@QAE@I@Z$0 10000000 f   Team.obj
 0001:fffff000       __ehhandler$?_Init@?$numpunct@D@std@@IAEXABV_Locinfo@2@@Z 10000000 f   Team.obj
 0001:fffff000       __unwindfunclet$??0?$numpunct@D@std@@QAE@I@Z$0 10000000 f   Team.obj
 0001:fffff000       __unwindfunclet$??0?$basic_streambuf@DU?$char_traits@D@std@@@std@@IAE@XZ$0 10000000 f   SayTeamHook.obj
 0001:fffff000       __unwindfunclet$?widen@?$basic_ios@DU?$char_traits@D@std@@@std@@QBEDD@Z$0 10000000 f   Team.obj
 0001:fffff000       __unwindfunclet$??1?$basic_istringstream@DU?$char_traits@D@std@@V?$allocator@D@2@@std@@UAE@XZ$0 10000000 f   SayTeamHook.obj
 0001:fffff000       __unwindfunclet$?_Getcat@?$num_put@DV?$ostreambuf_iterator@DU?$char_traits@D@std@@@std@@@std@@SAIPAPBVfacet@locale@2@@Z$0 10000000 f   Team.obj
 0001:fffff000       __unwindfunclet$?_Getcat@?$ctype@D@std@@SAIPAPBVfacet@locale@2@@Z$0 10000000 f   Timer.obj
 0001:fffff000       __unwindfunclet$?_Getcat@?$numpunct@D@std@@SAIPAPBVfacet@locale@2@@Z$0 10000000 f   Team.obj
 0001:fffff000       __ehhandler$?_Copy@?$basic_string@DU?$char_traits@D@std@@V?$allocator@D@2@@std@@IAEXII@Z 10000000 f   SayTeamHook.obj
 0001:fffff000       __unwindfunclet$??0?$basic_stringbuf@DU?$char_traits@D@std@@V?$allocator@D@2@@std@@QAE@ABV?$basic_string@DU?$char_traits@D@std@@V?$allocator@D@2@@1@H@Z$0 10000000 f   SayTeamHook.obj
 0001:fffff000       __unwindfunclet$??0sentry@?$basic_ostream@DU?$char_traits@D@std@@@std@@QAE@AAV12@@Z$0 10000000 f   Team.obj
 0001:fffff000       __unwindfunclet$??0?$ctype@D@std@@QAE@PBF_NI@Z$0 10000000 f   Timer.obj
 0001:fffff000       __ehhandler$?_Osfx@?$basic_ostream@DU?$char_traits@D@std@@@std@@QAEXXZ 10000000 f   Team.obj
 0001:fffff000       __unwindfunclet$??$use_facet@V?$num_put@DV?$ostreambuf_iterator@DU?$char_traits@D@std@@@std@@@std@@@std@@YAABV?$num_put@DV?$ostreambuf_iterator@DU?$char_traits@D@std@@@std@@@0@ABVlocale@0@@Z$0 10000000 f   Team.obj
 0001:fffff000       __unwindfunclet$??$use_facet@V?$numpunct@D@std@@@std@@YAABV?$numpunct@D@0@ABVlocale@0@@Z$0 10000000 f   Team.obj
 0001:fffff000       __unwindfunclet$??1_Locinfo@std@@QAE@XZ$0 10000000 f   SayTeamHook.obj
 0001:fffff000       __unwindfunclet$??0runtime_error@std@@QAE@ABV01@@Z$0 10000000 f   Timer.obj
 0001:fffff000       __unwindfunclet$??0runtime_error@std@@QAE@ABV?$basic_string@DU?$char_traits@D@std@@V?$allocator@D@2@@1@@Z$0 10000000 f   SayTeamHook.obj
 0001:fffff000       __unwindfunclet$??0?$basic_ostream@DU?$char_traits@D@std@@@std@@QAE@PAV?$basic_streambuf@DU?$char_traits@D@std@@@1@_N@Z$0 10000000 f   Team.obj
 0001:fffff000       __unwindfunclet$??0_Locinfo@std@@QAE@PBD@Z$0 10000000 f   Timer.obj
 0001:fffff000       __unwindfunclet$??1sentry@?$basic_ostream@DU?$char_traits@D@std@@@std@@QAE@XZ$0 10000000 f   Team.obj
 0001:fffff000       __unwindfunclet$??0?$basic_stringbuf@DU?$char_traits@D@std@@V?$allocator@D@2@@std@@QAE@H@Z$0 10000000 f   Team.obj
 0001:fffff000       __unwindfunclet$?do_put@?$num_put@DV?$ostreambuf_iterator@DU?$char_traits@D@std@@@std@@@std@@MBE?AV?$ostreambuf_iterator@DU?$char_traits@D@std@@@2@V32@AAVios_base@2@D_N@Z$0 10000000 f   Team.obj
 0001:fffff000       __ehhandler$?_Copy@?$basic_string@DU?$char_traits@D@std@@V?$allocator@D@2@@std@@IAEXII@Z 10000000 f   Team.obj
 0001:fffff000       __unwindfunclet$??0_Locinfo@std@@QAE@PBD@Z$0 10000000 f   SayTeamHook.obj
 0001:fffff000       __unwindfunclet$?str@?$basic_stringbuf@DU?$char_traits@D@std@@V?$allocator@D@2@@std@@QBE?AV?$basic_string@DU?$char_traits@D@std@@V?$allocator@D@2@@2@XZ$0 10000000 f   Timer.obj
 0001:fffff000       __unwindfunclet$??0runtime_error@std@@QAE@ABV01@@Z$0 10000000 f   SayTeamHook.obj
 0001:fffff000       __unwindfunclet$?_Fput@?$num_put@DV?$ostreambuf_iterator@DU?$char_traits@D@std@@@std@@@std@@ABA?AV?$ostreambuf_iterator@DU?$char_traits@D@std@@@2@V32@AAVios_base@2@DPBDIIII@Z$0 10000000 f   Team.obj
 0001:fffff000       __unwindfunclet$??0?$ctype@D@std@@QAE@PBF_NI@Z$0 10000000 f   SayTeamHook.obj
 0001:fffff000       __unwindfunclet$?_Iput@?$num_put@DV?$ostreambuf_iterator@DU?$char_traits@D@std@@@std@@@std@@ABA?AV?$ostreambuf_iterator@DU?$char_traits@D@std@@@2@V32@AAVios_base@2@DPADI@Z$0 10000000 f   Team.obj
 0001:fffff000       __unwindfunclet$?_Getcat@?$ctype@D@std@@SAIPAPBVfacet@locale@2@@Z$0 10000000 f   SayTeamHook.obj
 0001:fffff000       __unwindfunclet$??$?6U?$char_traits@D@std@@@std@@YAAAV?$basic_ostream@DU?$char_traits@D@std@@@0@AAV10@PBD@Z$2 10000000 f   Team.obj
 0001:fffff000       __unwindfunclet$??6?$basic_ostream@DU?$char_traits@D@std@@@std@@QAEAAV01@H@Z$2 10000000 f   Team.obj
 0001:fffff000       __unwindfunclet$??1?$basic_ostringstream@DU?$char_traits@D@std@@V?$allocator@D@2@@std@@UAE@XZ$0 10000000 f   Team.obj
 0001:fffff000       __unwindfunclet$?clear@ios_base@std@@QAEXH_N@Z$0 10000000 f   SayTeamHook.obj
 0001:fffff000       __unwindfunclet$??0?$basic_ostringstream@DU?$char_traits@D@std@@V?$allocator@D@2@@std@@QAE@H@Z$0 10000000 f   Team.obj
 0001:fffff000       __unwindfunclet$??0?$basic_ostringstream@DU?$char_traits@D@std@@V?$allocator@D@2@@std@@QAE@H@Z$0 10000000 f   Match.obj
 0001:fffff000       __unwindfunclet$??0?$basic_streambuf@DU?$char_traits@D@std@@@std@@IAE@XZ$0 10000000 f   Menu.obj
 0001:fffff000       __unwindfunclet$??1?$basic_ostringstream@DU?$char_traits@D@std@@V?$allocator@D@2@@std@@UAE@XZ$0 10000000 f   Menu.obj
 0001:fffff000       __unwindfunclet$??6?$basic_ostream@DU?$char_traits@D@std@@@std@@QAEAAV01@H@Z$2 10000000 f   Match.obj
 0001:fffff000       __unwindfunclet$??$use_facet@V?$ctype@D@std@@@std@@YAABV?$ctype@D@0@ABVlocale@0@@Z$0 10000000 f   SayTeamHook.obj
 0001:fffff000       __unwindfunclet$??0?$basic_streambuf@DU?$char_traits@D@std@@@std@@IAE@XZ$0 10000000 f   Team.obj
 0001:fffff000       __unwindfunclet$?widen@?$basic_ios@DU?$char_traits@D@std@@@std@@QBEDD@Z$0 10000000 f   SayTeamHook.obj
 0001:fffff000       __unwindfunclet$??0?$basic_ostringstream@DU?$char_traits@D@std@@V?$allocator@D@2@@std@@QAE@H@Z$0 10000000 f   Messages.obj
 0001:fffff000       __unwindfunclet$?_Ipfx@?$basic_istream@DU?$char_traits@D@std@@@std@@QAE_N_N@Z$2 10000000 f   SayTeamHook.obj
 0001:fffff000       __ehhandler$?_Copy@?$basic_string@DU?$char_traits@D@std@@V?$allocator@D@2@@std@@IAEXII@Z 10000000 f   Menu.obj
 0001:fffff000       __unwindfunclet$??0?$basic_stringbuf@DU?$char_traits@D@std@@V?$allocator@D@2@@std@@QAE@H@Z$0 10000000 f   Menu.obj
 0001:fffff000       __unwindfunclet$??0sentry@?$basic_istream@DU?$char_traits@D@std@@@std@@QAE@AAV12@_N@Z$0 10000000 f   SayTeamHook.obj
 0001:fffff000       __unwindfunclet$??$?6DU?$char_traits@D@std@@V?$allocator@D@1@@std@@YAAAV?$basic_ostream@DU?$char_traits@D@std@@@0@AAV10@ABV?$basic_string@DU?$char_traits@D@std@@V?$allocator@D@2@@0@@Z$2 10000000 f   Messages.obj
 0001:fffff000       __unwindfunclet$??0?$basic_istream@DU?$char_traits@D@std@@@std@@QAE@PAV?$basic_streambuf@DU?$char_traits@D@std@@@1@_N@Z$0 10000000 f   SayTeamHook.obj
 0001:fffff000       __unwindfunclet$??1_Locinfo@std@@QAE@XZ$0 10000000 f   Menu.obj
 0001:fffff000       __unwindfunclet$??$?HDU?$char_traits@D@std@@V?$allocator@D@1@@std@@YA?AV?$basic_string@DU?$char_traits@D@std@@V?$allocator@D@2@@0@ABV10@0@Z$0 10000000 f   Menu.obj
 0001:fffff000       __unwindfunclet$??$?5DU?$char_traits@D@std@@V?$allocator@D@1@@std@@YAAAV?$basic_istream@DU?$char_traits@D@std@@@0@AAV10@AAV?$basic_string@DU?$char_traits@D@std@@V?$allocator@D@2@@0@@Z$2 10000000 f   SayTeamHook.obj
 0001:fffff000       __unwindfunclet$??0logic_error@std@@QAE@ABV?$basic_string@DU?$char_traits@D@std@@V?$allocator@D@2@@1@@Z$0 10000000 f   Menu.obj
 0001:fffff000       __unwindfunclet$??0runtime_error@std@@QAE@ABV?$basic_string@DU?$char_traits@D@std@@V?$allocator@D@2@@1@@Z$0 10000000 f   Menu.obj
 0001:fffff000       __unwindfunclet$??0runtime_error@std@@QAE@ABV?$basic_string@DU?$char_traits@D@std@@V?$allocator@D@2@@1@@Z$0 10000000 f   Timer.obj
 0001:fffff000       __unwindfunclet$??0?$basic_istringstream@DU?$char_traits@D@std@@V?$allocator@D@2@@std@@QAE@ABV?$basic_string@DU?$char_traits@D@std@@V?$allocator@D@2@@1@H@Z$0 10000000 f   SayTeamHook.obj
 0001:fffff000       __unwindfunclet$??1_Locinfo@std@@QAE@XZ$0 10000000 f   Timer.obj
 0001:fffff000       __unwindfunclet$??$?6DU?$char_traits@D@std@@V?$allocator@D@1@@std@@YAAAV?$basic_ostream@DU?$char_traits@D@std@@@0@AAV10@ABV?$basic_string@DU?$char_traits@D@std@@V?$allocator@D@2@@0@@Z$2 10000000 f   Match.obj
 0001:fffff000       __unwindfunclet$?str@?$basic_stringbuf@DU?$char_traits@D@std@@V?$allocator@D@2@@std@@QBE?AV?$basic_string@DU?$char_traits@D@std@@V?$allocator@D@2@@2@XZ$0 10000000 f   Menu.obj
 0001:fffff000       __unwindfunclet$??0logic_error@std@@QAE@ABV01@@Z$0 10000000 f   Menu.obj
 0001:fffff000       __unwindfunclet$??$?6U?$char_traits@D@std@@@std@@YAAAV?$basic_ostream@DU?$char_traits@D@std@@@0@AAV10@PBD@Z$2 10000000 f   Match.obj
 0001:fffff000       __unwindfunclet$??$?HDU?$char_traits@D@std@@V?$allocator@D@1@@std@@YA?AV?$basic_string@DU?$char_traits@D@std@@V?$allocator@D@2@@0@PBDABV10@@Z$0 10000000 f   Menu.obj
 0001:fffff000       __unwindfunclet$?_Iput@?$num_put@DV?$ostreambuf_iterator@DU?$char_traits@D@std@@@std@@@std@@ABA?AV?$ostreambuf_iterator@DU?$char_traits@D@std@@@2@V32@AAVios_base@2@DPADI@Z$0 10000000 f   Match.obj
 0001:fffff000       __unwindfunclet$??0?$basic_streambuf@DU?$char_traits@D@std@@@std@@IAE@XZ$0 10000000 f   SayHook.obj
 0001:fffff000       __unwindfunclet$??$?HDU?$char_traits@D@std@@V?$allocator@D@1@@std@@YA?AV?$basic_string@DU?$char_traits@D@std@@V?$allocator@D@2@@0@ABV10@PBD@Z$0 10000000 f   Menu.obj
 0001:fffff000       __unwindfunclet$??1?$basic_istringstream@DU?$char_traits@D@std@@V?$allocator@D@2@@std@@UAE@XZ$0 10000000 f   SayHook.obj
 0001:fffff000       __unwindfunclet$??$?6U?$char_traits@D@std@@@std@@YAAAV?$basic_ostream@DU?$char_traits@D@std@@@0@AAV10@PBD@Z$2 10000000 f   Messages.obj
 0001:fffff000       __unwindfunclet$??1sentry@?$basic_ostream@DU?$char_traits@D@std@@@std@@QAE@XZ$0 10000000 f   Messages.obj
 0001:fffff000       __unwindfunclet$??0_Locinfo@std@@QAE@PBD@Z$0 10000000 f   Menu.obj
 0001:fffff000       __ehhandler$?_Copy@?$basic_string@DU?$char_traits@D@std@@V?$allocator@D@2@@std@@IAEXII@Z 10000000 f   SayHook.obj
 0001:fffff000       __unwindfunclet$??0?$basic_stringbuf@DU?$char_traits@D@std@@V?$allocator@D@2@@std@@QAE@ABV?$basic_string@DU?$char_traits@D@std@@V?$allocator@D@2@@1@H@Z$0 10000000 f   SayHook.obj
 0001:fffff000       __unwindfunclet$??0?$basic_ostream@DU?$char_traits@D@std@@@std@@QAE@PAV?$basic_streambuf@DU?$char_traits@D@std@@@1@_N@Z$0 10000000 f   Messages.obj
 0001:fffff000       __unwindfunclet$??0runtime_error@std@@QAE@ABV01@@Z$0 10000000 f   Menu.obj
 0001:fffff000       __unwindfunclet$??0?$basic_stringbuf@DU?$char_traits@D@std@@V?$allocator@D@2@@std@@QAE@H@Z$0 10000000 f   Timer.obj
 0001:fffff000       __unwindfunclet$??0?$ctype@D@std@@QAE@PBF_NI@Z$0 10000000 f   Menu.obj
 0001:fffff000       __unwindfunclet$?_Getcat@?$ctype@D@std@@SAIPAPBVfacet@locale@2@@Z$0 10000000 f   Menu.obj
 0001:fffff000       __unwindfunclet$??1_Locinfo@std@@QAE@XZ$0 10000000 f   SayHook.obj
 0001:fffff000       __ehhandler$?_Copy@?$basic_string@DU?$char_traits@D@std@@V?$allocator@D@2@@std@@IAEXII@Z 10000000 f   Timer.obj
 0001:fffff000       __unwindfunclet$??0runtime_error@std@@QAE@ABV?$basic_string@DU?$char_traits@D@std@@V?$allocator@D@2@@1@@Z$0 10000000 f   SayHook.obj
 0001:fffff000       __unwindfunclet$?clear@ios_base@std@@QAEXH_N@Z$0 10000000 f   Menu.obj
 0001:fffff000       __unwindfunclet$??$?HDU?$char_traits@D@std@@V?$allocator@D@1@@std@@YA?AV?$basic_string@DU?$char_traits@D@std@@V?$allocator@D@2@@0@PBDABV10@@Z$0 10000000 f   SayHook.obj
 0001:fffff000       __ehhandler$?_Osfx@?$basic_ostream@DU?$char_traits@D@std@@@std@@QAEXXZ 10000000 f   Messages.obj
 0001:fffff000       __unwindfunclet$??$use_facet@V?$ctype@D@std@@@std@@YAABV?$ctype@D@0@ABVlocale@0@@Z$0 10000000 f   Menu.obj
 0001:fffff000       __unwindfunclet$??1?$basic_ostringstream@DU?$char_traits@D@std@@V?$allocator@D@2@@std@@UAE@XZ$0 10000000 f   Timer.obj
 0001:fffff000       __unwindfunclet$??0?$num_put@DV?$ostreambuf_iterator@DU?$char_traits@D@std@@@std@@@std@@QAE@I@Z$0 10000000 f   Menu.obj
 0001:fffff000       __ehhandler$?_Init@?$numpunct@D@std@@IAEXABV_Locinfo@2@@Z 10000000 f   Menu.obj
 0001:fffff000       __unwindfunclet$??0?$numpunct@D@std@@QAE@I@Z$0 10000000 f   Menu.obj
 0001:fffff000       __unwindfunclet$??0_Locinfo@std@@QAE@PBD@Z$0 10000000 f   SayHook.obj
 0001:fffff000       __unwindfunclet$??0?$basic_streambuf@DU?$char_traits@D@std@@@std@@IAE@XZ$0 10000000 f   Timer.obj
 0001:fffff000       __unwindfunclet$??0runtime_error@std@@QAE@ABV01@@Z$0 10000000 f   SayHook.obj
 0001:fffff000       __unwindfunclet$??$?HDU?$char_traits@D@std@@V?$allocator@D@1@@std@@YA?AV?$basic_string@DU?$char_traits@D@std@@V?$allocator@D@2@@0@ABV10@0@Z$0 10000000 f   GestionMenus.obj
 0001:fffff000       __unwindfunclet$??0?$ctype@D@std@@QAE@PBF_NI@Z$0 10000000 f   SayHook.obj
 0001:fffff000       __unwindfunclet$??$?HDU?$char_traits@D@std@@V?$allocator@D@1@@std@@YA?AV?$basic_string@DU?$char_traits@D@std@@V?$allocator@D@2@@0@ABV10@PBD@Z$0 10000000 f   GestionMenus.obj
 0001:fffff000       __unwindfunclet$?_Getcat@?$ctype@D@std@@SAIPAPBVfacet@locale@2@@Z$0 10000000 f   SayHook.obj
 0001:fffff000       __unwindfunclet$??$?HDU?$char_traits@D@std@@V?$allocator@D@1@@std@@YA?AV?$basic_string@DU?$char_traits@D@std@@V?$allocator@D@2@@0@PBDABV10@@Z$0 10000000 f   GestionMenus.obj
 0001:fffff000       __ehhandler$?_Copy@?$basic_string@DU?$char_traits@D@std@@V?$allocator@D@2@@std@@IAEXII@Z 10000000 f   GestionMenus.obj
 0001:fffff000       __unwindfunclet$??0sentry@?$basic_ostream@DU?$char_traits@D@std@@@std@@QAE@AAV12@@Z$0 10000000 f   Messages.obj
 0001:fffff000       __unwindfunclet$?clear@ios_base@std@@QAEXH_N@Z$0 10000000 f   SayHook.obj
 0001:fffff000       __unwindfunclet$?widen@?$basic_ios@DU?$char_traits@D@std@@@std@@QBEDD@Z$0 10000000 f   Menu.obj
 0001:fffff000       __unwindfunclet$?_Getcat@?$num_put@DV?$ostreambuf_iterator@DU?$char_traits@D@std@@@std@@@std@@SAIPAPBVfacet@locale@2@@Z$0 10000000 f   Menu.obj
 0001:fffff000       __ehhandler$?_Init@?$numpunct@D@std@@IAEXABV_Locinfo@2@@Z 10000000 f   Timer.obj
 0001:fffff000       __unwindfunclet$?_Fput@?$num_put@DV?$ostreambuf_iterator@DU?$char_traits@D@std@@@std@@@std@@ABA?AV?$ostreambuf_iterator@DU?$char_traits@D@std@@@2@V32@AAVios_base@2@DPBDIIII@Z$0 10000000 f   Match.obj
 0001:fffff000       __unwindfunclet$?_Getcat@?$numpunct@D@std@@SAIPAPBVfacet@locale@2@@Z$0 10000000 f   Menu.obj
 0001:fffff000       __unwindfunclet$??$use_facet@V?$ctype@D@std@@@std@@YAABV?$ctype@D@0@ABVlocale@0@@Z$0 10000000 f   SayHook.obj
 0001:fffff000       __unwindfunclet$??0sentry@?$basic_ostream@DU?$char_traits@D@std@@@std@@QAE@AAV12@@Z$0 10000000 f   Menu.obj
